
obj/firmware.elf:     file format elf32-littleriscv

Contents of section .vectors:
 0000 6f10d00e 6f10900d 6f10500d 6f10100d  o...o...o.P.o...
 0010 6f10d00c 6f10900c 6f10500c 6f109013  o...o...o.P.o...
 0020 6f10d00b 6f10900b 6f10500b 6f10100b  o...o...o.P.o...
 0030 6f10d00a 6f10900a 6f10500a 6f10100a  o...o...o.P.o...
 0040 6f10500d 6f109009 6f105009 6f101009  o.P.o...o.P.o...
 0050 6f10d008 6f109008 6f10d00d 6f101008  o...o...o...o...
 0060 6f10d007 6f109007 6f105007 6f101007  o...o...o.P.o...
 0070 6f10d006 6f109006 6f105006 6f109014  o...o...o.P.o...
 0080 6f10d005 6f109005 6f105005 6f101005  o...o...o.P.o...
 0090 6f10d004 6f109004 6f105004 6f101004  o...o...o.P.o...
 00a0 6f10d003 6f109003 6f105003 6f101003  o...o...o.P.o...
 00b0 6f10d002 6f109002 6f105002 6f101002  o...o...o.P.o...
 00c0 6f10d001 6f109001 6f105001 6f101001  o...o...o.P.o...
 00d0 6f10d000 6f109000 6f105000 6f101000  o...o...o.P.o...
 00e0 6f10c07f 6f10807f 6f10407f 6f10007f  o...o...o.@.o...
 00f0 6f10c07e 6f10807e 6f10407e 6f10007e  o..~o..~o.@~o..~
Contents of section .init:
 0180 97110100 9381c1e4 17210100 130181ea  .........!......
 0190 17050000 130505e7 13651500 73105530  .........e..s.U0
 01a0 02454c00 01460920                    .EL..F.         
Contents of section .text:
 01a8 1971a2dc 37040100 2ac61305 841586de  .q..7...*.......
 01b8 2ec4a6da cad8ced6 d2d4ef10 60333705  ............`37.
 01c8 01001305 851cef10 a0322246 6c00e808  .........2"Fl...
 01d8 ef00b061 05454d21 231ca100 09456929  ...a.EM!#....Ei)
 01e8 231da100 0d454929 231ea100 11456921  #....EI)#....Ei!
 01f8 2ada1545 51216305 05162adc e24781eb  *..EQ!c...*..G..
 0208 0317c101 09e71307 6006231e e1000547  ........`.#....G
 0218 639ee700 8317c101 91ebb737 15349387  c..........7.4..
 0228 57413ecc 93076006 231ef100 e256c567  WA>...`.#....V.g
 0238 93870786 13f81600 3ed01315 0801231c  ........>.....#.
 0248 010493f7 26004181 91c30505 93f74600  ....&.A.......F.
 0258 81c70505 42054181 9307007d 33d5a702  ....B.A....}3...
 0268 01478147 05438d48 2ad83316 e300758e  .G.G.C.H*.3...u.
 0278 09ce338e a7022c08 13162700 2e968255  ..3...,...'....U
 0288 8507c207 c183f295 4cc60507 e31f17fd  ........L.......
 0298 63080800 03168101 9255ef00 b0312ade  c........U...1*.
 02a8 e257898b 81cf8317 a1010316 8101a255  .W.............U
 02b8 4255c207 94005d8e ef00f058 e257918b  BU....]....X.W..
 02c8 91c73256 83158101 42558929 d2579deb  ..2V....BU.).W..
 02d8 85473eda a944d257 b3879702 3edaef00  .G>..D.W....>...
 02e8 703c2808 ef009050 ef00503d ef00b041  p<(....P..P=...A
 02f8 ef00904d 6dd1b3d4 a4025255 8504b304  ...Mm.....RU....
 0308 950226da ef00103a 2808ef00 304eef00  ..&....:(...0N..
 0318 f03aef00 503faa89 03158101 8145d52e  .:..P?.......E..
 0328 aa850315 a101f526 aa850315 c101d526  .......&.......&
 0338 aa850315 0103f12e a1679387 57b02a89  .........g..W.*.
 0348 630af52a 63e1a702 89679387 278f630b  c..*c....g..'.c.
 0358 f52c9567 9387f7ea 630af52a fd5415a2  .,.g....c..*.T..
 0368 9d473edc 61bda567 938727a0 6303f502  .G>.a..g..'.c...
 0378 bd679387 579fe313 f5fe1305 8415ef10  .g..W...........
 0388 20173705 01001305 0527ef10 60168d44   .7......'..`..D
 0398 21a81305 8415ef10 a0153705 01001305  !.........7.....
 03a8 051eef10 e0148144 e257231c 0104858b  .......D.W#.....
 03b8 a9c34167 93971400 1307471a ba9783d6  ..Ag......G.....
 03c8 07008357 21056386 d7021305 841536c4  ...W!.c.......6.
 03d8 ef100012 a2460356 21053705 01008145  .....F.V!.7....E
 03e8 1305c52c ef10c010 83578105 8507231c  ...,.....W....#.
 03f8 f104e257 898ba9c3 41679397 14001307  ...W....Ag......
 0408 471aba97 83d6c700 83574105 6386d702  G........WA.c...
 0418 13058415 36c4ef10 a00da246 03564105  ....6......F.VA.
 0428 37050100 81451305 c52fef10 600c8357  7....E.../..`..W
 0438 81058507 231cf104 e257918b a9c39397  ....#....W......
 0448 1400c164 9384441a be9483d6 84018357  ...d..D........W
 0458 61056386 d7021305 841536c4 ef104009  a.c.......6...@.
 0468 a2460356 61053705 01008145 13050533  .F.Va.7....E...3
 0478 ef100008 83578105 8507231c f1048314  .....W....#.....
 0488 8105592c aa941305 8415ef10 6006c255  ..Y,........`..U
 0498 37050100 13050536 ef108005 13058415  7......6........
 04a8 ef100005 37050100 ce851305 8537ef10  ....7........7..
 04b8 20041305 8415ef10 a0034e85 ef00d030   .........N....0
 04c8 aa853705 01001305 0539ef10 6002c204  ..7......9..`...
 04d8 4e85c180 ef00502f 09c51305 8415ef10  N.....P/........
 04e8 2001525a 4e85ef00 302eb355 aa023705   .RZN...0..U..7.
 04f8 01001305 853aef00 b07f4e85 ef00d02c  .....:....N....,
 0508 a54763fd a7121305 8415ef00 707ed255  .Gc.........p~.U
 0518 37050100 13050540 ef00907d 13058415  7......@...}....
 0528 ef00107d b7050100 37050100 93858541  ...}....7......A
 0538 13050542 ef00d07b 13058415 ef00507b  ...B...{......P{
 0548 37050100 ca851305 8543ef00 707ae257  7........C..pz.W
 0558 c204c184 858b91cf 13058415 ef005079  ..............Py
 0568 03562105 37050100 81451305 4545ef00  .V!.7....E..EE..
 0578 3078e257 898b91cf 13058415 ef005077  0x.W..........Pw
 0588 03564105 37050100 81451305 0547ef00  .VA.7....E...G..
 0598 3076e257 918b91cf 13058415 ef005075  0v.W..........Pu
 05a8 03566105 37050100 81451305 c548ef00  .Va.7....E...H..
 05b8 30741305 8415ef00 b0730356 01053705  0t.......s.V..7.
 05c8 01008145 1305c556 ef009072 c1e41305  ...E...V...r....
 05d8 8415ef00 f0713705 01001305 854aef00  .....q7......J..
 05e8 3071f650 6654d654 4659b659 265a0145  0q.PfT.TFY.Y&Z.E
 05f8 09618280 13058415 ef00906f 37050100  .a.........o7...
 0608 13050521 ef00d06e 854479bb 13058415  ...!...n.Dy.....
 0618 ef00106e 37050100 1305c523 ef00506d  ...n7......#..Pm
 0628 894459b3 13058415 ef00906c 37050100  .DY........l7...
 0638 1305052a ef00d06b 9144bdb3 13058415  ...*...k.D......
 0648 ef00106b 37050100 1305053c ef00506a  ...k7......<..Pj
 0658 850455bd 13058415 63599000 ef005069  ..U.....cY....Pi
 0668 37050100 1305454f 9dbfef00 70683705  7.....EO....ph7.
 0678 01001305 8550a5b7 7d159147 63e8a702  .....P..}..Gc...
 0688 c1679387 07000a05 3e951c41 828703a5  .g......>..A....
 0698 41848280 03a50184 828003a5 81838280  A...............
 06a8 03a54183 828003a5 c1838280 01458280  ..A..........E..
 06b8 9166a147 89066176 33c7a500 058b0581  .f.G..av3.......
 06c8 11c3b58d 858101c7 d18dc205 c181fd17  ................
 06d8 93f7f70f f5f32e85 82804111 22c42a84  ..........A.".*.
 06e8 1375f50f 06c6e937 aa851355 84002244  .u.....7...U.."D
 06f8 b2404101 75bf4111 22c42a84 42054181  .@A.u.A.".*.B.A.
 0708 06c6e13f aa851355 04012244 b2404101  ...?...U.."D.@A.
 0718 e9b74205 4181d1b7 01458280 8505c205  ..B.A....E......
 0728 41684163 130ef5ff c1818147 01478146  AhAc.......G.G.F
 0738 930ec002 114f1308 88041303 4301b388  .....O......C...
 0748 e600938f 180063e9 cf01b307 d6003387  ......c.......3.
 0758 c740636f a7048280 19cfb296 3e9783c2  .@co........>...
 0768 07008507 8506a38f 56fee31a f7feb298  ........V.......
 0778 2380d801 fe8613f7 75007517 420793d7  #.......u.u.B...
 0788 15004183 b18b6367 ef000a07 1a971843  ..A...cg.......C
 0798 c2970287 c2979c43 11478505 c205c181  .......C.G......
 07a8 79bf9c4b 2147d5bf 9c53edbf 9c5bddbf  y..K!G...S...[..
 07b8 23800700 850761bf 14414168 01470543  #.....a..AAh.G.C
 07c8 130ec002 9d4e1308 88022546 130f5004  .....N....%F..P.
 07d8 9308e002 83c70600 99c36315 670014c1  ..........c.g...
 07e8 3a858280 8506e38c c7ffe3e5 eefe931f  :...............
 07f8 2700c29f 83af0f00 828f938f 07fd93ff  '...............
 0808 ff0f1147 6370f603 938f57fd 93ffdf0f  ...Gcp....W.....
 0818 09476389 0f001547 63861701 dc410547  .Gc....Gc....A.G
 0828 8507dcc1 9c418507 9cc16db7 9845938f  .....A....m..E..
 0838 07fd93ff ff0f0507 6377f601 63981701  ........cw..c...
 0848 98c51547 41bf98c5 114769b7 98c50547  ...GA....Gi....G
 0858 51b76396 17019c49 85079cc9 ddb79387  Q.c....I........
 0868 07fd93f7 f70fe377 f6f69c49 85079cc9  .......w...I....
 0878 f9bf93ff f70d6397 ef01dc49 0d478507  ......c....I.G..
 0888 dcc989bf 938707fd 93f7f70f e374f6f4  .............t..
 0898 dc498507 dcc965bf d8459387 57fd93f7  .I....e..E..W...
 08a8 d70f0507 d8c51947 ddf32db7 984d9387  .......G..-..M..
 08b8 07fd93f7 f70f0507 98cd1d47 e37cf6f0  ...........G.|..
 08c8 79b79387 07fd93f7 f70fe375 f6f0dc41  y..........u...A
 08d8 8507dcc1 adbf1971 a2dca6da cad8ced6  .......q........
 08e8 d2d42e84 3e892ece 86deaa84 368aba89  ....>.......6...
 08f8 81459307 00029400 3387b600 14102320  .E......3.....# 
 0908 07003387 b6002320 07009105 e395f5fe  ..3...# ........
 0918 f24783c7 0700b1ef 22cea294 1307c002  .G......".......
 0928 f24763e6 970622ce f24783c7 0700bdeb  .Gc..."..G......
 0938 22ce1307 c002f247 63e29708 01449304  "......Gc....D..
 0948 00021410 b3878600 8843ca85 6d339800  .........C..m3..
 0958 b3078700 aa858843 1104713b 2a89e312  .......C..q;*...
 0968 94fef650 6654d654 4659b659 265a0961  ...PfT.TFY.Y&Z.a
 0978 82808c00 680832c6 81350a05 98103a95  ....h.2..5....:.
 0988 832705fc 32468507 2320f5fc 51b783c5  .'..2F..# ..Q...
 0998 07006385 e500b18d 2380b700 f247ce97  ..c.....#....G..
 09a8 3ecebdbf 8c006808 013d9c10 0a053e95  >.....h..=....>.
 09b8 832705fc 85072320 f5fcbdb7 03c60700  .'....# ........
 09c8 6306e600 33464601 2380c700 f247ce97  c...3FF.#....G..
 09d8 3ece95b7 0de68317 050013f7 07f0c207  >...............
 09e8 c183a183 d98f2310 f5008397 050013f7  ......#.........
 09f8 07f0c207 c183a183 d98f2390 f5000315  ..........#.....
 0a08 25008397 25001d8d 82800111 26ca8314  %...%.......&...
 0a18 050006ce 22cc93d7 74404ac8 4ec6858b  ...."...t@J.N...
 0a28 91cb13f5 f407f240 6244d244 4249b249  .......@bD.DBI.I
 0a38 05618280 2e8493d5 344093f7 f5009395  .a......4@......
 0a48 470013f7 7400dd8d aa898357 840311c7  G...t......W....
 0a58 8546630f d7042689 15a89306 20022e87  .Fc...&..... ...
 0a68 63d4d500 13072002 83162400 03160400  c..... ...$.....
 0a78 4c48084c 1377f70f b93d8357 e4031319  LH.L.w...=.W....
 0a88 05011359 094199e3 231fa402 83558403  ...Y.A..#....U..
 0a98 13150901 41819131 93f404f0 231ca402  ....A..1....#...
 0aa8 93e40408 1375f907 c98c2390 9900a5bf  .....u....#.....
 0ab8 3e861305 8402ef00 50098357 c4031319  >.......P..W....
 0ac8 05011359 0941f9f3 231ea402 c1b70111  ...Y.A..#.......
 0ad8 26caae84 b28506ce 22cc32c6 3d373246  &.......".2.=72F
 0ae8 2a842685 b2851537 3305a440 f2406244  *.&....73..@.@bD
 0af8 d2440561 82808397 05002310 f5008397  .D.a......#.....
 0b08 25002311 f5008280 2a880842 93088500  %.#.....*..B....
 0b18 63fce802 98421303 47006377 f3022320  c....B..G.cw..# 
 0b28 16018327 08001cc1 2320a800 58c19c42  ...'....# ..X..B
 0b38 03970500 91079cc2 5c412390 e7000397  ........\A#.....
 0b48 25002391 e7008280 01458280 1c415841  %.#......E...AXA
 0b58 d44354c1 d8c39843 18c123a0 07003e85  .CT....C..#...>.
 0b68 8280d441 584154c1 d8c19841 18c188c1  ...AXAT....A....
 0b78 82808397 250063de 070015c1 5c4103c7  ....%.c.....\A..
 0b88 07008397 05006313 f7008280 0841f5b7  ......c......A..
 0b98 084111c5 58410317 2700e31b f7fe8280  .A..XA..'.......
 0ba8 aa870145 91e38280 984388c3 3e85ba87  ...E.....C..>...
 0bb8 d5bf7971 52cc56ca 62c466c2 6ac006d6  ..yqR.V.b.f.j...
 0bc8 22d426d2 4ad04ece 5ac85ec6 2e8cb28c  ".&.J.N.Z.^.....
 0bd8 2a8a854a 054dd284 814b014b 014a99e4  *..J.M...K.K.J..
 0be8 23200b00 635e7d05 860af5b7 850b2684  # ..c^}.......&.
 0bf8 01490040 050909e8 d689631a 09006383  .I.@......c...c.
 0c08 090015e8 a284e1bf e3952aff f5b76383  ..........*...c.
 0c18 090001ec a2872684 84407d19 63000b02  ......&..@}.c...
 0c28 23208b00 228b3e84 c9bf4c40 c8406686  # ..".>...L@.@f.
 0c38 029ce351 a0fe1c40 fd19cdb7 228addb7  ...Q...@...."...
 0c48 b2502254 52859254 0259f249 624ad24a  .P"TR..T.Y.IbJ.J
 0c58 424bb24b 224c924c 024d4561 82805d71  BK.K"L.L.MEa..]q
 0c68 a2c45ed6 4051831b 4500a6c2 cac052dc  ..^.@Q..E.....R.
 0c78 56da5ad8 86c64ede 2a862e8a 231fb100  V.Z...N.*...#...
 0c88 814a014b 01498144 63cf7a07 0a093309  .J.K.I.Dc.z...3.
 0c98 6941ca94 c204c180 63594001 b7150000  iA......cY@.....
 0ca8 22859385 65ad3137 2a840840 4535aa89  "...e.17*..@E5..
 0cb8 6c082285 7d3d2a89 19e10329 04006317  l.".}=*....)..c.
 0cc8 090c1c40 03a74900 b7150000 d4432285  ...@..I......C".
 0cd8 014623a2 d900d8c3 98439385 c59d23a0  .F#......C....#.
 0ce8 e90023a0 3701f135 00412a89 55e8b640  ..#.7..5.A*.U..@
 0cf8 26442685 06499644 f259625a d25a425b  &D&..I.D.YbZ.ZB[
 0d08 b25b6161 828093f7 fa0f6c08 228532c6  .[aa......l.".2.
 0d18 231ef100 b93daa89 22855935 2a843246  #....=..".Y5*.2F
 0d28 639c0902 1c41050b 420bdc43 135b0b01  c....A..B..C.[..
 0d38 83871700 858bbe94 c204c180 8317e101  ................
 0d48 63c50700 8507231f f1009387 1a00939a  c.....#.........
 0d58 070193da 0a410dbf 03a74900 05094209  .....A....I...B.
 0d68 83170700 13590901 13f71700 11c7a587  .....Y..........
 0d78 858bbe94 c204c180 83a70900 e1d39843  ...............C
 0d88 23a0e900 184098c3 1cc04dbf 5c40a685  #....@....M.\@..
 0d98 03950700 eff0ff97 aa840329 090005b7  ...........)....
 0da8 83274900 a6850395 0700eff0 9f96aa84  .'I.............
 0db8 00402dbf 397122dc 51443354 850226da  .@-.9q".QD3T..&.
 0dc8 4ad84ed6 52d456d2 06dea167 23a00500  J.N.R.V....g#...
 0dd8 93870708 ae893289 34087000 4e85014a  ......2.4.p.N..J
 0de8 79149314 3400ae94 c4c19cc0 93878500  y...4...........
 0df8 3ec69387 44003ecc 931a2400 b7070080  >...D.>...$.....
 0e08 93c7f7ff a69a3ece 2687d687 6c08ed39  ......>.&...l..9
 0e18 636c8a02 15453354 a40283a7 09001166  cl...E3T.......f
 0e28 05477d16 8c43a9e9 b7150000 4e850146  .G}..C......N..F
 0e38 9385c59d bd3bf250 6254d254 4259b259  .....;.PbT.TBY.Y
 0e48 225a925a 21618280 13170a01 4183b347  "Z.Z!a......A..G
 0e58 27018e07 1d8b93f7 8707d98f 13978700  '...............
 0e68 d98f231e f1002687 d6873408 70006c08  ..#...&...4.p.l.
 0e78 4e855939 050a69bf c8436378 8700ba87  N.Y9..i..Ccx....
 0e88 2311f500 0507ae87 71bf9316 0701c182  #.......q.......
 0e98 93871600 a20793f7 0770b3c6 2601d58f  .........p..&...
 0ea8 f18ff9bf b7070410 f05323a4 c188b853  .........S#....S
 0eb8 93860706 f4d323a8 e1888280 b7070410  ......#.........
 0ec8 f4534111 22c426c2 06c623a6 d1889386  .SA.".&...#.....
 0ed8 0706f4d3 bc533705 010023a2 f18803a6  .....S7...#.....
 0ee8 018983a5 81881305 85131925 83a5c188  ...........%....
 0ef8 224403a6 4188b240 92443705 01001305  "D..A..@.D7.....
 0f08 85144101 f5a30111 4ac84ec6 22cc83a7  ..A.....J.N."...
 0f18 018903a4 418856c2 5ac006ce 26ca52c4  ....A.V.Z...&.R.
 0f28 63f78702 1d8c9357 840003a7 818803a4  c......W........
 0f38 c188198c 62043e94 2285f240 6244d244  ....b.>."..@bD.D
 0f48 4249b249 224a924a 024b0561 8280370a  BI.I"J.J.K.a..7.
 0f58 01001305 8a15692b 83a74188 83a50189  ......i+..A.....
 0f68 37050100 1305c515 9d8d5923 13058a15  7.........Y#....
 0f78 83a44188 03a40189 a52b03a6 418883a5  ..A......+..A...
 0f88 01893705 01001305 05179d23 13058a15  ..7........#....
 0f98 8523058c 93548400 37050100 a6851305  .#...T..7.......
 0fa8 4518b923 03a4c188 83a78188 13058a15  E..#............
 0fb8 7d141d8c 62042d2b 26943705 0100a285  }...b.-+&.7.....
 0fc8 13054519 35238dbf 411106c6 ef10201d  ..E.5#..A..... .
 0fd8 b7070100 9387877f 9043d443 ef003044  .........C.C..0D
 0fe8 ef102016 b2404101 82808280 41114ac0  .. ..@A.....A.J.
 0ff8 0329c501 22c426c2 06c62a84 232c0502  .)..".&...*.#,..
 1008 232e0502 81446399 2401b240 22449244  #....Dc.$..@"D.D
 1018 02490145 41018280 85452285 89318355  .I.EA....E"..1.U
 1028 8403eff0 8feb231c a402fd55 22850539  ......#....U"..9
 1038 83558403 eff06fea 231ca402 99e0231d  .U....o.#.....#.
 1048 a4028504 c9b74111 22c611e2 05460147  ......A."....F.G
 1058 81476360 a7041385 f7ffb307 a5028d05  .Gc`............
 1068 f1999312 1500014f 0543c163 93981700  .......O.C.c....
 1078 b3871501 be8f3384 f5406360 af069cc6  ......3..@c`....
 1088 c6973244 8d07f19b ccc2dcc6 88c24101  ..2D..........A.
 1098 82808507 3387f702 0e0765bf 33060603  ....3.....e.3...
 10a8 13170801 41830508 33667602 b30ec700  ....A...3fv.....
 10b8 c20e93de 0e017697 2310de01 1377f70f  ......v.#....w..
 10c8 b30ec401 2390ee00 090e3307 6840e367  ....#.....3.h@.g
 10d8 a7fc050f 969f2a93 4db77e8e 1a88f5b7  ......*.M.~.....
 10e8 131e2500 81488147 01478146 639fa802  ..%..H.G.G.Fc...
 10f8 3e858280 13132800 2e930323 0300c207  >.....(....#....
 1108 c1839a96 635dd600 a907c207 c1878146  ....c].........F
 1118 05081a87 e310a8fe 8508f295 c1bf3327  ..............3'
 1128 6700ba97 c207c187 e5b70148 e5b71313  g..........H....
 1138 1500131e 25000147 6316a702 82809398  ....%..Gc.......
 1148 1700b298 83980800 13982700 2e98b388  ..........'.....
 1158 d8028507 23201801 e393a7fe 05071a96  ....# ..........
 1168 f295d9bf 8147cdbf 93181500 0147631f  .....G.......Gc.
 1178 a7008280 03d80700 85068907 3298239f  ............2.#.
 1188 07ffe399 a6fe0507 c695d5b7 ae878146  ...............F
 1198 cdbf1313 15000147 6313a700 828023a0  .......Gc.....#.
 11a8 05008147 63966700 05079105 1a96edb7  ...Gc.g.........
 11b8 3308f600 b388f600 03180800 83980800  3...............
 11c8 8907b308 180303a8 05004698 23a00501  ..........F.#...
 11d8 d1bf931f 2500131f 15000143 6314a304  ....%......Cc...
 11e8 82801317 180023a0 07003697 8148639a  ......#...6..Hc.
 11f8 a8000508 9107e316 a8fe0503 fe957a96  ..............z.
 1208 f1bf139e 1800329e 031e0e00 831e0700  ......2.........
 1218 85087a97 b30ede03 03ae0700 769e23a0  ..z.........v.#.
 1228 c701f1b7 ae870148 f9b7931f 2500131f  .......H....%...
 1238 1500814e 639cae04 82801318 13002320  ...Nc.........# 
 1248 07003698 014e631a ae000503 1107e316  ..6..Nc.........
 1258 a3fe850e fe957a96 f1bf9317 1e00b297  ......z.........
 1268 83180800 83970700 050e7a98 b3871703  ..........z.....
 1278 93d82740 958793f8 f80093f7 f707b387  ..'@............
 1288 f8028328 0700c697 1cc375bf 2e870143  ...(......u....C
 1298 7dbf0111 4ac83289 26ca3a86 52c4ae84  }...J.2.&.:.R...
 12a8 7d7aca85 06ce336a 470122cc 4ec656c2  }z....3jG.".N.V.
 12b8 ba895ac0 2a84b68a 453dce86 4a86a685  ..Z.*...E=..J...
 12c8 2285b535 5286a685 2285193d 8145eff0  "..5R..."..=.E..
 12d8 4fc4d686 2a8b4a86 a6852285 5d3d5286  O...*.J...".]=R.
 12e8 a6852285 f53bda85 eff0afc2 d6862a8b  .."..;........*.
 12f8 4a86a685 2285f13d 5286a685 2285cd33  J..."..=R..."..3
 1308 da85eff0 0fc1d686 2a8b4a86 a6852285  ........*.J...".
 1318 293f5286 a6852285 e133da85 eff06fbf  )?R..."..3....o.
 1328 33063041 4206aa84 ca852285 41862d3d  3.0AB.....".A.-=
 1338 f2406244 13950401 4249d244 b249224a  .@bD....BI.D.I"J
 1348 924a024b 41850561 82804111 22c42e87  .J.KA..a..A."...
 1358 32844c45 14455041 084106c6 1d3fa285  2.LE.EPA.A...?..
 1368 2244b240 41016ff0 cfbab707 0110c8c3  "D.@A.o.........
 1378 82803707 01108347 050091e3 82800505  ..7....G........
 1388 5cc3d5bf 41115c00 be862946 19ed638e  \...A.\...)F..c.
 1398 d7003706 0110fd17 03c70700 13070703  ..7.............
 13a8 58c2e39a d7fe4101 82803377 c5028507  X.....A...3w....
 13b8 a38fe7fe 3355c502 d1bffd15 37070100  ....3U......7...
 13c8 8a051307 075ab706 011063d3 05008280  .....Z....c.....
 13d8 b357b500 bd8bba97 83c70700 f115dcc2  .W..............
 13e8 edb77971 22d426d2 4ad04ece 52cc56ca  ..yq".&.J.N.R.V.
 13f8 5ac85ec6 06d662c4 2a84ae87 81441309  Z.^...b.*....D..
 1408 5002b709 0110130a d002930a 0003254b  P.............%K
 1418 a94b0347 040011ef b2502254 26850259  .K.G.....P"T&..Y
 1428 9254f249 624ad24a 424bb24b 224c4561  .T.IbJ.JBK.K"LEa
 1438 82806318 270b8346 1400f9de 13071400  ..c.'..F........
 1448 6380260b 63944601 13072400 3a840347  c.&.c.F...$.:..G
 1458 04009306 14006308 57038145 03470400  ......c.W..E.G..
 1468 13051400 930607fd 13f6f60f 637fcb00  ............c...
 1478 93063007 6310d702 8843138c 4700d53d  ..0.c....C..G..=
 1488 e2870504 79b73684 d9b7b385 75032a84  ....y.6.....u.*.
 1498 b695e9b7 93064006 6318d700 8843138c  ......@.c....C..
 14a8 4700cd35 8504e9bf 93068007 6317d700  G..5........c...
 14b8 8843138c 47001137 f5b79306 8005e309  .C..G..7........
 14c8 d7fe9306 5007e30b d7fc9306 3006e31a  ....P.......0...
 14d8 d7fa03c7 07008504 910723a2 e90055b7  ..........#...U.
 14e8 3a840347 04008504 23a2e900 59bf8280  :..G....#...Y...
 14f8 39712ed2 4c1006ce 32d436d6 3ad83eda  9q..L...2.6.:.>.
 1508 42dc46de 2ec6f13d f2402161 8280b707  B.F....=.@!a....
 1518 04101387 07039c5b 5cc15c43 1cc18280  .......[\.\C....
 1528 732500b0 82807325 00b08280 2a96aa87  s%....s%....*...
 1538 6393c700 82808505 03c7f5ff 8507a38f  c...............
 1548 e7fefdb7 2a96aa87 6393c700 82802380  ....*...c.....#.
 1558 b7008507 d5bf11ce 93071500 329503c6  ............2...
 1568 f7ff03c7 05006385 a7008507 6305e600  ......c.....c...
 1578 198e3285 82808505 ddb7637e b5002a96  ..2.......c~..*.
 1588 aa876393 c7008280 850503c7 f5ff8507  ..c.............
 1598 a38fe7fe fdb763fa a5009307 f6ffbe95  ......c.........
 15a8 aa971d8e 3387c700 11e38280 fd1503c7  ....3...........
 15b8 1500fd17 a380e700 f5b72a87 aa95aa87  ..........*.....
 15c8 3385e740 6385b700 83c60700 91e28280  3..@c...........
 15d8 8507fdb7 aa878507 03c7f7ff 6dff3385  ............m.3.
 15e8 a7407d15 82802a87 b367b700 8d8ba9ef  .@}...*..g......
 15f8 3706fffe 37888080 1306f6ef 13080808  7...7...........
 1608 9c41b386 c70093c8 f7ffb3f6 1601b3f6  .A..............
 1618 0601b9c2 be862300 d70093f6 f70f85ce  ......#.........
 1628 93d68700 3686a300 c70093f6 f60f85c6  ....6...........
 1638 93d60701 36862301 c70093f6 f60f81ce  ....6.#.........
 1648 e183a301 f7008280 850583c7 f5ff0507  ................
 1658 a30ff7fe d1fb8280 1cc39105 11074db7  ..............M.
 1668 b367b500 8d8b85eb b706fffe 37868080  .g..........7...
 1678 9386f6ef 13060608 1c419841 638de706  .........A.Ac...
 1688 93f6f70f 1376f70f 6387c602 054563f3  .....v..c....Ec.
 1698 c6067d55 82800505 85058347 f5ff03c7  ..}U.......G....
 16a8 f5ff6387 e7007d55 63e6e704 05458280  ..c...}Uc....E..
 16b8 c5fb0145 81a00145 95ce93d6 87001356  ...E...E.......V
 16c8 870093f6 f60f1376 f60fe391 c6fc9dc2  .......v........
 16d8 93d60701 13560701 93f6f60f 1376f60f  .....V.......v..
 16e8 e396c6fa 81cae183 61836385 e7000545  ........a.c....E
 16f8 e3e1e7fa 82803387 d70093c7 f7fff98f  ......3.........
 1708 f18fc5fb 11059105 85bfaa87 3387a740  ............3..@
 1718 635ec700 83c60700 03c70500 636ad700  c^..........cj..
 1728 63eae600 81c68507 85056df3 01458280  c.........m..E..
 1738 05458280 7d558280 13070002 83470500  .E..}U.......G..
 1748 6380e702 1307d002 638ee700 1307b002  c.......c.......
 1758 81466393 e7000505 8147a545 294819a8  .Fc......G.E)H..
 1768 0505e9bf 8546c5bf b3870703 0505b297  .....F..........
 1778 938707fd 03460500 130706fd 1377f70f  .....F.......w..
 1788 e3f4e5fe 7d5591e2 05453385 a7028280  ....}U...E3.....
 1798 b7070110 8c434111 22c426c2 4ac006c6  .....CA.".&.J...
 17a8 37040080 b7040100 37090110 63988500  7.......7...c...
 17b8 b2402244 92440249 41018280 93f5f50f  .@"D.D.IA.......
 17c8 1385445b 35338325 0900cdb7 d1b7b707  ..D[53.%........
 17d8 07109c43 b7060080 37070710 05466393  ...C....7....Fc.
 17e8 d7008280 63d30700 10cf1c43 cdbf03a7  ....c......C....
 17f8 01873705 01001305 c55b0507 23a8e186  ..7......[..#...
 1808 83a50187 f5b1aa85 37050100 1305c55c  ........7......\
 1818 c5b1f327 003023a4 f18483a6 81848547  ...'.0#........G
 1828 3395a700 558d23a4 a18483a7 81847390  3...U.#.......s.
 1838 07308280 f3270030 23a4f184 83a68184  .0...'.0#.......
 1848 85473395 a7001345 f5ff758d 23a4a184  .G3....E..u.#...
 1858 83a78184 73900730 82807d57 411123a6  ....s..0..}WA.#.
 1868 e18406c6 83a7c184 73904730 0d45d937  ........s.G0.E.7
 1878 b2400d45 410171bf 37070710 5c43b706  .@.EA.q.7...\C..
 1888 00806385 d702232c 07009306 000214c7  ..c...#,........
 1898 c2079386 0185c183 54c78117 1cc748c7  ........T.....H.
 18a8 b7060710 984e7ddf 3e858280 01458280  .....N}.>....E..
 18b8 13970501 b7070710 13070702 98cb4167  ..............Ag
 18c8 1307877d d8cb8ccb c8cb3707 0080d8cb  ...}......7.....
 18d8 05458280 17f50000 130595d8 eff0bff2  .E..............
 18e8 6f00c00c f3222034 93921200 93d21200  o...." 4........
 18f8 13032000 638c6208 1303b000 63886206  .. .c.b.....c.b.
 1908 13033000 638c6206 6f004009 232e11fe  ..0.c.b.o.@.#...
 1918 ef00000b 130101f8 eff05feb 13010108  .........._.....
 1928 ef00c011 8320c1ff 73002030 232e11fe  ..... ..s. 0#...
 1938 ef000009 130101f8 eff07fe9 13010108  ................
 1948 ef00c00f 8320c1ff 73002030 232e11fe  ..... ..s. 0#...
 1958 ef000007 130101f8 eff07fe9 13010108  ................
 1968 ef00c00d 8320c1ff 73002030 17f50000  ..... ..s. 0....
 1978 1305b5c8 eff03fe9 6f004003 17f50000  ......?.o.@.....
 1988 1305c5c9 eff03fe8 6f004002 17f50000  ......?.o.@.....
 1998 1305c5c3 eff03fe7 6f004001 17f50000  ......?.o.@.....
 19a8 1305e5c9 eff03fe6 6f004000 73251034  ......?.o.@.s%.4
 19b8 13054500 73101534 73002030 73002030  ..E.s..4s. 0s. 0
 19c8 232c21fe 232a31fe 232841fe 232651fe  #,!.#*1.#(A.#&Q.
 19d8 232461fe 232271fe 232081fe 232e91fc  #$a.#"q.# ..#...
 19e8 232ca1fc 232ab1fc 2328c1fc 2326d1fc  #,..#*..#(..#&..
 19f8 2324e1fc 2322f1fc 232001fd 232e11fb  #$..#"..# ..#...
 1a08 232c21fb 232a31fb 232841fb 232651fb  #,!.#*1.#(A.#&Q.
 1a18 232461fb 232271fb 232081fb 232e91f9  #$a.#"q.# ..#...
 1a28 232ca1f9 232ab1f9 2328c1f9 2326d1f9  #,..#*..#(..#&..
 1a38 2324e1f9 2322f1f9 67800000 832141ff  #$..#"..g....!A.
 1a48 032201ff 8322c1fe 032381fe 832341fe  ."..."...#...#A.
 1a58 032401fe 8324c1fd 032581fd 832541fd  .$...$...%...%A.
 1a68 032601fd 8326c1fc 032781fc 832741fc  .&...&...'...'A.
 1a78 032801fc 8328c1fb 032981fb 832941fb  .(...(...)...)A.
 1a88 032a01fb 832ac1fa 032b81fa 832b41fa  .*...*...+...+A.
 1a98 032c01fa 832cc1f9 032d81f9 832d41f9  .,...,...-...-A.
 1aa8 032e01f9 832ec1f8 032f81f8 832f41f8  ........./.../A.
 1ab8 67800000 9b80a000 1ba1a000 9bb1b000  g...............
 1ac8 1bc2b000 9b62b200 1bf3a200 9b938000  .....b..........
 1ad8 1bd44000 9bd41040 9f9f0000 1f850000  ..@....@........
 1ae8 bf050100 5f060000 df160000 5f270000  ...._......._'..
 1af8 df470000 5f580000 6b80c500 6b90d500  .G.._X..k...k...
 1b08 6ba0e500 5f870500 df960500 5fa60500  k..._......._...
 1b18 bb881300 3b091440 bb991400 3b2a1000  ....;..@....;*..
 1b28 bbba1000 3b4b1100 bbdb1100 3b5c1240  ....;K......;\.@
 1b38 bbec1200 3b7d1300 82803f0f 00201380  ....;}....?.. ..
 1b48 00001300 01001f15 0f008280 1b1a0801  ................
 1b58 1b5a0a01 1f150a00 82801b5a 00019b1a  .Z.........Z....
 1b68 00011bdb 00011b9c 00019b5c 01011b1d  ...........\....
 1b78 01013b80 8c01bb00 4d013b01 5b019b1d  ..;.....M.;.[...
 1b88 08019bdd 0d011f95 0d008280 3f0f0040  ............?..@
 1b98 3f0f0080 9b1d0d00 9b1d0d00 9b1d0d00  ?...............
 1ba8 9b1d0d00 9b1d0d00 9b1d0d00 3f0f0008  ............?...
 1bb8 9b1d0d00 9b1d0d00 9b871700 82801b18  ................
 1bc8 48001b58 48009f0d 05009b9d cd013b68  H..XH.........;h
 1bd8 b8013f0f 00108280 1b184800 1b584800  ..?.......H..XH.
 1be8 3f0f0010 82801bda 01011f15 0a008280  ?...............
 1bf8 3f0f0080 9b1d0d00 9b1d0d00 9b1d0d00  ?...............
 1c08 9b1d0d00 9b1d0d00 9b1d0d00 3f0f0008  ............?...
 1c18 9b1d0d00 9b1d0d00 1f150000 82807971  ..............yq
 1c28 22d426d2 5ac82a84 2a8bb704 100013d5  ".&.Z.*.*.......
 1c38 45014ad0 4ece5ec6 fd1406d6 52cc56ca  E.J.N.^.....R.V.
 1c48 1375f57f b28bb689 ed8c13d9 f50149c1  .u............I.
 1c58 9307f07f 6307f50c 8e04b706 8000d58c  ....c...........
 1c68 935adb01 b3ea9a00 13143b00 130a15c0  .Z........;.....
 1c78 014b13d5 4901b704 1000fd14 1375f57f  .K..I........u..
 1c88 b3f43401 de8f93d9 f90155cd 9307f07f  ..4.......U.....
 1c98 6301f510 b7078000 8e04dd8c 93d7db01  c...............
 1ca8 c58f939f 3b001305 15c00147 93162b00  ....;......G..+.
 1cb8 d98efd16 b9453346 39013305 aa4063eb  .....E3F9.3..@c.
 1cc8 d50ec165 8a069385 0569ae96 94428286  ...e.....i...B..
 1cd8 b3ea6401 63800a06 95c82685 25239307  ..d.c.....&.%#..
 1ce8 55ff7147 6349f702 f54a1304 85ffb38a  U.qGcI...J......
 1cf8 fa40b394 8400b35a 5b01b3ea 9a003314  .@.....Z[.....3.
 1d08 8b00130a d0c0330a aa409db7 5a85dd29  ......3..@..Z..)
 1d18 13050502 e9b79304 85fdb31a 9b000144  ...............D
 1d28 cdb7b3ea 6401638b 0a00a68a 130af07f  ....d.c.........
 1d38 0d4b81b7 0144014a 054b25bf 0144130a  .K...D.J.K%..D..
 1d48 f07f094b 3db7b3e7 7401a1cf 85c82685  ...K=...t.....&.
 1d58 55291307 55fff147 63c7e702 f547930f  U)..U..Gc....G..
 1d68 85ff998f b394f401 b3d7fb00 c58fb39f  ................
 1d78 fb011306 d0c03305 a64005bf 5e855921  ......3..@..^.Y!
 1d88 13050502 f9b79307 85fdb397 fb00814f  ...............O
 1d98 cdb7b3e7 740191cb a6871305 f07f0d47  ....t..........G
 1da8 31b7814f 01450547 11b7814f 1305f07f  1..O.E.G...O....
 1db8 0947edbd 63e65701 6396fa2a 6364f42b  .G..c.W.c..*cd.+
 1dc8 9395fa01 93561400 1317f401 93da1a00  .....V..........
 1dd8 33e4d500 a20713d8 8f013368 f800935e  3.........3h...^
 1de8 0801b3d5 da03131e 0801135e 0e019356  ...........^...V
 1df8 04019398 8f00b3f4 da03ae8f b307be02  ................
 1e08 c204c58e 63fcf600 c296938f f5ff63e7  ....c.........c.
 1e18 060163f5 f600938f e5ffc296 9d8e33d3  ..c...........3.
 1e28 d6034204 4180b3f6 d6039a87 b3056e02  ..B.A.........n.
 1e38 c206c18e 63fcb600 c2969307 f3ff63e7  ....c.........c.
 1e48 060163f5 b6009307 e3ffc296 3384b640  ..c.........3..@
 1e58 c20fc165 b3efff00 1383f5ff 93d60f01  ...e............
 1e68 b3f76f00 13df0801 33f36800 b3836702  ..o.....3.h...g.
 1e78 b3846602 b307ff02 b382e603 b3869700  ..f.............
 1e88 93d70301 b69763f3 9700ae92 93d60701  ......c.........
 1e98 9696c162 fd12b3f5 5700c205 b3f35300  ...b....W.....S.
 1ea8 9e956367 d400fe87 631ed402 637cb702  ..cg....c...c|..
 1eb8 4697b332 1701c292 16949387 ffff6366  F..2..........cf
 1ec8 88006311 8802636f 17016366 d400639b  ..c...co..cf..c.
 1ed8 86006379 b7004697 9387efff b33f1701  ..cy..F......?..
 1ee8 c29f7e94 b305b740 158c3337 b700198c  ..~....@..37....
 1ef8 fd5f6306 880eb352 d40393d6 05013374  ._c....R......3t
 1f08 d4031687 b30f5e02 4204558c 637cf401  ......^.B.U.c|..
 1f18 42941387 f2ff6367 04016375 f4011387  B.....cg..cu....
 1f28 e2ff4294 3304f441 b356d403 c205c181  ..B.3..A.V......
 1f38 3374d403 330ede02 42044d8c b685637c  3t..3...B.M...c|
 1f48 c4014294 9385f6ff 63670401 6375c401  ..B.....cg..cu..
 1f58 9385e6ff 42944207 d98d1397 05014183  ....B.B.......A.
 1f68 3304c441 13de0501 b30e6702 33036e02  3..A......g.3.n.
 1f78 330ecf03 330fef02 13d70e01 1a9f7a97  3...3.........z.
 1f88 63746700 c166369e 13530701 7293416e  ctg..f6..S..r.An
 1f98 7d1eb376 c701c206 b3fece01 f6966366  }..v..........cf
 1fa8 6400ae8f 631b6402 9dca4294 938ff5ff  d...c.d...B.....
 1fb8 63610403 63666400 63116402 63fdd800  ca..cfd.c.d.c...
 1fc8 13971800 b3381701 4698938f e5ff4294  .....8..F.....B.
 1fd8 ba886314 64006384 160193ef 1f009306  ..c.d.c.........
 1fe8 f53f635c d00a13f7 7f0001cf 13f7ff00  .?c\............
 1ff8 91456308 b7009385 4f00b3bf f501fe97  .Ec.....O.......
 2008 ae8f1397 77006358 07003707 00ff7d17  ....w.cX..7...}.
 2018 f98f9306 05401307 e07f634b d7101397  .....@....cK....
 2028 d70193df 3f003367 f7018d83 b7051000  ....?.3g........
 2038 fd15ed8f b7051080 fd1593f6 f67fd206  ................
 2048 ed8fb250 22547e06 d58fb3e6 c7009254  ...P"T~........T
 2058 0259f249 624ad24a 424bb24b 3a85b685  .Y.IbJ.JBK.K:...
 2068 45618280 7d150147 b5b34a86 d687a28f  Ea..}..G..J.....
 2078 5a878946 630ed70a 8d466304 d70a8546  Z..Fc....Fc....F
 2088 e31fd7f4 81470147 bda04e86 ddb7b707  .....G.G..N.....
 2098 0800814f 01460d47 e9bf8545 958d1307  ...O.F.G...E....
 20a8 8003e341 b7fe7d47 6349b704 1305e541  ...A..}GcI.....A
 20b8 3397a700 b3d6bf00 3395af00 558f3335  3.......3...U.35
 20c8 a000498f b3d7b700 93767700 81ce9376  ..I......vw....v
 20d8 f7009145 6388b600 93064700 33b7e600  ...Ec.....G.3...
 20e8 ba973687 93968700 63c90604 9396d701  ..6.....c.......
 20f8 0d83558f 8d838146 15bf0557 158f1308  ..U....F...W....
 2108 000233d7 e7008146 63860501 1305e543  ..3....Fc......C
 2118 b396a700 33e5f601 3335a000 498f8147  ....3...35..I..G
 2128 65b7b707 08000147 9306f07f 0146fdbd  e......G.....F..
 2138 81470147 9306f07f d5bd8147 01478546  .G.G.......G.G.F
 2148 f5b513d7 4501b706 10002a86 9387f6ff  ....E.....*.....
 2158 1377f77f 1305e03f ed8ffd81 635fe502  .w.....?....c_..
 2168 014591e5 9305e041 7d5563d3 e5008280  .E.....A}Uc.....
 2178 d58f9306 3043998e fd4563ca d5001307  ....0C...Ec.....
 2188 d7beb397 e7003355 d6005d8d 82801305  ......3U..].....
 2198 3041198d 33d5a700 82800145 82804111  0A..3......E..A.
 21a8 06c622c4 21cd2a84 b1281307 e041a947  ..".!.*..(...A.G
 21b8 098f63c0 a704ad47 898f5505 b357f400  ..c....G..U..W..
 21c8 3314a400 37051000 7d15b706 1080e98f  3...7...}.......
 21d8 1377f77f fd165207 f58fd98f 2285b240  .w....R....."..@
 21e8 22443707 00801347 f7ff7d8f ba854101  "D7....G..}...A.
 21f8 82805515 b317a400 0144e9b7 81470144  ..U......D...G.D
 2208 0147c9b7 c1676375 f5029307 f00fb3b7  .G...gcu........
 2218 a7008e07 13070002 1d8fb357 f5004165  ...........W..Ae
 2228 1305c56c aa9703c5 07003305 a7408280  ...l......3..@..
 2238 37070001 c147e36f e5fce147 e1bf      7....G.o...G..  
Contents of section .rodata:
 10000 96060000 9c060000 a2060000 a8060000  ................
 10010 ae060000 aa070000 aa070000 b0070000  ................
 10020 b0070000 b4070000 02080000 dc070000  ................
 10030 34080000 a0080000 5a080000 7a080000  4.......Z...z...
 10040 b4080000 ca080000 18010100 20010100  ............ ...
 10050 28010100 30010100 e8000100 f4000100  (...0...........
 10060 00010100 0c010100 b8000100 c4000100  ................
 10070 d0000100 dc000100 88000100 94000100  ................
 10080 a0000100 ac000100 54302e33 652d3146  ........T0.3e-1F
 10090 00000000 2d542e54 2b2b5471 00000000  ....-T.T++Tq....
 100a0 3154332e 3465347a 00000000 33342e30  1T3.4e4z....34.0
 100b0 652d545e 00000000 352e3530 30652b33  e-T^....5.500e+3
 100c0 00000000 2d2e3132 33652d32 00000000  ....-.123e-2....
 100d0 2d383765 2b383332 00000000 2b302e36  -87e+832....+0.6
 100e0 652d3132 00000000 33352e35 34343030  e-12....35.54400
 100f0 00000000 2e313233 34353030 00000000  .....1234500....
 10100 2d313130 2e373030 00000000 2b302e36  -110.700....+0.6
 10110 34343030 00000000 35303132 00000000  4400....5012....
 10120 31323334 00000000 2d383734 00000000  1234....-874....
 10130 2b313232 00000000 74303a20 25642c20  +122....t0: %d, 
 10140 25640a0d 00000000 74313a20 25642c20  %d......t1: %d, 
 10150 25640a0d 00000000 0d000000 6379636c  %d..........cycl
 10160 655f6c6f 773a2025 3038780a 00000000  e_low: %08x.....
 10170 6379636c 655f6c6f 773a2025 642c2564  cycle_low: %d,%d
 10180 0a000000 6379636c 655f6c6f 773a2025  ....cycle_low: %
 10190 640a0000 6379636c 655f6869 67683a20  d...cycle_high: 
 101a0 25640a00 b0d44033 796a14e7 c1e30000  %d....@3yj......
 101b0 52be9911 0856d71f 47070000 475ebf39  R....V..G...G^.9
 101c0 a4e53a8e 848d0000 73797374 656d2062  ..:.....system b
 101d0 6f6f7420 66696e69 73686564 210a0000  oot finished!...
 101e0 366b2070 6572666f 726d616e 63652072  6k performance r
 101f0 756e2070 6172616d 65746572 7320666f  un parameters fo
 10200 7220636f 72656d61 726b2e0a 00000000  r coremark......
 10210 366b2076 616c6964 6174696f 6e207275  6k validation ru
 10220 6e207061 72616d65 74657273 20666f72  n parameters for
 10230 20636f72 656d6172 6b2e0a00 50726f66   coremark...Prof
 10240 696c6520 67656e65 72617469 6f6e2072  ile generation r
 10250 756e2070 6172616d 65746572 7320666f  un parameters fo
 10260 7220636f 72656d61 726b2e0a 00000000  r coremark......
 10270 324b2070 6572666f 726d616e 63652072  2K performance r
 10280 756e2070 6172616d 65746572 7320666f  un parameters fo
 10290 7220636f 72656d61 726b2e0a 00000000  r coremark......
 102a0 324b2076 616c6964 6174696f 6e207275  2K validation ru
 102b0 6e207061 72616d65 74657273 20666f72  n parameters for
 102c0 20636f72 656d6172 6b2e0a00 5b25755d   coremark...[%u]
 102d0 4552524f 5221206c 69737420 63726320  ERROR! list crc 
 102e0 30782530 3478202d 2073686f 756c6420  0x%04x - should 
 102f0 62652030 78253034 780a0000 5b25755d  be 0x%04x...[%u]
 10300 4552524f 5221206d 61747269 78206372  ERROR! matrix cr
 10310 63203078 25303478 202d2073 686f756c  c 0x%04x - shoul
 10320 64206265 20307825 3034780a 00000000  d be 0x%04x.....
 10330 5b25755d 4552524f 52212073 74617465  [%u]ERROR! state
 10340 20637263 20307825 30347820 2d207368   crc 0x%04x - sh
 10350 6f756c64 20626520 30782530 34780a00  ould be 0x%04x..
 10360 436f7265 4d61726b 2053697a 65202020  CoreMark Size   
 10370 203a2025 640a0000 546f7461 6c207469   : %d...Total ti
 10380 636b7320 20202020 203a2025 640a0000  cks      : %d...
 10390 546f7461 6c207469 6d652028 73656373  Total time (secs
 103a0 293a2025 640a0000 49746572 6174696f  ): %d...Iteratio
 103b0 6e732f53 65632020 203a2025 640a0000  ns/Sec   : %d...
 103c0 4552524f 5221204d 75737420 65786563  ERROR! Must exec
 103d0 75746520 666f7220 6174206c 65617374  ute for at least
 103e0 20313020 73656373 20666f72 20612076   10 secs for a v
 103f0 616c6964 20726573 756c7421 0a000000  alid result!....
 10400 49746572 6174696f 6e732020 20202020  Iterations      
 10410 203a2025 640a0000 53544154 49430000   : %d...STATIC..
 10420 4d656d6f 7279206c 6f636174 696f6e20  Memory location 
 10430 203a2025 730a0000 73656564 63726320   : %s...seedcrc 
 10440 20202020 20202020 203a2030 78253034           : 0x%04
 10450 780a0000 5b25645d 6372636c 69737420  x...[%d]crclist 
 10460 20202020 20203a20 30782530 34780a00        : 0x%04x..
 10470 5b25645d 6372636d 61747269 78202020  [%d]crcmatrix   
 10480 20203a20 30782530 34780a00 5b25645d    : 0x%04x..[%d]
 10490 63726373 74617465 20202020 20203a20  crcstate      : 
 104a0 30782530 34780a00 436f7272 65637420  0x%04x..Correct 
 104b0 6f706572 6174696f 6e207661 6c696461  operation valida
 104c0 7465642e 20536565 20726561 646d652e  ted. See readme.
 104d0 74787420 666f7220 72756e20 616e6420  txt for run and 
 104e0 7265706f 7274696e 67207275 6c65732e  reporting rules.
 104f0 0a000000 4572726f 72732064 65746563  ....Errors detec
 10500 7465640a 00000000 43616e6e 6f742076  ted.....Cannot v
 10510 616c6964 61746520 6f706572 6174696f  alidate operatio
 10520 6e20666f 72207468 65736520 73656564  n for these seed
 10530 2076616c 7565732c 20706c65 61736520   values, please 
 10540 636f6d70 61726520 77697468 20726573  compare with res
 10550 756c7473 206f6e20 61206b6e 6f776e20  ults on a known 
 10560 706c6174 666f726d 2e0a0000 5b25645d  platform....[%d]
 10570 63726366 696e616c 20202020 20203a20  crcfinal      : 
 10580 30782530 34780a00 53746174 69630000  0x%04x..Static..
 10590 48656170 00000000 53746163 6b000000  Heap....Stack...
 105a0 30313233 34353637 38394142 43444546  0123456789ABCDEF
 105b0 00000000 25630d0a 00000000 6972715f  ....%c......irq_
 105c0 636e743a 25640a0d 00000000 25730a00  cnt:%d......%s..
 105d0 696c6c65 67616c20 696e7374 72756374  illegal instruct
 105e0 696f6e20 65786365 7074696f 6e206861  ion exception ha
 105f0 6e646c65 7220656e 74657265 640a0065  ndler entered..e
 10600 63616c6c 20657863 65707469 6f6e2068  call exception h
 10610 616e646c 65722065 6e746572 65640a00  andler entered..
 10620 65627265 616b2065 78636570 74696f6e  ebreak exception
 10630 2068616e 646c6572 20656e74 65726564   handler entered
 10640 0a00756e 6b6e6f77 6e206578 63657074  ..unknown except
 10650 696f6e20 68616e64 6c657220 656e7465  ion handler ente
 10660 7265640a 006e6f20 65786365 7074696f  red..no exceptio
 10670 6e206861 6e646c65 7220696e 7374616c  n handler instal
 10680 6c65640a 00756172 74207465 73740a00  led..uart test..
 10690 38210000 8c200000 92200000 8c200000  8!... ... ... ..
 106a0 2a210000 8c200000 92200000 38210000  *!... ... ..8!..
 106b0 38210000 2a210000 92200000 72200000  8!..*!... ..r ..
 106c0 72200000 72200000 96200000 00010202  r ..r ... ......
 106d0 03030303 04040404 04040404 05050505  ................
 106e0 05050505 05050505 05050505 06060606  ................
 106f0 06060606 06060606 06060606 06060606  ................
 10700 06060606 06060606 06060606 07070707  ................
 10710 07070707 07070707 07070707 07070707  ................
 10720 07070707 07070707 07070707 07070707  ................
 10730 07070707 07070707 07070707 07070707  ................
 10740 07070707 07070707 07070707 08080808  ................
 10750 08080808 08080808 08080808 08080808  ................
 10760 08080808 08080808 08080808 08080808  ................
 10770 08080808 08080808 08080808 08080808  ................
 10780 08080808 08080808 08080808 08080808  ................
 10790 08080808 08080808 08080808 08080808  ................
 107a0 08080808 08080808 08080808 08080808  ................
 107b0 08080808 08080808 08080808 08080808  ................
 107c0 08080808 08080808 08080808           ............    
Contents of section .data:
 107cc 88050100 90050100 98050100 00000000  ................
 107dc 80000000 00000000 00000000 00000000  ................
 107ec 00000000 00000000 00000000           ............    
Contents of section .sdata:
 107f8 00000000 80d70741 10270000 66000000  .......A.'..f...
Contents of section .comment:
 0000 4743433a 2028474e 55292037 2e312e31  GCC: (GNU) 7.1.1
 0010 20323031 37303530 3900                20170509.      
Contents of section .Pulp_Chip.Info:
 0000 0a000000 38000000 01000000 50756c70  ....8.......Pulp
 0010 5f496e66 6f006368 69703d6e 6f6e6520  _Info.chip=none 
 0020 6370753d 6e6f6e65 2070653d 2d312066  cpu=none pe=-1 f
 0030 633d2d31 206c323d 2d31206c 31636c3d  c=-1 l2=-1 l1cl=
 0040 2d31206c 3166633d 2d310000 0000      -1 l1fc=-1....  

Disassembly of section .vectors:

00000000 <__vector_start>:
   0:	0ed0106f          	j	18ec <sw_irq_handler>
   4:	0d90106f          	j	18dc <__no_irq_handler>
   8:	0d50106f          	j	18dc <__no_irq_handler>
   c:	0d10106f          	j	18dc <__no_irq_handler>
  10:	0cd0106f          	j	18dc <__no_irq_handler>
  14:	0c90106f          	j	18dc <__no_irq_handler>
  18:	0c50106f          	j	18dc <__no_irq_handler>
  1c:	1390106f          	j	1954 <__time_irq_handler>
  20:	0bd0106f          	j	18dc <__no_irq_handler>
  24:	0b90106f          	j	18dc <__no_irq_handler>
  28:	0b50106f          	j	18dc <__no_irq_handler>
  2c:	0b10106f          	j	18dc <__no_irq_handler>
  30:	0ad0106f          	j	18dc <__no_irq_handler>
  34:	0a90106f          	j	18dc <__no_irq_handler>
  38:	0a50106f          	j	18dc <__no_irq_handler>
  3c:	0a10106f          	j	18dc <__no_irq_handler>
  40:	0d50106f          	j	1914 <__uart_irq_handler>
  44:	0990106f          	j	18dc <__no_irq_handler>
  48:	0950106f          	j	18dc <__no_irq_handler>
  4c:	0910106f          	j	18dc <__no_irq_handler>
  50:	08d0106f          	j	18dc <__no_irq_handler>
  54:	0890106f          	j	18dc <__no_irq_handler>
  58:	0dd0106f          	j	1934 <__dma_irq_handler>
  5c:	0810106f          	j	18dc <__no_irq_handler>
  60:	07d0106f          	j	18dc <__no_irq_handler>
  64:	0790106f          	j	18dc <__no_irq_handler>
  68:	0750106f          	j	18dc <__no_irq_handler>
  6c:	0710106f          	j	18dc <__no_irq_handler>
  70:	06d0106f          	j	18dc <__no_irq_handler>
  74:	0690106f          	j	18dc <__no_irq_handler>
  78:	0650106f          	j	18dc <__no_irq_handler>
  7c:	1490106f          	j	19c4 <verification_irq_handler>
  80:	05d0106f          	j	18dc <__no_irq_handler>
  84:	0590106f          	j	18dc <__no_irq_handler>
  88:	0550106f          	j	18dc <__no_irq_handler>
  8c:	0510106f          	j	18dc <__no_irq_handler>
  90:	04d0106f          	j	18dc <__no_irq_handler>
  94:	0490106f          	j	18dc <__no_irq_handler>
  98:	0450106f          	j	18dc <__no_irq_handler>
  9c:	0410106f          	j	18dc <__no_irq_handler>
  a0:	03d0106f          	j	18dc <__no_irq_handler>
  a4:	0390106f          	j	18dc <__no_irq_handler>
  a8:	0350106f          	j	18dc <__no_irq_handler>
  ac:	0310106f          	j	18dc <__no_irq_handler>
  b0:	02d0106f          	j	18dc <__no_irq_handler>
  b4:	0290106f          	j	18dc <__no_irq_handler>
  b8:	0250106f          	j	18dc <__no_irq_handler>
  bc:	0210106f          	j	18dc <__no_irq_handler>
  c0:	01d0106f          	j	18dc <__no_irq_handler>
  c4:	0190106f          	j	18dc <__no_irq_handler>
  c8:	0150106f          	j	18dc <__no_irq_handler>
  cc:	0110106f          	j	18dc <__no_irq_handler>
  d0:	00d0106f          	j	18dc <__no_irq_handler>
  d4:	0090106f          	j	18dc <__no_irq_handler>
  d8:	0050106f          	j	18dc <__no_irq_handler>
  dc:	0010106f          	j	18dc <__no_irq_handler>
  e0:	7fc0106f          	j	18dc <__no_irq_handler>
  e4:	7f80106f          	j	18dc <__no_irq_handler>
  e8:	7f40106f          	j	18dc <__no_irq_handler>
  ec:	7f00106f          	j	18dc <__no_irq_handler>
  f0:	7ec0106f          	j	18dc <__no_irq_handler>
  f4:	7e80106f          	j	18dc <__no_irq_handler>
  f8:	7e40106f          	j	18dc <__no_irq_handler>
  fc:	7e00106f          	j	18dc <__no_irq_handler>

Disassembly of section .init:

00000180 <_start>:
 180:	00011197          	auipc	gp,0x11
 184:	e4c18193          	addi	gp,gp,-436 # 10fcc <__global_pointer$>
 188:	00012117          	auipc	sp,0x12
 18c:	ea810113          	addi	sp,sp,-344 # 12030 <_sp>
 190:	00000517          	auipc	a0,0x0
 194:	e7050513          	addi	a0,a0,-400 # 0 <__vector_start>
 198:	00156513          	ori	a0,a0,1
 19c:	30551073          	csrw	mtvec,a0
 1a0:	4502                	lw	a0,0(sp)
 1a2:	004c                	addi	a1,sp,4
 1a4:	4601                	li	a2,0
 1a6:	2009                	jal	1a8 <main>

Disassembly of section .text:

000001a8 <main>:
     1a8:	7119                	addi	sp,sp,-128
     1aa:	dca2                	sw	s0,120(sp)
     1ac:	00010437          	lui	s0,0x10
     1b0:	c62a                	sw	a0,12(sp)
     1b2:	15840513          	addi	a0,s0,344 # 10158 <errpat+0xe0>
     1b6:	de86                	sw	ra,124(sp)
     1b8:	c42e                	sw	a1,8(sp)
     1ba:	daa6                	sw	s1,116(sp)
     1bc:	d8ca                	sw	s2,112(sp)
     1be:	d6ce                	sw	s3,108(sp)
     1c0:	d4d2                	sw	s4,104(sp)
     1c2:	336010ef          	jal	ra,14f8 <printf>
     1c6:	00010537          	lui	a0,0x10
     1ca:	1c850513          	addi	a0,a0,456 # 101c8 <state_known_crc+0xc>
     1ce:	32a010ef          	jal	ra,14f8 <printf>
     1d2:	4622                	lw	a2,8(sp)
     1d4:	006c                	addi	a1,sp,12
     1d6:	08e8                	addi	a0,sp,92
     1d8:	61b000ef          	jal	ra,ff2 <portable_init>
     1dc:	4505                	li	a0,1
     1de:	214d                	jal	680 <get_seed_32>
     1e0:	00a11c23          	sh	a0,24(sp)
     1e4:	4509                	li	a0,2
     1e6:	2969                	jal	680 <get_seed_32>
     1e8:	00a11d23          	sh	a0,26(sp)
     1ec:	450d                	li	a0,3
     1ee:	2949                	jal	680 <get_seed_32>
     1f0:	00a11e23          	sh	a0,28(sp)
     1f4:	4511                	li	a0,4
     1f6:	2169                	jal	680 <get_seed_32>
     1f8:	da2a                	sw	a0,52(sp)
     1fa:	4515                	li	a0,5
     1fc:	2151                	jal	680 <get_seed_32>
     1fe:	16050563          	beqz	a0,368 <main+0x1c0>
     202:	dc2a                	sw	a0,56(sp)
     204:	47e2                	lw	a5,24(sp)
     206:	eb81                	bnez	a5,216 <main+0x6e>
     208:	01c11703          	lh	a4,28(sp)
     20c:	e709                	bnez	a4,216 <main+0x6e>
     20e:	06600713          	li	a4,102
     212:	00e11e23          	sh	a4,28(sp)
     216:	4705                	li	a4,1
     218:	00e79e63          	bne	a5,a4,234 <main+0x8c>
     21c:	01c11783          	lh	a5,28(sp)
     220:	eb91                	bnez	a5,234 <main+0x8c>
     222:	341537b7          	lui	a5,0x34153
     226:	41578793          	addi	a5,a5,1045 # 34153415 <_sp+0x341413e5>
     22a:	cc3e                	sw	a5,24(sp)
     22c:	06600793          	li	a5,102
     230:	00f11e23          	sh	a5,28(sp)
     234:	56e2                	lw	a3,56(sp)
     236:	67c5                	lui	a5,0x11
     238:	86078793          	addi	a5,a5,-1952 # 10860 <static_memblk>
     23c:	0016f813          	andi	a6,a3,1
     240:	d03e                	sw	a5,32(sp)
     242:	01081513          	slli	a0,a6,0x10
     246:	04011c23          	sh	zero,88(sp)
     24a:	0026f793          	andi	a5,a3,2
     24e:	8141                	srli	a0,a0,0x10
     250:	c391                	beqz	a5,254 <main+0xac>
     252:	0505                	addi	a0,a0,1
     254:	0046f793          	andi	a5,a3,4
     258:	c781                	beqz	a5,260 <main+0xb8>
     25a:	0505                	addi	a0,a0,1
     25c:	0542                	slli	a0,a0,0x10
     25e:	8141                	srli	a0,a0,0x10
     260:	7d000793          	li	a5,2000
     264:	02a7d533          	divu	a0,a5,a0
     268:	4701                	li	a4,0
     26a:	4781                	li	a5,0
     26c:	4305                	li	t1,1
     26e:	488d                	li	a7,3
     270:	d82a                	sw	a0,48(sp)
     272:	00e31633          	sll	a2,t1,a4
     276:	8e75                	and	a2,a2,a3
     278:	ce09                	beqz	a2,292 <main+0xea>
     27a:	02a78e33          	mul	t3,a5,a0
     27e:	082c                	addi	a1,sp,24
     280:	00271613          	slli	a2,a4,0x2
     284:	962e                	add	a2,a2,a1
     286:	5582                	lw	a1,32(sp)
     288:	0785                	addi	a5,a5,1
     28a:	07c2                	slli	a5,a5,0x10
     28c:	83c1                	srli	a5,a5,0x10
     28e:	95f2                	add	a1,a1,t3
     290:	c64c                	sw	a1,12(a2)
     292:	0705                	addi	a4,a4,1
     294:	fd171fe3          	bne	a4,a7,272 <main+0xca>
     298:	00080863          	beqz	a6,2a8 <main+0x100>
     29c:	01811603          	lh	a2,24(sp)
     2a0:	5592                	lw	a1,36(sp)
     2a2:	31b000ef          	jal	ra,dbc <core_list_init>
     2a6:	de2a                	sw	a0,60(sp)
     2a8:	57e2                	lw	a5,56(sp)
     2aa:	8b89                	andi	a5,a5,2
     2ac:	cf81                	beqz	a5,2c4 <main+0x11c>
     2ae:	01a11783          	lh	a5,26(sp)
     2b2:	01811603          	lh	a2,24(sp)
     2b6:	55a2                	lw	a1,40(sp)
     2b8:	5542                	lw	a0,48(sp)
     2ba:	07c2                	slli	a5,a5,0x10
     2bc:	0094                	addi	a3,sp,64
     2be:	8e5d                	or	a2,a2,a5
     2c0:	58f000ef          	jal	ra,104e <core_init_matrix>
     2c4:	57e2                	lw	a5,56(sp)
     2c6:	8b91                	andi	a5,a5,4
     2c8:	c791                	beqz	a5,2d4 <main+0x12c>
     2ca:	5632                	lw	a2,44(sp)
     2cc:	01811583          	lh	a1,24(sp)
     2d0:	5542                	lw	a0,48(sp)
     2d2:	2989                	jal	724 <core_init_state>
     2d4:	57d2                	lw	a5,52(sp)
     2d6:	eb9d                	bnez	a5,30c <main+0x164>
     2d8:	4785                	li	a5,1
     2da:	da3e                	sw	a5,52(sp)
     2dc:	44a9                	li	s1,10
     2de:	57d2                	lw	a5,52(sp)
     2e0:	029787b3          	mul	a5,a5,s1
     2e4:	da3e                	sw	a5,52(sp)
     2e6:	3c7000ef          	jal	ra,eac <start_time>
     2ea:	0828                	addi	a0,sp,24
     2ec:	509000ef          	jal	ra,ff4 <iterate>
     2f0:	3d5000ef          	jal	ra,ec4 <stop_time>
     2f4:	41b000ef          	jal	ra,f0e <get_time>
     2f8:	4d9000ef          	jal	ra,fd0 <time_in_secs>
     2fc:	d16d                	beqz	a0,2de <main+0x136>
     2fe:	02a4d4b3          	divu	s1,s1,a0
     302:	5552                	lw	a0,52(sp)
     304:	0485                	addi	s1,s1,1
     306:	029504b3          	mul	s1,a0,s1
     30a:	da26                	sw	s1,52(sp)
     30c:	3a1000ef          	jal	ra,eac <start_time>
     310:	0828                	addi	a0,sp,24
     312:	4e3000ef          	jal	ra,ff4 <iterate>
     316:	3af000ef          	jal	ra,ec4 <stop_time>
     31a:	3f5000ef          	jal	ra,f0e <get_time>
     31e:	89aa                	mv	s3,a0
     320:	01811503          	lh	a0,24(sp)
     324:	4581                	li	a1,0
     326:	2ed5                	jal	71a <crc16>
     328:	85aa                	mv	a1,a0
     32a:	01a11503          	lh	a0,26(sp)
     32e:	26f5                	jal	71a <crc16>
     330:	85aa                	mv	a1,a0
     332:	01c11503          	lh	a0,28(sp)
     336:	26d5                	jal	71a <crc16>
     338:	85aa                	mv	a1,a0
     33a:	03011503          	lh	a0,48(sp)
     33e:	2ef1                	jal	71a <crc16>
     340:	67a1                	lui	a5,0x8
     342:	b0578793          	addi	a5,a5,-1275 # 7b05 <__clzsi2+0x58f9>
     346:	892a                	mv	s2,a0
     348:	2af50a63          	beq	a0,a5,5fc <main+0x454>
     34c:	02a7e163          	bltu	a5,a0,36e <main+0x1c6>
     350:	6789                	lui	a5,0x2
     352:	8f278793          	addi	a5,a5,-1806 # 18f2 <sw_irq_handler+0x6>
     356:	2cf50b63          	beq	a0,a5,62c <main+0x484>
     35a:	6795                	lui	a5,0x5
     35c:	eaf78793          	addi	a5,a5,-337 # 4eaf <__clzsi2+0x2ca3>
     360:	2af50a63          	beq	a0,a5,614 <main+0x46c>
     364:	54fd                	li	s1,-1
     366:	a215                	j	48a <main+0x2e2>
     368:	479d                	li	a5,7
     36a:	dc3e                	sw	a5,56(sp)
     36c:	bd61                	j	204 <main+0x5c>
     36e:	67a5                	lui	a5,0x9
     370:	a0278793          	addi	a5,a5,-1534 # 8a02 <__clzsi2+0x67f6>
     374:	02f50363          	beq	a0,a5,39a <main+0x1f2>
     378:	67bd                	lui	a5,0xf
     37a:	9f578793          	addi	a5,a5,-1547 # e9f5 <__clzsi2+0xc7e9>
     37e:	fef513e3          	bne	a0,a5,364 <main+0x1bc>
     382:	15840513          	addi	a0,s0,344
     386:	172010ef          	jal	ra,14f8 <printf>
     38a:	00010537          	lui	a0,0x10
     38e:	27050513          	addi	a0,a0,624 # 10270 <state_known_crc+0xb4>
     392:	166010ef          	jal	ra,14f8 <printf>
     396:	448d                	li	s1,3
     398:	a821                	j	3b0 <main+0x208>
     39a:	15840513          	addi	a0,s0,344
     39e:	15a010ef          	jal	ra,14f8 <printf>
     3a2:	00010537          	lui	a0,0x10
     3a6:	1e050513          	addi	a0,a0,480 # 101e0 <state_known_crc+0x24>
     3aa:	14e010ef          	jal	ra,14f8 <printf>
     3ae:	4481                	li	s1,0
     3b0:	57e2                	lw	a5,56(sp)
     3b2:	04011c23          	sh	zero,88(sp)
     3b6:	8b85                	andi	a5,a5,1
     3b8:	c3a9                	beqz	a5,3fa <main+0x252>
     3ba:	6741                	lui	a4,0x10
     3bc:	00149793          	slli	a5,s1,0x1
     3c0:	1a470713          	addi	a4,a4,420 # 101a4 <list_known_crc>
     3c4:	97ba                	add	a5,a5,a4
     3c6:	0007d683          	lhu	a3,0(a5)
     3ca:	05215783          	lhu	a5,82(sp)
     3ce:	02d78663          	beq	a5,a3,3fa <main+0x252>
     3d2:	15840513          	addi	a0,s0,344
     3d6:	c436                	sw	a3,8(sp)
     3d8:	120010ef          	jal	ra,14f8 <printf>
     3dc:	46a2                	lw	a3,8(sp)
     3de:	05215603          	lhu	a2,82(sp)
     3e2:	00010537          	lui	a0,0x10
     3e6:	4581                	li	a1,0
     3e8:	2cc50513          	addi	a0,a0,716 # 102cc <state_known_crc+0x110>
     3ec:	10c010ef          	jal	ra,14f8 <printf>
     3f0:	05815783          	lhu	a5,88(sp)
     3f4:	0785                	addi	a5,a5,1
     3f6:	04f11c23          	sh	a5,88(sp)
     3fa:	57e2                	lw	a5,56(sp)
     3fc:	8b89                	andi	a5,a5,2
     3fe:	c3a9                	beqz	a5,440 <main+0x298>
     400:	6741                	lui	a4,0x10
     402:	00149793          	slli	a5,s1,0x1
     406:	1a470713          	addi	a4,a4,420 # 101a4 <list_known_crc>
     40a:	97ba                	add	a5,a5,a4
     40c:	00c7d683          	lhu	a3,12(a5)
     410:	05415783          	lhu	a5,84(sp)
     414:	02d78663          	beq	a5,a3,440 <main+0x298>
     418:	15840513          	addi	a0,s0,344
     41c:	c436                	sw	a3,8(sp)
     41e:	0da010ef          	jal	ra,14f8 <printf>
     422:	46a2                	lw	a3,8(sp)
     424:	05415603          	lhu	a2,84(sp)
     428:	00010537          	lui	a0,0x10
     42c:	4581                	li	a1,0
     42e:	2fc50513          	addi	a0,a0,764 # 102fc <state_known_crc+0x140>
     432:	0c6010ef          	jal	ra,14f8 <printf>
     436:	05815783          	lhu	a5,88(sp)
     43a:	0785                	addi	a5,a5,1
     43c:	04f11c23          	sh	a5,88(sp)
     440:	57e2                	lw	a5,56(sp)
     442:	8b91                	andi	a5,a5,4
     444:	c3a9                	beqz	a5,486 <main+0x2de>
     446:	00149793          	slli	a5,s1,0x1
     44a:	64c1                	lui	s1,0x10
     44c:	1a448493          	addi	s1,s1,420 # 101a4 <list_known_crc>
     450:	94be                	add	s1,s1,a5
     452:	0184d683          	lhu	a3,24(s1)
     456:	05615783          	lhu	a5,86(sp)
     45a:	02d78663          	beq	a5,a3,486 <main+0x2de>
     45e:	15840513          	addi	a0,s0,344
     462:	c436                	sw	a3,8(sp)
     464:	094010ef          	jal	ra,14f8 <printf>
     468:	46a2                	lw	a3,8(sp)
     46a:	05615603          	lhu	a2,86(sp)
     46e:	00010537          	lui	a0,0x10
     472:	4581                	li	a1,0
     474:	33050513          	addi	a0,a0,816 # 10330 <state_known_crc+0x174>
     478:	080010ef          	jal	ra,14f8 <printf>
     47c:	05815783          	lhu	a5,88(sp)
     480:	0785                	addi	a5,a5,1
     482:	04f11c23          	sh	a5,88(sp)
     486:	05811483          	lh	s1,88(sp)
     48a:	2c59                	jal	720 <check_data_types>
     48c:	94aa                	add	s1,s1,a0
     48e:	15840513          	addi	a0,s0,344
     492:	066010ef          	jal	ra,14f8 <printf>
     496:	55c2                	lw	a1,48(sp)
     498:	00010537          	lui	a0,0x10
     49c:	36050513          	addi	a0,a0,864 # 10360 <state_known_crc+0x1a4>
     4a0:	058010ef          	jal	ra,14f8 <printf>
     4a4:	15840513          	addi	a0,s0,344
     4a8:	050010ef          	jal	ra,14f8 <printf>
     4ac:	00010537          	lui	a0,0x10
     4b0:	85ce                	mv	a1,s3
     4b2:	37850513          	addi	a0,a0,888 # 10378 <state_known_crc+0x1bc>
     4b6:	042010ef          	jal	ra,14f8 <printf>
     4ba:	15840513          	addi	a0,s0,344
     4be:	03a010ef          	jal	ra,14f8 <printf>
     4c2:	854e                	mv	a0,s3
     4c4:	30d000ef          	jal	ra,fd0 <time_in_secs>
     4c8:	85aa                	mv	a1,a0
     4ca:	00010537          	lui	a0,0x10
     4ce:	39050513          	addi	a0,a0,912 # 10390 <state_known_crc+0x1d4>
     4d2:	026010ef          	jal	ra,14f8 <printf>
     4d6:	04c2                	slli	s1,s1,0x10
     4d8:	854e                	mv	a0,s3
     4da:	80c1                	srli	s1,s1,0x10
     4dc:	2f5000ef          	jal	ra,fd0 <time_in_secs>
     4e0:	c509                	beqz	a0,4ea <main+0x342>
     4e2:	15840513          	addi	a0,s0,344
     4e6:	012010ef          	jal	ra,14f8 <printf>
     4ea:	5a52                	lw	s4,52(sp)
     4ec:	854e                	mv	a0,s3
     4ee:	2e3000ef          	jal	ra,fd0 <time_in_secs>
     4f2:	02aa55b3          	divu	a1,s4,a0
     4f6:	00010537          	lui	a0,0x10
     4fa:	3a850513          	addi	a0,a0,936 # 103a8 <state_known_crc+0x1ec>
     4fe:	7fb000ef          	jal	ra,14f8 <printf>
     502:	854e                	mv	a0,s3
     504:	2cd000ef          	jal	ra,fd0 <time_in_secs>
     508:	47a5                	li	a5,9
     50a:	12a7fd63          	bleu	a0,a5,644 <main+0x49c>
     50e:	15840513          	addi	a0,s0,344
     512:	7e7000ef          	jal	ra,14f8 <printf>
     516:	55d2                	lw	a1,52(sp)
     518:	00010537          	lui	a0,0x10
     51c:	40050513          	addi	a0,a0,1024 # 10400 <state_known_crc+0x244>
     520:	7d9000ef          	jal	ra,14f8 <printf>
     524:	15840513          	addi	a0,s0,344
     528:	7d1000ef          	jal	ra,14f8 <printf>
     52c:	000105b7          	lui	a1,0x10
     530:	00010537          	lui	a0,0x10
     534:	41858593          	addi	a1,a1,1048 # 10418 <state_known_crc+0x25c>
     538:	42050513          	addi	a0,a0,1056 # 10420 <state_known_crc+0x264>
     53c:	7bd000ef          	jal	ra,14f8 <printf>
     540:	15840513          	addi	a0,s0,344
     544:	7b5000ef          	jal	ra,14f8 <printf>
     548:	00010537          	lui	a0,0x10
     54c:	85ca                	mv	a1,s2
     54e:	43850513          	addi	a0,a0,1080 # 10438 <state_known_crc+0x27c>
     552:	7a7000ef          	jal	ra,14f8 <printf>
     556:	57e2                	lw	a5,56(sp)
     558:	04c2                	slli	s1,s1,0x10
     55a:	84c1                	srai	s1,s1,0x10
     55c:	8b85                	andi	a5,a5,1
     55e:	cf91                	beqz	a5,57a <main+0x3d2>
     560:	15840513          	addi	a0,s0,344
     564:	795000ef          	jal	ra,14f8 <printf>
     568:	05215603          	lhu	a2,82(sp)
     56c:	00010537          	lui	a0,0x10
     570:	4581                	li	a1,0
     572:	45450513          	addi	a0,a0,1108 # 10454 <state_known_crc+0x298>
     576:	783000ef          	jal	ra,14f8 <printf>
     57a:	57e2                	lw	a5,56(sp)
     57c:	8b89                	andi	a5,a5,2
     57e:	cf91                	beqz	a5,59a <main+0x3f2>
     580:	15840513          	addi	a0,s0,344
     584:	775000ef          	jal	ra,14f8 <printf>
     588:	05415603          	lhu	a2,84(sp)
     58c:	00010537          	lui	a0,0x10
     590:	4581                	li	a1,0
     592:	47050513          	addi	a0,a0,1136 # 10470 <state_known_crc+0x2b4>
     596:	763000ef          	jal	ra,14f8 <printf>
     59a:	57e2                	lw	a5,56(sp)
     59c:	8b91                	andi	a5,a5,4
     59e:	cf91                	beqz	a5,5ba <main+0x412>
     5a0:	15840513          	addi	a0,s0,344
     5a4:	755000ef          	jal	ra,14f8 <printf>
     5a8:	05615603          	lhu	a2,86(sp)
     5ac:	00010537          	lui	a0,0x10
     5b0:	4581                	li	a1,0
     5b2:	48c50513          	addi	a0,a0,1164 # 1048c <state_known_crc+0x2d0>
     5b6:	743000ef          	jal	ra,14f8 <printf>
     5ba:	15840513          	addi	a0,s0,344
     5be:	73b000ef          	jal	ra,14f8 <printf>
     5c2:	05015603          	lhu	a2,80(sp)
     5c6:	00010537          	lui	a0,0x10
     5ca:	4581                	li	a1,0
     5cc:	56c50513          	addi	a0,a0,1388 # 1056c <state_known_crc+0x3b0>
     5d0:	729000ef          	jal	ra,14f8 <printf>
     5d4:	e4c1                	bnez	s1,65c <main+0x4b4>
     5d6:	15840513          	addi	a0,s0,344
     5da:	71f000ef          	jal	ra,14f8 <printf>
     5de:	00010537          	lui	a0,0x10
     5e2:	4a850513          	addi	a0,a0,1192 # 104a8 <state_known_crc+0x2ec>
     5e6:	713000ef          	jal	ra,14f8 <printf>
     5ea:	50f6                	lw	ra,124(sp)
     5ec:	5466                	lw	s0,120(sp)
     5ee:	54d6                	lw	s1,116(sp)
     5f0:	5946                	lw	s2,112(sp)
     5f2:	59b6                	lw	s3,108(sp)
     5f4:	5a26                	lw	s4,104(sp)
     5f6:	4501                	li	a0,0
     5f8:	6109                	addi	sp,sp,128
     5fa:	8082                	ret
     5fc:	15840513          	addi	a0,s0,344
     600:	6f9000ef          	jal	ra,14f8 <printf>
     604:	00010537          	lui	a0,0x10
     608:	21050513          	addi	a0,a0,528 # 10210 <state_known_crc+0x54>
     60c:	6ed000ef          	jal	ra,14f8 <printf>
     610:	4485                	li	s1,1
     612:	bb79                	j	3b0 <main+0x208>
     614:	15840513          	addi	a0,s0,344
     618:	6e1000ef          	jal	ra,14f8 <printf>
     61c:	00010537          	lui	a0,0x10
     620:	23c50513          	addi	a0,a0,572 # 1023c <state_known_crc+0x80>
     624:	6d5000ef          	jal	ra,14f8 <printf>
     628:	4489                	li	s1,2
     62a:	b359                	j	3b0 <main+0x208>
     62c:	15840513          	addi	a0,s0,344
     630:	6c9000ef          	jal	ra,14f8 <printf>
     634:	00010537          	lui	a0,0x10
     638:	2a050513          	addi	a0,a0,672 # 102a0 <state_known_crc+0xe4>
     63c:	6bd000ef          	jal	ra,14f8 <printf>
     640:	4491                	li	s1,4
     642:	b3bd                	j	3b0 <main+0x208>
     644:	15840513          	addi	a0,s0,344
     648:	6b1000ef          	jal	ra,14f8 <printf>
     64c:	00010537          	lui	a0,0x10
     650:	3c050513          	addi	a0,a0,960 # 103c0 <state_known_crc+0x204>
     654:	6a5000ef          	jal	ra,14f8 <printf>
     658:	0485                	addi	s1,s1,1
     65a:	bd55                	j	50e <main+0x366>
     65c:	15840513          	addi	a0,s0,344
     660:	00905963          	blez	s1,672 <main+0x4ca>
     664:	695000ef          	jal	ra,14f8 <printf>
     668:	00010537          	lui	a0,0x10
     66c:	4f450513          	addi	a0,a0,1268 # 104f4 <state_known_crc+0x338>
     670:	bf9d                	j	5e6 <main+0x43e>
     672:	687000ef          	jal	ra,14f8 <printf>
     676:	00010537          	lui	a0,0x10
     67a:	50850513          	addi	a0,a0,1288 # 10508 <state_known_crc+0x34c>
     67e:	b7a5                	j	5e6 <main+0x43e>

00000680 <get_seed_32>:
     680:	157d                	addi	a0,a0,-1
     682:	4791                	li	a5,4
     684:	02a7e863          	bltu	a5,a0,6b4 <get_seed_32+0x34>
     688:	67c1                	lui	a5,0x10
     68a:	00078793          	mv	a5,a5
     68e:	050a                	slli	a0,a0,0x2
     690:	953e                	add	a0,a0,a5
     692:	411c                	lw	a5,0(a0)
     694:	8782                	jr	a5
     696:	8441a503          	lw	a0,-1980(gp) # 10810 <seed1_volatile>
     69a:	8082                	ret
     69c:	8401a503          	lw	a0,-1984(gp) # 1080c <seed2_volatile>
     6a0:	8082                	ret
     6a2:	8381a503          	lw	a0,-1992(gp) # 10804 <seed3_volatile>
     6a6:	8082                	ret
     6a8:	8341a503          	lw	a0,-1996(gp) # 10800 <seed4_volatile>
     6ac:	8082                	ret
     6ae:	83c1a503          	lw	a0,-1988(gp) # 10808 <_edata>
     6b2:	8082                	ret
     6b4:	4501                	li	a0,0
     6b6:	8082                	ret

000006b8 <crcu8>:
     6b8:	6691                	lui	a3,0x4
     6ba:	47a1                	li	a5,8
     6bc:	0689                	addi	a3,a3,2
     6be:	7661                	lui	a2,0xffff8
     6c0:	00a5c733          	xor	a4,a1,a0
     6c4:	8b05                	andi	a4,a4,1
     6c6:	8105                	srli	a0,a0,0x1
     6c8:	c311                	beqz	a4,6cc <crcu8+0x14>
     6ca:	8db5                	xor	a1,a1,a3
     6cc:	8185                	srli	a1,a1,0x1
     6ce:	c701                	beqz	a4,6d6 <crcu8+0x1e>
     6d0:	8dd1                	or	a1,a1,a2
     6d2:	05c2                	slli	a1,a1,0x10
     6d4:	81c1                	srli	a1,a1,0x10
     6d6:	17fd                	addi	a5,a5,-1
     6d8:	0ff7f793          	andi	a5,a5,255
     6dc:	f3f5                	bnez	a5,6c0 <crcu8+0x8>
     6de:	852e                	mv	a0,a1
     6e0:	8082                	ret

000006e2 <crcu16>:
     6e2:	1141                	addi	sp,sp,-16
     6e4:	c422                	sw	s0,8(sp)
     6e6:	842a                	mv	s0,a0
     6e8:	0ff57513          	andi	a0,a0,255
     6ec:	c606                	sw	ra,12(sp)
     6ee:	37e9                	jal	6b8 <crcu8>
     6f0:	85aa                	mv	a1,a0
     6f2:	00845513          	srli	a0,s0,0x8
     6f6:	4422                	lw	s0,8(sp)
     6f8:	40b2                	lw	ra,12(sp)
     6fa:	0141                	addi	sp,sp,16
     6fc:	bf75                	j	6b8 <crcu8>

000006fe <crcu32>:
     6fe:	1141                	addi	sp,sp,-16
     700:	c422                	sw	s0,8(sp)
     702:	842a                	mv	s0,a0
     704:	0542                	slli	a0,a0,0x10
     706:	8141                	srli	a0,a0,0x10
     708:	c606                	sw	ra,12(sp)
     70a:	3fe1                	jal	6e2 <crcu16>
     70c:	85aa                	mv	a1,a0
     70e:	01045513          	srli	a0,s0,0x10
     712:	4422                	lw	s0,8(sp)
     714:	40b2                	lw	ra,12(sp)
     716:	0141                	addi	sp,sp,16
     718:	b7e9                	j	6e2 <crcu16>

0000071a <crc16>:
     71a:	0542                	slli	a0,a0,0x10
     71c:	8141                	srli	a0,a0,0x10
     71e:	b7d1                	j	6e2 <crcu16>

00000720 <check_data_types>:
     720:	4501                	li	a0,0
     722:	8082                	ret

00000724 <core_init_state>:
     724:	0585                	addi	a1,a1,1
     726:	05c2                	slli	a1,a1,0x10
     728:	6841                	lui	a6,0x10
     72a:	6341                	lui	t1,0x10
     72c:	fff50e13          	addi	t3,a0,-1
     730:	81c1                	srli	a1,a1,0x10
     732:	4781                	li	a5,0
     734:	4701                	li	a4,0
     736:	4681                	li	a3,0
     738:	02c00e93          	li	t4,44
     73c:	4f11                	li	t5,4
     73e:	04880813          	addi	a6,a6,72 # 10048 <intpat>
     742:	01430313          	addi	t1,t1,20 # 10014 <__clzsi2+0xde08>
     746:	00e688b3          	add	a7,a3,a4
     74a:	00188f93          	addi	t6,a7,1
     74e:	01cfe963          	bltu	t6,t3,760 <core_init_state+0x3c>
     752:	00d607b3          	add	a5,a2,a3
     756:	40c78733          	sub	a4,a5,a2
     75a:	04a76f63          	bltu	a4,a0,7b8 <core_init_state+0x94>
     75e:	8082                	ret
     760:	cf19                	beqz	a4,77e <core_init_state+0x5a>
     762:	96b2                	add	a3,a3,a2
     764:	973e                	add	a4,a4,a5
     766:	0007c283          	lbu	t0,0(a5) # 10000 <__clzsi2+0xddf4>
     76a:	0785                	addi	a5,a5,1
     76c:	0685                	addi	a3,a3,1
     76e:	fe568fa3          	sb	t0,-1(a3) # 3fff <__clzsi2+0x1df3>
     772:	fef71ae3          	bne	a4,a5,766 <core_init_state+0x42>
     776:	98b2                	add	a7,a7,a2
     778:	01d88023          	sb	t4,0(a7)
     77c:	86fe                	mv	a3,t6
     77e:	0075f713          	andi	a4,a1,7
     782:	1775                	addi	a4,a4,-3
     784:	0742                	slli	a4,a4,0x10
     786:	0015d793          	srli	a5,a1,0x1
     78a:	8341                	srli	a4,a4,0x10
     78c:	8bb1                	andi	a5,a5,12
     78e:	00ef6763          	bltu	t5,a4,79c <core_init_state+0x78>
     792:	070a                	slli	a4,a4,0x2
     794:	971a                	add	a4,a4,t1
     796:	4318                	lw	a4,0(a4)
     798:	97c2                	add	a5,a5,a6
     79a:	8702                	jr	a4
     79c:	97c2                	add	a5,a5,a6
     79e:	439c                	lw	a5,0(a5)
     7a0:	4711                	li	a4,4
     7a2:	0585                	addi	a1,a1,1
     7a4:	05c2                	slli	a1,a1,0x10
     7a6:	81c1                	srli	a1,a1,0x10
     7a8:	bf79                	j	746 <core_init_state+0x22>
     7aa:	4b9c                	lw	a5,16(a5)
     7ac:	4721                	li	a4,8
     7ae:	bfd5                	j	7a2 <core_init_state+0x7e>
     7b0:	539c                	lw	a5,32(a5)
     7b2:	bfed                	j	7ac <core_init_state+0x88>
     7b4:	5b9c                	lw	a5,48(a5)
     7b6:	bfdd                	j	7ac <core_init_state+0x88>
     7b8:	00078023          	sb	zero,0(a5)
     7bc:	0785                	addi	a5,a5,1
     7be:	bf61                	j	756 <core_init_state+0x32>

000007c0 <core_state_transition>:
     7c0:	4114                	lw	a3,0(a0)
     7c2:	6841                	lui	a6,0x10
     7c4:	4701                	li	a4,0
     7c6:	4305                	li	t1,1
     7c8:	02c00e13          	li	t3,44
     7cc:	4e9d                	li	t4,7
     7ce:	02880813          	addi	a6,a6,40 # 10028 <__clzsi2+0xde1c>
     7d2:	4625                	li	a2,9
     7d4:	04500f13          	li	t5,69
     7d8:	02e00893          	li	a7,46
     7dc:	0006c783          	lbu	a5,0(a3)
     7e0:	c399                	beqz	a5,7e6 <core_state_transition+0x26>
     7e2:	00671563          	bne	a4,t1,7ec <core_state_transition+0x2c>
     7e6:	c114                	sw	a3,0(a0)
     7e8:	853a                	mv	a0,a4
     7ea:	8082                	ret
     7ec:	0685                	addi	a3,a3,1
     7ee:	ffc78ce3          	beq	a5,t3,7e6 <core_state_transition+0x26>
     7f2:	feeee5e3          	bltu	t4,a4,7dc <core_state_transition+0x1c>
     7f6:	00271f93          	slli	t6,a4,0x2
     7fa:	9fc2                	add	t6,t6,a6
     7fc:	000faf83          	lw	t6,0(t6)
     800:	8f82                	jr	t6
     802:	fd078f93          	addi	t6,a5,-48
     806:	0fffff93          	andi	t6,t6,255
     80a:	4711                	li	a4,4
     80c:	03f67063          	bleu	t6,a2,82c <core_state_transition+0x6c>
     810:	fd578f93          	addi	t6,a5,-43
     814:	0fdfff93          	andi	t6,t6,253
     818:	4709                	li	a4,2
     81a:	000f8963          	beqz	t6,82c <core_state_transition+0x6c>
     81e:	4715                	li	a4,5
     820:	01178663          	beq	a5,a7,82c <core_state_transition+0x6c>
     824:	41dc                	lw	a5,4(a1)
     826:	4705                	li	a4,1
     828:	0785                	addi	a5,a5,1
     82a:	c1dc                	sw	a5,4(a1)
     82c:	419c                	lw	a5,0(a1)
     82e:	0785                	addi	a5,a5,1
     830:	c19c                	sw	a5,0(a1)
     832:	b76d                	j	7dc <core_state_transition+0x1c>
     834:	4598                	lw	a4,8(a1)
     836:	fd078f93          	addi	t6,a5,-48
     83a:	0fffff93          	andi	t6,t6,255
     83e:	0705                	addi	a4,a4,1
     840:	01f67763          	bleu	t6,a2,84e <core_state_transition+0x8e>
     844:	01179863          	bne	a5,a7,854 <core_state_transition+0x94>
     848:	c598                	sw	a4,8(a1)
     84a:	4715                	li	a4,5
     84c:	bf41                	j	7dc <core_state_transition+0x1c>
     84e:	c598                	sw	a4,8(a1)
     850:	4711                	li	a4,4
     852:	b769                	j	7dc <core_state_transition+0x1c>
     854:	c598                	sw	a4,8(a1)
     856:	4705                	li	a4,1
     858:	b751                	j	7dc <core_state_transition+0x1c>
     85a:	01179663          	bne	a5,a7,866 <core_state_transition+0xa6>
     85e:	499c                	lw	a5,16(a1)
     860:	0785                	addi	a5,a5,1
     862:	c99c                	sw	a5,16(a1)
     864:	b7dd                	j	84a <core_state_transition+0x8a>
     866:	fd078793          	addi	a5,a5,-48
     86a:	0ff7f793          	andi	a5,a5,255
     86e:	f6f677e3          	bleu	a5,a2,7dc <core_state_transition+0x1c>
     872:	499c                	lw	a5,16(a1)
     874:	0785                	addi	a5,a5,1
     876:	c99c                	sw	a5,16(a1)
     878:	bff9                	j	856 <core_state_transition+0x96>
     87a:	0df7ff93          	andi	t6,a5,223
     87e:	01ef9763          	bne	t6,t5,88c <core_state_transition+0xcc>
     882:	49dc                	lw	a5,20(a1)
     884:	470d                	li	a4,3
     886:	0785                	addi	a5,a5,1
     888:	c9dc                	sw	a5,20(a1)
     88a:	bf89                	j	7dc <core_state_transition+0x1c>
     88c:	fd078793          	addi	a5,a5,-48
     890:	0ff7f793          	andi	a5,a5,255
     894:	f4f674e3          	bleu	a5,a2,7dc <core_state_transition+0x1c>
     898:	49dc                	lw	a5,20(a1)
     89a:	0785                	addi	a5,a5,1
     89c:	c9dc                	sw	a5,20(a1)
     89e:	bf65                	j	856 <core_state_transition+0x96>
     8a0:	45d8                	lw	a4,12(a1)
     8a2:	fd578793          	addi	a5,a5,-43
     8a6:	0fd7f793          	andi	a5,a5,253
     8aa:	0705                	addi	a4,a4,1
     8ac:	c5d8                	sw	a4,12(a1)
     8ae:	4719                	li	a4,6
     8b0:	f3dd                	bnez	a5,856 <core_state_transition+0x96>
     8b2:	b72d                	j	7dc <core_state_transition+0x1c>
     8b4:	4d98                	lw	a4,24(a1)
     8b6:	fd078793          	addi	a5,a5,-48
     8ba:	0ff7f793          	andi	a5,a5,255
     8be:	0705                	addi	a4,a4,1
     8c0:	cd98                	sw	a4,24(a1)
     8c2:	471d                	li	a4,7
     8c4:	f0f67ce3          	bleu	a5,a2,7dc <core_state_transition+0x1c>
     8c8:	b779                	j	856 <core_state_transition+0x96>
     8ca:	fd078793          	addi	a5,a5,-48
     8ce:	0ff7f793          	andi	a5,a5,255
     8d2:	f0f675e3          	bleu	a5,a2,7dc <core_state_transition+0x1c>
     8d6:	41dc                	lw	a5,4(a1)
     8d8:	0785                	addi	a5,a5,1
     8da:	c1dc                	sw	a5,4(a1)
     8dc:	bfad                	j	856 <core_state_transition+0x96>

000008de <core_bench_state>:
     8de:	7119                	addi	sp,sp,-128
     8e0:	dca2                	sw	s0,120(sp)
     8e2:	daa6                	sw	s1,116(sp)
     8e4:	d8ca                	sw	s2,112(sp)
     8e6:	d6ce                	sw	s3,108(sp)
     8e8:	d4d2                	sw	s4,104(sp)
     8ea:	842e                	mv	s0,a1
     8ec:	893e                	mv	s2,a5
     8ee:	ce2e                	sw	a1,28(sp)
     8f0:	de86                	sw	ra,124(sp)
     8f2:	84aa                	mv	s1,a0
     8f4:	8a36                	mv	s4,a3
     8f6:	89ba                	mv	s3,a4
     8f8:	4581                	li	a1,0
     8fa:	02000793          	li	a5,32
     8fe:	0094                	addi	a3,sp,64
     900:	00b68733          	add	a4,a3,a1
     904:	1014                	addi	a3,sp,32
     906:	00072023          	sw	zero,0(a4)
     90a:	00b68733          	add	a4,a3,a1
     90e:	00072023          	sw	zero,0(a4)
     912:	0591                	addi	a1,a1,4
     914:	fef595e3          	bne	a1,a5,8fe <core_bench_state+0x20>
     918:	47f2                	lw	a5,28(sp)
     91a:	0007c783          	lbu	a5,0(a5)
     91e:	efb1                	bnez	a5,97a <core_bench_state+0x9c>
     920:	ce22                	sw	s0,28(sp)
     922:	94a2                	add	s1,s1,s0
     924:	02c00713          	li	a4,44
     928:	47f2                	lw	a5,28(sp)
     92a:	0697e663          	bltu	a5,s1,996 <core_bench_state+0xb8>
     92e:	ce22                	sw	s0,28(sp)
     930:	47f2                	lw	a5,28(sp)
     932:	0007c783          	lbu	a5,0(a5)
     936:	ebbd                	bnez	a5,9ac <core_bench_state+0xce>
     938:	ce22                	sw	s0,28(sp)
     93a:	02c00713          	li	a4,44
     93e:	47f2                	lw	a5,28(sp)
     940:	0897e263          	bltu	a5,s1,9c4 <core_bench_state+0xe6>
     944:	4401                	li	s0,0
     946:	02000493          	li	s1,32
     94a:	1014                	addi	a3,sp,32
     94c:	008687b3          	add	a5,a3,s0
     950:	4388                	lw	a0,0(a5)
     952:	85ca                	mv	a1,s2
     954:	336d                	jal	6fe <crcu32>
     956:	0098                	addi	a4,sp,64
     958:	008707b3          	add	a5,a4,s0
     95c:	85aa                	mv	a1,a0
     95e:	4388                	lw	a0,0(a5)
     960:	0411                	addi	s0,s0,4
     962:	3b71                	jal	6fe <crcu32>
     964:	892a                	mv	s2,a0
     966:	fe9412e3          	bne	s0,s1,94a <core_bench_state+0x6c>
     96a:	50f6                	lw	ra,124(sp)
     96c:	5466                	lw	s0,120(sp)
     96e:	54d6                	lw	s1,116(sp)
     970:	5946                	lw	s2,112(sp)
     972:	59b6                	lw	s3,108(sp)
     974:	5a26                	lw	s4,104(sp)
     976:	6109                	addi	sp,sp,128
     978:	8082                	ret
     97a:	008c                	addi	a1,sp,64
     97c:	0868                	addi	a0,sp,28
     97e:	c632                	sw	a2,12(sp)
     980:	3581                	jal	7c0 <core_state_transition>
     982:	050a                	slli	a0,a0,0x2
     984:	1098                	addi	a4,sp,96
     986:	953a                	add	a0,a0,a4
     988:	fc052783          	lw	a5,-64(a0)
     98c:	4632                	lw	a2,12(sp)
     98e:	0785                	addi	a5,a5,1
     990:	fcf52023          	sw	a5,-64(a0)
     994:	b751                	j	918 <core_bench_state+0x3a>
     996:	0007c583          	lbu	a1,0(a5)
     99a:	00e58563          	beq	a1,a4,9a4 <core_bench_state+0xc6>
     99e:	8db1                	xor	a1,a1,a2
     9a0:	00b78023          	sb	a1,0(a5)
     9a4:	47f2                	lw	a5,28(sp)
     9a6:	97ce                	add	a5,a5,s3
     9a8:	ce3e                	sw	a5,28(sp)
     9aa:	bfbd                	j	928 <core_bench_state+0x4a>
     9ac:	008c                	addi	a1,sp,64
     9ae:	0868                	addi	a0,sp,28
     9b0:	3d01                	jal	7c0 <core_state_transition>
     9b2:	109c                	addi	a5,sp,96
     9b4:	050a                	slli	a0,a0,0x2
     9b6:	953e                	add	a0,a0,a5
     9b8:	fc052783          	lw	a5,-64(a0)
     9bc:	0785                	addi	a5,a5,1
     9be:	fcf52023          	sw	a5,-64(a0)
     9c2:	b7bd                	j	930 <core_bench_state+0x52>
     9c4:	0007c603          	lbu	a2,0(a5)
     9c8:	00e60663          	beq	a2,a4,9d4 <core_bench_state+0xf6>
     9cc:	01464633          	xor	a2,a2,s4
     9d0:	00c78023          	sb	a2,0(a5)
     9d4:	47f2                	lw	a5,28(sp)
     9d6:	97ce                	add	a5,a5,s3
     9d8:	ce3e                	sw	a5,28(sp)
     9da:	b795                	j	93e <core_bench_state+0x60>

000009dc <cmp_idx>:
     9dc:	e60d                	bnez	a2,a06 <cmp_idx+0x2a>
     9de:	00051783          	lh	a5,0(a0)
     9e2:	f007f713          	andi	a4,a5,-256
     9e6:	07c2                	slli	a5,a5,0x10
     9e8:	83c1                	srli	a5,a5,0x10
     9ea:	83a1                	srli	a5,a5,0x8
     9ec:	8fd9                	or	a5,a5,a4
     9ee:	00f51023          	sh	a5,0(a0)
     9f2:	00059783          	lh	a5,0(a1)
     9f6:	f007f713          	andi	a4,a5,-256
     9fa:	07c2                	slli	a5,a5,0x10
     9fc:	83c1                	srli	a5,a5,0x10
     9fe:	83a1                	srli	a5,a5,0x8
     a00:	8fd9                	or	a5,a5,a4
     a02:	00f59023          	sh	a5,0(a1)
     a06:	00251503          	lh	a0,2(a0)
     a0a:	00259783          	lh	a5,2(a1)
     a0e:	8d1d                	sub	a0,a0,a5
     a10:	8082                	ret

00000a12 <calc_func>:
     a12:	1101                	addi	sp,sp,-32
     a14:	ca26                	sw	s1,20(sp)
     a16:	00051483          	lh	s1,0(a0)
     a1a:	ce06                	sw	ra,28(sp)
     a1c:	cc22                	sw	s0,24(sp)
     a1e:	4074d793          	srai	a5,s1,0x7
     a22:	c84a                	sw	s2,16(sp)
     a24:	c64e                	sw	s3,12(sp)
     a26:	8b85                	andi	a5,a5,1
     a28:	cb91                	beqz	a5,a3c <calc_func+0x2a>
     a2a:	07f4f513          	andi	a0,s1,127
     a2e:	40f2                	lw	ra,28(sp)
     a30:	4462                	lw	s0,24(sp)
     a32:	44d2                	lw	s1,20(sp)
     a34:	4942                	lw	s2,16(sp)
     a36:	49b2                	lw	s3,12(sp)
     a38:	6105                	addi	sp,sp,32
     a3a:	8082                	ret
     a3c:	842e                	mv	s0,a1
     a3e:	4034d593          	srai	a1,s1,0x3
     a42:	00f5f793          	andi	a5,a1,15
     a46:	00479593          	slli	a1,a5,0x4
     a4a:	0074f713          	andi	a4,s1,7
     a4e:	8ddd                	or	a1,a1,a5
     a50:	89aa                	mv	s3,a0
     a52:	03845783          	lhu	a5,56(s0)
     a56:	c711                	beqz	a4,a62 <calc_func+0x50>
     a58:	4685                	li	a3,1
     a5a:	04d70f63          	beq	a4,a3,ab8 <calc_func+0xa6>
     a5e:	8926                	mv	s2,s1
     a60:	a815                	j	a94 <calc_func+0x82>
     a62:	02200693          	li	a3,34
     a66:	872e                	mv	a4,a1
     a68:	00d5d463          	ble	a3,a1,a70 <calc_func+0x5e>
     a6c:	02200713          	li	a4,34
     a70:	00241683          	lh	a3,2(s0)
     a74:	00041603          	lh	a2,0(s0)
     a78:	484c                	lw	a1,20(s0)
     a7a:	4c08                	lw	a0,24(s0)
     a7c:	0ff77713          	andi	a4,a4,255
     a80:	3db9                	jal	8de <core_bench_state>
     a82:	03e45783          	lhu	a5,62(s0)
     a86:	01051913          	slli	s2,a0,0x10
     a8a:	41095913          	srai	s2,s2,0x10
     a8e:	e399                	bnez	a5,a94 <calc_func+0x82>
     a90:	02a41f23          	sh	a0,62(s0)
     a94:	03845583          	lhu	a1,56(s0)
     a98:	01091513          	slli	a0,s2,0x10
     a9c:	8141                	srli	a0,a0,0x10
     a9e:	3191                	jal	6e2 <crcu16>
     aa0:	f004f493          	andi	s1,s1,-256
     aa4:	02a41c23          	sh	a0,56(s0)
     aa8:	0804e493          	ori	s1,s1,128
     aac:	07f97513          	andi	a0,s2,127
     ab0:	8cc9                	or	s1,s1,a0
     ab2:	00999023          	sh	s1,0(s3)
     ab6:	bfa5                	j	a2e <calc_func+0x1c>
     ab8:	863e                	mv	a2,a5
     aba:	02840513          	addi	a0,s0,40
     abe:	095000ef          	jal	ra,1352 <core_bench_matrix>
     ac2:	03c45783          	lhu	a5,60(s0)
     ac6:	01051913          	slli	s2,a0,0x10
     aca:	41095913          	srai	s2,s2,0x10
     ace:	f3f9                	bnez	a5,a94 <calc_func+0x82>
     ad0:	02a41e23          	sh	a0,60(s0)
     ad4:	b7c1                	j	a94 <calc_func+0x82>

00000ad6 <cmp_complex>:
     ad6:	1101                	addi	sp,sp,-32
     ad8:	ca26                	sw	s1,20(sp)
     ada:	84ae                	mv	s1,a1
     adc:	85b2                	mv	a1,a2
     ade:	ce06                	sw	ra,28(sp)
     ae0:	cc22                	sw	s0,24(sp)
     ae2:	c632                	sw	a2,12(sp)
     ae4:	373d                	jal	a12 <calc_func>
     ae6:	4632                	lw	a2,12(sp)
     ae8:	842a                	mv	s0,a0
     aea:	8526                	mv	a0,s1
     aec:	85b2                	mv	a1,a2
     aee:	3715                	jal	a12 <calc_func>
     af0:	40a40533          	sub	a0,s0,a0
     af4:	40f2                	lw	ra,28(sp)
     af6:	4462                	lw	s0,24(sp)
     af8:	44d2                	lw	s1,20(sp)
     afa:	6105                	addi	sp,sp,32
     afc:	8082                	ret

00000afe <copy_info>:
     afe:	00059783          	lh	a5,0(a1)
     b02:	00f51023          	sh	a5,0(a0)
     b06:	00259783          	lh	a5,2(a1)
     b0a:	00f51123          	sh	a5,2(a0)
     b0e:	8082                	ret

00000b10 <core_list_insert_new>:
     b10:	882a                	mv	a6,a0
     b12:	4208                	lw	a0,0(a2)
     b14:	00850893          	addi	a7,a0,8
     b18:	02e8fc63          	bleu	a4,a7,b50 <core_list_insert_new+0x40>
     b1c:	4298                	lw	a4,0(a3)
     b1e:	00470313          	addi	t1,a4,4
     b22:	02f37763          	bleu	a5,t1,b50 <core_list_insert_new+0x40>
     b26:	01162023          	sw	a7,0(a2) # ffff8000 <pulp__FC+0xffff8001>
     b2a:	00082783          	lw	a5,0(a6)
     b2e:	c11c                	sw	a5,0(a0)
     b30:	00a82023          	sw	a0,0(a6)
     b34:	c158                	sw	a4,4(a0)
     b36:	429c                	lw	a5,0(a3)
     b38:	00059703          	lh	a4,0(a1)
     b3c:	0791                	addi	a5,a5,4
     b3e:	c29c                	sw	a5,0(a3)
     b40:	415c                	lw	a5,4(a0)
     b42:	00e79023          	sh	a4,0(a5)
     b46:	00259703          	lh	a4,2(a1)
     b4a:	00e79123          	sh	a4,2(a5)
     b4e:	8082                	ret
     b50:	4501                	li	a0,0
     b52:	8082                	ret

00000b54 <core_list_remove>:
     b54:	411c                	lw	a5,0(a0)
     b56:	4158                	lw	a4,4(a0)
     b58:	43d4                	lw	a3,4(a5)
     b5a:	c154                	sw	a3,4(a0)
     b5c:	c3d8                	sw	a4,4(a5)
     b5e:	4398                	lw	a4,0(a5)
     b60:	c118                	sw	a4,0(a0)
     b62:	0007a023          	sw	zero,0(a5)
     b66:	853e                	mv	a0,a5
     b68:	8082                	ret

00000b6a <core_list_undo_remove>:
     b6a:	41d4                	lw	a3,4(a1)
     b6c:	4158                	lw	a4,4(a0)
     b6e:	c154                	sw	a3,4(a0)
     b70:	c1d8                	sw	a4,4(a1)
     b72:	4198                	lw	a4,0(a1)
     b74:	c118                	sw	a4,0(a0)
     b76:	c188                	sw	a0,0(a1)
     b78:	8082                	ret

00000b7a <core_list_find>:
     b7a:	00259783          	lh	a5,2(a1)
     b7e:	0007de63          	bgez	a5,b9a <core_list_find+0x20>
     b82:	c115                	beqz	a0,ba6 <core_list_find+0x2c>
     b84:	415c                	lw	a5,4(a0)
     b86:	0007c703          	lbu	a4,0(a5)
     b8a:	00059783          	lh	a5,0(a1)
     b8e:	00f71363          	bne	a4,a5,b94 <core_list_find+0x1a>
     b92:	8082                	ret
     b94:	4108                	lw	a0,0(a0)
     b96:	b7f5                	j	b82 <core_list_find+0x8>
     b98:	4108                	lw	a0,0(a0)
     b9a:	c511                	beqz	a0,ba6 <core_list_find+0x2c>
     b9c:	4158                	lw	a4,4(a0)
     b9e:	00271703          	lh	a4,2(a4)
     ba2:	fef71be3          	bne	a4,a5,b98 <core_list_find+0x1e>
     ba6:	8082                	ret

00000ba8 <core_list_reverse>:
     ba8:	87aa                	mv	a5,a0
     baa:	4501                	li	a0,0
     bac:	e391                	bnez	a5,bb0 <core_list_reverse+0x8>
     bae:	8082                	ret
     bb0:	4398                	lw	a4,0(a5)
     bb2:	c388                	sw	a0,0(a5)
     bb4:	853e                	mv	a0,a5
     bb6:	87ba                	mv	a5,a4
     bb8:	bfd5                	j	bac <core_list_reverse+0x4>

00000bba <core_list_mergesort>:
     bba:	7179                	addi	sp,sp,-48
     bbc:	cc52                	sw	s4,24(sp)
     bbe:	ca56                	sw	s5,20(sp)
     bc0:	c462                	sw	s8,8(sp)
     bc2:	c266                	sw	s9,4(sp)
     bc4:	c06a                	sw	s10,0(sp)
     bc6:	d606                	sw	ra,44(sp)
     bc8:	d422                	sw	s0,40(sp)
     bca:	d226                	sw	s1,36(sp)
     bcc:	d04a                	sw	s2,32(sp)
     bce:	ce4e                	sw	s3,28(sp)
     bd0:	c85a                	sw	s6,16(sp)
     bd2:	c65e                	sw	s7,12(sp)
     bd4:	8c2e                	mv	s8,a1
     bd6:	8cb2                	mv	s9,a2
     bd8:	8a2a                	mv	s4,a0
     bda:	4a85                	li	s5,1
     bdc:	4d05                	li	s10,1
     bde:	84d2                	mv	s1,s4
     be0:	4b81                	li	s7,0
     be2:	4b01                	li	s6,0
     be4:	4a01                	li	s4,0
     be6:	e499                	bnez	s1,bf4 <core_list_mergesort+0x3a>
     be8:	000b2023          	sw	zero,0(s6)
     bec:	057d5e63          	ble	s7,s10,c48 <core_list_mergesort+0x8e>
     bf0:	0a86                	slli	s5,s5,0x1
     bf2:	b7f5                	j	bde <core_list_mergesort+0x24>
     bf4:	0b85                	addi	s7,s7,1
     bf6:	8426                	mv	s0,s1
     bf8:	4901                	li	s2,0
     bfa:	4000                	lw	s0,0(s0)
     bfc:	0905                	addi	s2,s2,1
     bfe:	e809                	bnez	s0,c10 <core_list_mergesort+0x56>
     c00:	89d6                	mv	s3,s5
     c02:	00091a63          	bnez	s2,c16 <core_list_mergesort+0x5c>
     c06:	00098363          	beqz	s3,c0c <core_list_mergesort+0x52>
     c0a:	e815                	bnez	s0,c3e <core_list_mergesort+0x84>
     c0c:	84a2                	mv	s1,s0
     c0e:	bfe1                	j	be6 <core_list_mergesort+0x2c>
     c10:	ff2a95e3          	bne	s5,s2,bfa <core_list_mergesort+0x40>
     c14:	b7f5                	j	c00 <core_list_mergesort+0x46>
     c16:	00098363          	beqz	s3,c1c <core_list_mergesort+0x62>
     c1a:	ec01                	bnez	s0,c32 <core_list_mergesort+0x78>
     c1c:	87a2                	mv	a5,s0
     c1e:	8426                	mv	s0,s1
     c20:	4084                	lw	s1,0(s1)
     c22:	197d                	addi	s2,s2,-1
     c24:	020b0063          	beqz	s6,c44 <core_list_mergesort+0x8a>
     c28:	008b2023          	sw	s0,0(s6)
     c2c:	8b22                	mv	s6,s0
     c2e:	843e                	mv	s0,a5
     c30:	bfc9                	j	c02 <core_list_mergesort+0x48>
     c32:	404c                	lw	a1,4(s0)
     c34:	40c8                	lw	a0,4(s1)
     c36:	8666                	mv	a2,s9
     c38:	9c02                	jalr	s8
     c3a:	fea051e3          	blez	a0,c1c <core_list_mergesort+0x62>
     c3e:	401c                	lw	a5,0(s0)
     c40:	19fd                	addi	s3,s3,-1
     c42:	b7cd                	j	c24 <core_list_mergesort+0x6a>
     c44:	8a22                	mv	s4,s0
     c46:	b7dd                	j	c2c <core_list_mergesort+0x72>
     c48:	50b2                	lw	ra,44(sp)
     c4a:	5422                	lw	s0,40(sp)
     c4c:	8552                	mv	a0,s4
     c4e:	5492                	lw	s1,36(sp)
     c50:	5902                	lw	s2,32(sp)
     c52:	49f2                	lw	s3,28(sp)
     c54:	4a62                	lw	s4,24(sp)
     c56:	4ad2                	lw	s5,20(sp)
     c58:	4b42                	lw	s6,16(sp)
     c5a:	4bb2                	lw	s7,12(sp)
     c5c:	4c22                	lw	s8,8(sp)
     c5e:	4c92                	lw	s9,4(sp)
     c60:	4d02                	lw	s10,0(sp)
     c62:	6145                	addi	sp,sp,48
     c64:	8082                	ret

00000c66 <core_bench_list>:
     c66:	715d                	addi	sp,sp,-80
     c68:	c4a2                	sw	s0,72(sp)
     c6a:	d65e                	sw	s7,44(sp)
     c6c:	5140                	lw	s0,36(a0)
     c6e:	00451b83          	lh	s7,4(a0)
     c72:	c2a6                	sw	s1,68(sp)
     c74:	c0ca                	sw	s2,64(sp)
     c76:	dc52                	sw	s4,56(sp)
     c78:	da56                	sw	s5,52(sp)
     c7a:	d85a                	sw	s6,48(sp)
     c7c:	c686                	sw	ra,76(sp)
     c7e:	de4e                	sw	s3,60(sp)
     c80:	862a                	mv	a2,a0
     c82:	8a2e                	mv	s4,a1
     c84:	00b11f23          	sh	a1,30(sp)
     c88:	4a81                	li	s5,0
     c8a:	4b01                	li	s6,0
     c8c:	4901                	li	s2,0
     c8e:	4481                	li	s1,0
     c90:	077acf63          	blt	s5,s7,d0e <core_bench_list+0xa8>
     c94:	090a                	slli	s2,s2,0x2
     c96:	41690933          	sub	s2,s2,s6
     c9a:	94ca                	add	s1,s1,s2
     c9c:	04c2                	slli	s1,s1,0x10
     c9e:	80c1                	srli	s1,s1,0x10
     ca0:	01405963          	blez	s4,cb2 <core_bench_list+0x4c>
     ca4:	000015b7          	lui	a1,0x1
     ca8:	8522                	mv	a0,s0
     caa:	ad658593          	addi	a1,a1,-1322 # ad6 <cmp_complex>
     cae:	3731                	jal	bba <core_list_mergesort>
     cb0:	842a                	mv	s0,a0
     cb2:	4008                	lw	a0,0(s0)
     cb4:	3545                	jal	b54 <core_list_remove>
     cb6:	89aa                	mv	s3,a0
     cb8:	086c                	addi	a1,sp,28
     cba:	8522                	mv	a0,s0
     cbc:	3d7d                	jal	b7a <core_list_find>
     cbe:	892a                	mv	s2,a0
     cc0:	e119                	bnez	a0,cc6 <core_bench_list+0x60>
     cc2:	00042903          	lw	s2,0(s0)
     cc6:	0c091763          	bnez	s2,d94 <core_bench_list+0x12e>
     cca:	401c                	lw	a5,0(s0)
     ccc:	0049a703          	lw	a4,4(s3)
     cd0:	000015b7          	lui	a1,0x1
     cd4:	43d4                	lw	a3,4(a5)
     cd6:	8522                	mv	a0,s0
     cd8:	4601                	li	a2,0
     cda:	00d9a223          	sw	a3,4(s3)
     cde:	c3d8                	sw	a4,4(a5)
     ce0:	4398                	lw	a4,0(a5)
     ce2:	9dc58593          	addi	a1,a1,-1572 # 9dc <cmp_idx>
     ce6:	00e9a023          	sw	a4,0(s3)
     cea:	0137a023          	sw	s3,0(a5)
     cee:	35f1                	jal	bba <core_list_mergesort>
     cf0:	4100                	lw	s0,0(a0)
     cf2:	892a                	mv	s2,a0
     cf4:	e855                	bnez	s0,da8 <core_bench_list+0x142>
     cf6:	40b6                	lw	ra,76(sp)
     cf8:	4426                	lw	s0,72(sp)
     cfa:	8526                	mv	a0,s1
     cfc:	4906                	lw	s2,64(sp)
     cfe:	4496                	lw	s1,68(sp)
     d00:	59f2                	lw	s3,60(sp)
     d02:	5a62                	lw	s4,56(sp)
     d04:	5ad2                	lw	s5,52(sp)
     d06:	5b42                	lw	s6,48(sp)
     d08:	5bb2                	lw	s7,44(sp)
     d0a:	6161                	addi	sp,sp,80
     d0c:	8082                	ret
     d0e:	0ffaf793          	andi	a5,s5,255
     d12:	086c                	addi	a1,sp,28
     d14:	8522                	mv	a0,s0
     d16:	c632                	sw	a2,12(sp)
     d18:	00f11e23          	sh	a5,28(sp)
     d1c:	3db9                	jal	b7a <core_list_find>
     d1e:	89aa                	mv	s3,a0
     d20:	8522                	mv	a0,s0
     d22:	3559                	jal	ba8 <core_list_reverse>
     d24:	842a                	mv	s0,a0
     d26:	4632                	lw	a2,12(sp)
     d28:	02099c63          	bnez	s3,d60 <core_bench_list+0xfa>
     d2c:	411c                	lw	a5,0(a0)
     d2e:	0b05                	addi	s6,s6,1
     d30:	0b42                	slli	s6,s6,0x10
     d32:	43dc                	lw	a5,4(a5)
     d34:	010b5b13          	srli	s6,s6,0x10
     d38:	00178783          	lb	a5,1(a5)
     d3c:	8b85                	andi	a5,a5,1
     d3e:	94be                	add	s1,s1,a5
     d40:	04c2                	slli	s1,s1,0x10
     d42:	80c1                	srli	s1,s1,0x10
     d44:	01e11783          	lh	a5,30(sp)
     d48:	0007c563          	bltz	a5,d52 <core_bench_list+0xec>
     d4c:	0785                	addi	a5,a5,1
     d4e:	00f11f23          	sh	a5,30(sp)
     d52:	001a8793          	addi	a5,s5,1
     d56:	01079a93          	slli	s5,a5,0x10
     d5a:	410ada93          	srai	s5,s5,0x10
     d5e:	bf0d                	j	c90 <core_bench_list+0x2a>
     d60:	0049a703          	lw	a4,4(s3)
     d64:	0905                	addi	s2,s2,1
     d66:	0942                	slli	s2,s2,0x10
     d68:	00071783          	lh	a5,0(a4)
     d6c:	01095913          	srli	s2,s2,0x10
     d70:	0017f713          	andi	a4,a5,1
     d74:	c711                	beqz	a4,d80 <core_bench_list+0x11a>
     d76:	87a5                	srai	a5,a5,0x9
     d78:	8b85                	andi	a5,a5,1
     d7a:	94be                	add	s1,s1,a5
     d7c:	04c2                	slli	s1,s1,0x10
     d7e:	80c1                	srli	s1,s1,0x10
     d80:	0009a783          	lw	a5,0(s3)
     d84:	d3e1                	beqz	a5,d44 <core_bench_list+0xde>
     d86:	4398                	lw	a4,0(a5)
     d88:	00e9a023          	sw	a4,0(s3)
     d8c:	4018                	lw	a4,0(s0)
     d8e:	c398                	sw	a4,0(a5)
     d90:	c01c                	sw	a5,0(s0)
     d92:	bf4d                	j	d44 <core_bench_list+0xde>
     d94:	405c                	lw	a5,4(s0)
     d96:	85a6                	mv	a1,s1
     d98:	00079503          	lh	a0,0(a5)
     d9c:	97fff0ef          	jal	ra,71a <crc16>
     da0:	84aa                	mv	s1,a0
     da2:	00092903          	lw	s2,0(s2)
     da6:	b705                	j	cc6 <core_bench_list+0x60>
     da8:	00492783          	lw	a5,4(s2)
     dac:	85a6                	mv	a1,s1
     dae:	00079503          	lh	a0,0(a5)
     db2:	969ff0ef          	jal	ra,71a <crc16>
     db6:	84aa                	mv	s1,a0
     db8:	4000                	lw	s0,0(s0)
     dba:	bf2d                	j	cf4 <core_bench_list+0x8e>

00000dbc <core_list_init>:
     dbc:	7139                	addi	sp,sp,-64
     dbe:	dc22                	sw	s0,56(sp)
     dc0:	4451                	li	s0,20
     dc2:	02855433          	divu	s0,a0,s0
     dc6:	da26                	sw	s1,52(sp)
     dc8:	d84a                	sw	s2,48(sp)
     dca:	d64e                	sw	s3,44(sp)
     dcc:	d452                	sw	s4,40(sp)
     dce:	d256                	sw	s5,36(sp)
     dd0:	de06                	sw	ra,60(sp)
     dd2:	67a1                	lui	a5,0x8
     dd4:	0005a023          	sw	zero,0(a1)
     dd8:	08078793          	addi	a5,a5,128 # 8080 <__clzsi2+0x5e74>
     ddc:	89ae                	mv	s3,a1
     dde:	8932                	mv	s2,a2
     de0:	0834                	addi	a3,sp,24
     de2:	0070                	addi	a2,sp,12
     de4:	854e                	mv	a0,s3
     de6:	4a01                	li	s4,0
     de8:	1479                	addi	s0,s0,-2
     dea:	00341493          	slli	s1,s0,0x3
     dee:	94ae                	add	s1,s1,a1
     df0:	c1c4                	sw	s1,4(a1)
     df2:	c09c                	sw	a5,0(s1)
     df4:	00858793          	addi	a5,a1,8
     df8:	c63e                	sw	a5,12(sp)
     dfa:	00448793          	addi	a5,s1,4
     dfe:	cc3e                	sw	a5,24(sp)
     e00:	00241a93          	slli	s5,s0,0x2
     e04:	800007b7          	lui	a5,0x80000
     e08:	fff7c793          	not	a5,a5
     e0c:	9aa6                	add	s5,s5,s1
     e0e:	ce3e                	sw	a5,28(sp)
     e10:	8726                	mv	a4,s1
     e12:	87d6                	mv	a5,s5
     e14:	086c                	addi	a1,sp,28
     e16:	39ed                	jal	b10 <core_list_insert_new>
     e18:	028a6c63          	bltu	s4,s0,e50 <core_list_init+0x94>
     e1c:	4515                	li	a0,5
     e1e:	02a45433          	divu	s0,s0,a0
     e22:	0009a783          	lw	a5,0(s3)
     e26:	6611                	lui	a2,0x4
     e28:	4705                	li	a4,1
     e2a:	167d                	addi	a2,a2,-1
     e2c:	438c                	lw	a1,0(a5)
     e2e:	e9a9                	bnez	a1,e80 <core_list_init+0xc4>
     e30:	000015b7          	lui	a1,0x1
     e34:	854e                	mv	a0,s3
     e36:	4601                	li	a2,0
     e38:	9dc58593          	addi	a1,a1,-1572 # 9dc <cmp_idx>
     e3c:	3bbd                	jal	bba <core_list_mergesort>
     e3e:	50f2                	lw	ra,60(sp)
     e40:	5462                	lw	s0,56(sp)
     e42:	54d2                	lw	s1,52(sp)
     e44:	5942                	lw	s2,48(sp)
     e46:	59b2                	lw	s3,44(sp)
     e48:	5a22                	lw	s4,40(sp)
     e4a:	5a92                	lw	s5,36(sp)
     e4c:	6121                	addi	sp,sp,64
     e4e:	8082                	ret
     e50:	010a1713          	slli	a4,s4,0x10
     e54:	8341                	srli	a4,a4,0x10
     e56:	012747b3          	xor	a5,a4,s2
     e5a:	078e                	slli	a5,a5,0x3
     e5c:	8b1d                	andi	a4,a4,7
     e5e:	0787f793          	andi	a5,a5,120
     e62:	8fd9                	or	a5,a5,a4
     e64:	00879713          	slli	a4,a5,0x8
     e68:	8fd9                	or	a5,a5,a4
     e6a:	00f11e23          	sh	a5,28(sp)
     e6e:	8726                	mv	a4,s1
     e70:	87d6                	mv	a5,s5
     e72:	0834                	addi	a3,sp,24
     e74:	0070                	addi	a2,sp,12
     e76:	086c                	addi	a1,sp,28
     e78:	854e                	mv	a0,s3
     e7a:	3959                	jal	b10 <core_list_insert_new>
     e7c:	0a05                	addi	s4,s4,1
     e7e:	bf69                	j	e18 <core_list_init+0x5c>
     e80:	43c8                	lw	a0,4(a5)
     e82:	00877863          	bleu	s0,a4,e92 <core_list_init+0xd6>
     e86:	87ba                	mv	a5,a4
     e88:	00f51123          	sh	a5,2(a0)
     e8c:	0705                	addi	a4,a4,1
     e8e:	87ae                	mv	a5,a1
     e90:	bf71                	j	e2c <core_list_init+0x70>
     e92:	01071693          	slli	a3,a4,0x10
     e96:	82c1                	srli	a3,a3,0x10
     e98:	00168793          	addi	a5,a3,1
     e9c:	07a2                	slli	a5,a5,0x8
     e9e:	7007f793          	andi	a5,a5,1792
     ea2:	0126c6b3          	xor	a3,a3,s2
     ea6:	8fd5                	or	a5,a5,a3
     ea8:	8ff1                	and	a5,a5,a2
     eaa:	bff9                	j	e88 <core_list_init+0xcc>

00000eac <start_time>:
     eac:	100407b7          	lui	a5,0x10040
     eb0:	53f0                	lw	a2,100(a5)
     eb2:	88c1a423          	sw	a2,-1912(gp) # 10854 <t0_high>
     eb6:	53b8                	lw	a4,96(a5)
     eb8:	06078693          	addi	a3,a5,96 # 10040060 <_sp+0x1002e030>
     ebc:	d3f4                	sw	a3,100(a5)
     ebe:	88e1a823          	sw	a4,-1904(gp) # 1085c <t0_low>
     ec2:	8082                	ret

00000ec4 <stop_time>:
     ec4:	100407b7          	lui	a5,0x10040
     ec8:	53f4                	lw	a3,100(a5)
     eca:	1141                	addi	sp,sp,-16
     ecc:	c422                	sw	s0,8(sp)
     ece:	c226                	sw	s1,4(sp)
     ed0:	c606                	sw	ra,12(sp)
     ed2:	88d1a623          	sw	a3,-1908(gp) # 10858 <t1_high>
     ed6:	06078693          	addi	a3,a5,96 # 10040060 <_sp+0x1002e030>
     eda:	d3f4                	sw	a3,100(a5)
     edc:	53bc                	lw	a5,96(a5)
     ede:	00010537          	lui	a0,0x10
     ee2:	88f1a223          	sw	a5,-1916(gp) # 10850 <t1_low>
     ee6:	8901a603          	lw	a2,-1904(gp) # 1085c <t0_low>
     eea:	8881a583          	lw	a1,-1912(gp) # 10854 <t0_high>
     eee:	13850513          	addi	a0,a0,312 # 10138 <errpat+0xc0>
     ef2:	2519                	jal	14f8 <printf>
     ef4:	88c1a583          	lw	a1,-1908(gp) # 10858 <t1_high>
     ef8:	4422                	lw	s0,8(sp)
     efa:	8841a603          	lw	a2,-1916(gp) # 10850 <t1_low>
     efe:	40b2                	lw	ra,12(sp)
     f00:	4492                	lw	s1,4(sp)
     f02:	00010537          	lui	a0,0x10
     f06:	14850513          	addi	a0,a0,328 # 10148 <errpat+0xd0>
     f0a:	0141                	addi	sp,sp,16
     f0c:	a3f5                	j	14f8 <printf>

00000f0e <get_time>:
     f0e:	1101                	addi	sp,sp,-32
     f10:	c84a                	sw	s2,16(sp)
     f12:	c64e                	sw	s3,12(sp)
     f14:	cc22                	sw	s0,24(sp)
     f16:	8901a783          	lw	a5,-1904(gp) # 1085c <t0_low>
     f1a:	8841a403          	lw	s0,-1916(gp) # 10850 <t1_low>
     f1e:	c256                	sw	s5,4(sp)
     f20:	c05a                	sw	s6,0(sp)
     f22:	ce06                	sw	ra,28(sp)
     f24:	ca26                	sw	s1,20(sp)
     f26:	c452                	sw	s4,8(sp)
     f28:	0287f763          	bleu	s0,a5,f56 <get_time+0x48>
     f2c:	8c1d                	sub	s0,s0,a5
     f2e:	00845793          	srli	a5,s0,0x8
     f32:	8881a703          	lw	a4,-1912(gp) # 10854 <t0_high>
     f36:	88c1a403          	lw	s0,-1908(gp) # 10858 <t1_high>
     f3a:	8c19                	sub	s0,s0,a4
     f3c:	0462                	slli	s0,s0,0x18
     f3e:	943e                	add	s0,s0,a5
     f40:	8522                	mv	a0,s0
     f42:	40f2                	lw	ra,28(sp)
     f44:	4462                	lw	s0,24(sp)
     f46:	44d2                	lw	s1,20(sp)
     f48:	4942                	lw	s2,16(sp)
     f4a:	49b2                	lw	s3,12(sp)
     f4c:	4a22                	lw	s4,8(sp)
     f4e:	4a92                	lw	s5,4(sp)
     f50:	4b02                	lw	s6,0(sp)
     f52:	6105                	addi	sp,sp,32
     f54:	8082                	ret
     f56:	00010a37          	lui	s4,0x10
     f5a:	158a0513          	addi	a0,s4,344 # 10158 <errpat+0xe0>
     f5e:	2b69                	jal	14f8 <printf>
     f60:	8841a783          	lw	a5,-1916(gp) # 10850 <t1_low>
     f64:	8901a583          	lw	a1,-1904(gp) # 1085c <t0_low>
     f68:	00010537          	lui	a0,0x10
     f6c:	15c50513          	addi	a0,a0,348 # 1015c <errpat+0xe4>
     f70:	8d9d                	sub	a1,a1,a5
     f72:	2359                	jal	14f8 <printf>
     f74:	158a0513          	addi	a0,s4,344
     f78:	8841a483          	lw	s1,-1916(gp) # 10850 <t1_low>
     f7c:	8901a403          	lw	s0,-1904(gp) # 1085c <t0_low>
     f80:	2ba5                	jal	14f8 <printf>
     f82:	8841a603          	lw	a2,-1916(gp) # 10850 <t1_low>
     f86:	8901a583          	lw	a1,-1904(gp) # 1085c <t0_low>
     f8a:	00010537          	lui	a0,0x10
     f8e:	17050513          	addi	a0,a0,368 # 10170 <errpat+0xf8>
     f92:	239d                	jal	14f8 <printf>
     f94:	158a0513          	addi	a0,s4,344
     f98:	2385                	jal	14f8 <printf>
     f9a:	8c05                	sub	s0,s0,s1
     f9c:	00845493          	srli	s1,s0,0x8
     fa0:	00010537          	lui	a0,0x10
     fa4:	85a6                	mv	a1,s1
     fa6:	18450513          	addi	a0,a0,388 # 10184 <errpat+0x10c>
     faa:	23b9                	jal	14f8 <printf>
     fac:	88c1a403          	lw	s0,-1908(gp) # 10858 <t1_high>
     fb0:	8881a783          	lw	a5,-1912(gp) # 10854 <t0_high>
     fb4:	158a0513          	addi	a0,s4,344
     fb8:	147d                	addi	s0,s0,-1
     fba:	8c1d                	sub	s0,s0,a5
     fbc:	0462                	slli	s0,s0,0x18
     fbe:	2b2d                	jal	14f8 <printf>
     fc0:	9426                	add	s0,s0,s1
     fc2:	00010537          	lui	a0,0x10
     fc6:	85a2                	mv	a1,s0
     fc8:	19450513          	addi	a0,a0,404 # 10194 <errpat+0x11c>
     fcc:	2335                	jal	14f8 <printf>
     fce:	bf8d                	j	f40 <get_time+0x32>

00000fd0 <time_in_secs>:
     fd0:	1141                	addi	sp,sp,-16
     fd2:	c606                	sw	ra,12(sp)
     fd4:	1d2010ef          	jal	ra,21a6 <__floatunsidf>
     fd8:	000107b7          	lui	a5,0x10
     fdc:	7f878793          	addi	a5,a5,2040 # 107f8 <__SDATA_BEGIN__>
     fe0:	4390                	lw	a2,0(a5)
     fe2:	43d4                	lw	a3,4(a5)
     fe4:	443000ef          	jal	ra,1c26 <__divdf3>
     fe8:	162010ef          	jal	ra,214a <__fixunsdfsi>
     fec:	40b2                	lw	ra,12(sp)
     fee:	0141                	addi	sp,sp,16
     ff0:	8082                	ret

00000ff2 <portable_init>:
     ff2:	8082                	ret

00000ff4 <iterate>:
     ff4:	1141                	addi	sp,sp,-16
     ff6:	c04a                	sw	s2,0(sp)
     ff8:	01c52903          	lw	s2,28(a0)
     ffc:	c422                	sw	s0,8(sp)
     ffe:	c226                	sw	s1,4(sp)
    1000:	c606                	sw	ra,12(sp)
    1002:	842a                	mv	s0,a0
    1004:	02052c23          	sw	zero,56(a0)
    1008:	02052e23          	sw	zero,60(a0)
    100c:	4481                	li	s1,0
    100e:	01249963          	bne	s1,s2,1020 <__stack_size+0x20>
    1012:	40b2                	lw	ra,12(sp)
    1014:	4422                	lw	s0,8(sp)
    1016:	4492                	lw	s1,4(sp)
    1018:	4902                	lw	s2,0(sp)
    101a:	4501                	li	a0,0
    101c:	0141                	addi	sp,sp,16
    101e:	8082                	ret
    1020:	4585                	li	a1,1
    1022:	8522                	mv	a0,s0
    1024:	3189                	jal	c66 <core_bench_list>
    1026:	03845583          	lhu	a1,56(s0)
    102a:	eb8ff0ef          	jal	ra,6e2 <crcu16>
    102e:	02a41c23          	sh	a0,56(s0)
    1032:	55fd                	li	a1,-1
    1034:	8522                	mv	a0,s0
    1036:	3905                	jal	c66 <core_bench_list>
    1038:	03845583          	lhu	a1,56(s0)
    103c:	ea6ff0ef          	jal	ra,6e2 <crcu16>
    1040:	02a41c23          	sh	a0,56(s0)
    1044:	e099                	bnez	s1,104a <__stack_size+0x4a>
    1046:	02a41d23          	sh	a0,58(s0)
    104a:	0485                	addi	s1,s1,1
    104c:	b7c9                	j	100e <__stack_size+0xe>

0000104e <core_init_matrix>:
    104e:	1141                	addi	sp,sp,-16
    1050:	c622                	sw	s0,12(sp)
    1052:	e211                	bnez	a2,1056 <core_init_matrix+0x8>
    1054:	4605                	li	a2,1
    1056:	4701                	li	a4,0
    1058:	4781                	li	a5,0
    105a:	04a76063          	bltu	a4,a0,109a <core_init_matrix+0x4c>
    105e:	fff78513          	addi	a0,a5,-1
    1062:	02a507b3          	mul	a5,a0,a0
    1066:	058d                	addi	a1,a1,3
    1068:	99f1                	andi	a1,a1,-4
    106a:	00151293          	slli	t0,a0,0x1
    106e:	4f01                	li	t5,0
    1070:	4305                	li	t1,1
    1072:	63c1                	lui	t2,0x10
    1074:	00179893          	slli	a7,a5,0x1
    1078:	011587b3          	add	a5,a1,a7
    107c:	8fbe                	mv	t6,a5
    107e:	40f58433          	sub	s0,a1,a5
    1082:	06af6063          	bltu	t5,a0,10e2 <core_init_matrix+0x94>
    1086:	c69c                	sw	a5,8(a3)
    1088:	97c6                	add	a5,a5,a7
    108a:	4432                	lw	s0,12(sp)
    108c:	078d                	addi	a5,a5,3
    108e:	9bf1                	andi	a5,a5,-4
    1090:	c2cc                	sw	a1,4(a3)
    1092:	c6dc                	sw	a5,12(a3)
    1094:	c288                	sw	a0,0(a3)
    1096:	0141                	addi	sp,sp,16
    1098:	8082                	ret
    109a:	0785                	addi	a5,a5,1
    109c:	02f78733          	mul	a4,a5,a5
    10a0:	070e                	slli	a4,a4,0x3
    10a2:	bf65                	j	105a <core_init_matrix+0xc>
    10a4:	03060633          	mul	a2,a2,a6
    10a8:	01081713          	slli	a4,a6,0x10
    10ac:	8341                	srli	a4,a4,0x10
    10ae:	0805                	addi	a6,a6,1
    10b0:	02766633          	rem	a2,a2,t2
    10b4:	00c70eb3          	add	t4,a4,a2
    10b8:	0ec2                	slli	t4,t4,0x10
    10ba:	010ede93          	srli	t4,t4,0x10
    10be:	9776                	add	a4,a4,t4
    10c0:	01de1023          	sh	t4,0(t3)
    10c4:	0ff77713          	andi	a4,a4,255
    10c8:	01c40eb3          	add	t4,s0,t3
    10cc:	00ee9023          	sh	a4,0(t4)
    10d0:	0e09                	addi	t3,t3,2
    10d2:	40680733          	sub	a4,a6,t1
    10d6:	fca767e3          	bltu	a4,a0,10a4 <core_init_matrix+0x56>
    10da:	0f05                	addi	t5,t5,1
    10dc:	9f96                	add	t6,t6,t0
    10de:	932a                	add	t1,t1,a0
    10e0:	b74d                	j	1082 <core_init_matrix+0x34>
    10e2:	8e7e                	mv	t3,t6
    10e4:	881a                	mv	a6,t1
    10e6:	b7f5                	j	10d2 <core_init_matrix+0x84>

000010e8 <matrix_sum>:
    10e8:	00251e13          	slli	t3,a0,0x2
    10ec:	4881                	li	a7,0
    10ee:	4781                	li	a5,0
    10f0:	4701                	li	a4,0
    10f2:	4681                	li	a3,0
    10f4:	02a89f63          	bne	a7,a0,1132 <matrix_sum+0x4a>
    10f8:	853e                	mv	a0,a5
    10fa:	8082                	ret
    10fc:	00281313          	slli	t1,a6,0x2
    1100:	932e                	add	t1,t1,a1
    1102:	00032303          	lw	t1,0(t1)
    1106:	07c2                	slli	a5,a5,0x10
    1108:	83c1                	srli	a5,a5,0x10
    110a:	969a                	add	a3,a3,t1
    110c:	00d65d63          	ble	a3,a2,1126 <matrix_sum+0x3e>
    1110:	07a9                	addi	a5,a5,10
    1112:	07c2                	slli	a5,a5,0x10
    1114:	87c1                	srai	a5,a5,0x10
    1116:	4681                	li	a3,0
    1118:	0805                	addi	a6,a6,1
    111a:	871a                	mv	a4,t1
    111c:	fea810e3          	bne	a6,a0,10fc <matrix_sum+0x14>
    1120:	0885                	addi	a7,a7,1
    1122:	95f2                	add	a1,a1,t3
    1124:	bfc1                	j	10f4 <matrix_sum+0xc>
    1126:	00672733          	slt	a4,a4,t1
    112a:	97ba                	add	a5,a5,a4
    112c:	07c2                	slli	a5,a5,0x10
    112e:	87c1                	srai	a5,a5,0x10
    1130:	b7e5                	j	1118 <matrix_sum+0x30>
    1132:	4801                	li	a6,0
    1134:	b7e5                	j	111c <matrix_sum+0x34>

00001136 <matrix_mul_const>:
    1136:	00151313          	slli	t1,a0,0x1
    113a:	00251e13          	slli	t3,a0,0x2
    113e:	4701                	li	a4,0
    1140:	02a71663          	bne	a4,a0,116c <matrix_mul_const+0x36>
    1144:	8082                	ret
    1146:	00179893          	slli	a7,a5,0x1
    114a:	98b2                	add	a7,a7,a2
    114c:	00089883          	lh	a7,0(a7)
    1150:	00279813          	slli	a6,a5,0x2
    1154:	982e                	add	a6,a6,a1
    1156:	02d888b3          	mul	a7,a7,a3
    115a:	0785                	addi	a5,a5,1
    115c:	01182023          	sw	a7,0(a6)
    1160:	fea793e3          	bne	a5,a0,1146 <matrix_mul_const+0x10>
    1164:	0705                	addi	a4,a4,1
    1166:	961a                	add	a2,a2,t1
    1168:	95f2                	add	a1,a1,t3
    116a:	bfd9                	j	1140 <matrix_mul_const+0xa>
    116c:	4781                	li	a5,0
    116e:	bfcd                	j	1160 <matrix_mul_const+0x2a>

00001170 <matrix_add_const>:
    1170:	00151893          	slli	a7,a0,0x1
    1174:	4701                	li	a4,0
    1176:	00a71f63          	bne	a4,a0,1194 <matrix_add_const+0x24>
    117a:	8082                	ret
    117c:	0007d803          	lhu	a6,0(a5)
    1180:	0685                	addi	a3,a3,1
    1182:	0789                	addi	a5,a5,2
    1184:	9832                	add	a6,a6,a2
    1186:	ff079f23          	sh	a6,-2(a5)
    118a:	fea699e3          	bne	a3,a0,117c <matrix_add_const+0xc>
    118e:	0705                	addi	a4,a4,1
    1190:	95c6                	add	a1,a1,a7
    1192:	b7d5                	j	1176 <matrix_add_const+0x6>
    1194:	87ae                	mv	a5,a1
    1196:	4681                	li	a3,0
    1198:	bfcd                	j	118a <matrix_add_const+0x1a>

0000119a <matrix_mul_vect>:
    119a:	00151313          	slli	t1,a0,0x1
    119e:	4701                	li	a4,0
    11a0:	00a71363          	bne	a4,a0,11a6 <matrix_mul_vect+0xc>
    11a4:	8082                	ret
    11a6:	0005a023          	sw	zero,0(a1)
    11aa:	4781                	li	a5,0
    11ac:	00679663          	bne	a5,t1,11b8 <matrix_mul_vect+0x1e>
    11b0:	0705                	addi	a4,a4,1
    11b2:	0591                	addi	a1,a1,4
    11b4:	961a                	add	a2,a2,t1
    11b6:	b7ed                	j	11a0 <matrix_mul_vect+0x6>
    11b8:	00f60833          	add	a6,a2,a5
    11bc:	00f688b3          	add	a7,a3,a5
    11c0:	00081803          	lh	a6,0(a6)
    11c4:	00089883          	lh	a7,0(a7)
    11c8:	0789                	addi	a5,a5,2
    11ca:	031808b3          	mul	a7,a6,a7
    11ce:	0005a803          	lw	a6,0(a1)
    11d2:	9846                	add	a6,a6,a7
    11d4:	0105a023          	sw	a6,0(a1)
    11d8:	bfd1                	j	11ac <matrix_mul_vect+0x12>

000011da <matrix_mul_matrix>:
    11da:	00251f93          	slli	t6,a0,0x2
    11de:	00151f13          	slli	t5,a0,0x1
    11e2:	4301                	li	t1,0
    11e4:	04a31463          	bne	t1,a0,122c <matrix_mul_matrix+0x52>
    11e8:	8082                	ret
    11ea:	00181713          	slli	a4,a6,0x1
    11ee:	0007a023          	sw	zero,0(a5)
    11f2:	9736                	add	a4,a4,a3
    11f4:	4881                	li	a7,0
    11f6:	00a89a63          	bne	a7,a0,120a <matrix_mul_matrix+0x30>
    11fa:	0805                	addi	a6,a6,1
    11fc:	0791                	addi	a5,a5,4
    11fe:	fea816e3          	bne	a6,a0,11ea <matrix_mul_matrix+0x10>
    1202:	0305                	addi	t1,t1,1
    1204:	95fe                	add	a1,a1,t6
    1206:	967a                	add	a2,a2,t5
    1208:	bff1                	j	11e4 <matrix_mul_matrix+0xa>
    120a:	00189e13          	slli	t3,a7,0x1
    120e:	9e32                	add	t3,t3,a2
    1210:	000e1e03          	lh	t3,0(t3)
    1214:	00071e83          	lh	t4,0(a4)
    1218:	0885                	addi	a7,a7,1
    121a:	977a                	add	a4,a4,t5
    121c:	03de0eb3          	mul	t4,t3,t4
    1220:	0007ae03          	lw	t3,0(a5)
    1224:	9e76                	add	t3,t3,t4
    1226:	01c7a023          	sw	t3,0(a5)
    122a:	b7f1                	j	11f6 <matrix_mul_matrix+0x1c>
    122c:	87ae                	mv	a5,a1
    122e:	4801                	li	a6,0
    1230:	b7f9                	j	11fe <matrix_mul_matrix+0x24>

00001232 <matrix_mul_matrix_bitextract>:
    1232:	00251f93          	slli	t6,a0,0x2
    1236:	00151f13          	slli	t5,a0,0x1
    123a:	4e81                	li	t4,0
    123c:	04ae9c63          	bne	t4,a0,1294 <matrix_mul_matrix_bitextract+0x62>
    1240:	8082                	ret
    1242:	00131813          	slli	a6,t1,0x1
    1246:	00072023          	sw	zero,0(a4)
    124a:	9836                	add	a6,a6,a3
    124c:	4e01                	li	t3,0
    124e:	00ae1a63          	bne	t3,a0,1262 <matrix_mul_matrix_bitextract+0x30>
    1252:	0305                	addi	t1,t1,1
    1254:	0711                	addi	a4,a4,4
    1256:	fea316e3          	bne	t1,a0,1242 <matrix_mul_matrix_bitextract+0x10>
    125a:	0e85                	addi	t4,t4,1
    125c:	95fe                	add	a1,a1,t6
    125e:	967a                	add	a2,a2,t5
    1260:	bff1                	j	123c <matrix_mul_matrix_bitextract+0xa>
    1262:	001e1793          	slli	a5,t3,0x1
    1266:	97b2                	add	a5,a5,a2
    1268:	00081883          	lh	a7,0(a6)
    126c:	00079783          	lh	a5,0(a5)
    1270:	0e05                	addi	t3,t3,1
    1272:	987a                	add	a6,a6,t5
    1274:	031787b3          	mul	a5,a5,a7
    1278:	4027d893          	srai	a7,a5,0x2
    127c:	8795                	srai	a5,a5,0x5
    127e:	00f8f893          	andi	a7,a7,15
    1282:	07f7f793          	andi	a5,a5,127
    1286:	02f887b3          	mul	a5,a7,a5
    128a:	00072883          	lw	a7,0(a4)
    128e:	97c6                	add	a5,a5,a7
    1290:	c31c                	sw	a5,0(a4)
    1292:	bf75                	j	124e <matrix_mul_matrix_bitextract+0x1c>
    1294:	872e                	mv	a4,a1
    1296:	4301                	li	t1,0
    1298:	bf7d                	j	1256 <matrix_mul_matrix_bitextract+0x24>

0000129a <matrix_test>:
    129a:	1101                	addi	sp,sp,-32
    129c:	c84a                	sw	s2,16(sp)
    129e:	8932                	mv	s2,a2
    12a0:	ca26                	sw	s1,20(sp)
    12a2:	863a                	mv	a2,a4
    12a4:	c452                	sw	s4,8(sp)
    12a6:	84ae                	mv	s1,a1
    12a8:	7a7d                	lui	s4,0xfffff
    12aa:	85ca                	mv	a1,s2
    12ac:	ce06                	sw	ra,28(sp)
    12ae:	01476a33          	or	s4,a4,s4
    12b2:	cc22                	sw	s0,24(sp)
    12b4:	c64e                	sw	s3,12(sp)
    12b6:	c256                	sw	s5,4(sp)
    12b8:	89ba                	mv	s3,a4
    12ba:	c05a                	sw	s6,0(sp)
    12bc:	842a                	mv	s0,a0
    12be:	8ab6                	mv	s5,a3
    12c0:	3d45                	jal	1170 <matrix_add_const>
    12c2:	86ce                	mv	a3,s3
    12c4:	864a                	mv	a2,s2
    12c6:	85a6                	mv	a1,s1
    12c8:	8522                	mv	a0,s0
    12ca:	35b5                	jal	1136 <matrix_mul_const>
    12cc:	8652                	mv	a2,s4
    12ce:	85a6                	mv	a1,s1
    12d0:	8522                	mv	a0,s0
    12d2:	3d19                	jal	10e8 <matrix_sum>
    12d4:	4581                	li	a1,0
    12d6:	c44ff0ef          	jal	ra,71a <crc16>
    12da:	86d6                	mv	a3,s5
    12dc:	8b2a                	mv	s6,a0
    12de:	864a                	mv	a2,s2
    12e0:	85a6                	mv	a1,s1
    12e2:	8522                	mv	a0,s0
    12e4:	3d5d                	jal	119a <matrix_mul_vect>
    12e6:	8652                	mv	a2,s4
    12e8:	85a6                	mv	a1,s1
    12ea:	8522                	mv	a0,s0
    12ec:	3bf5                	jal	10e8 <matrix_sum>
    12ee:	85da                	mv	a1,s6
    12f0:	c2aff0ef          	jal	ra,71a <crc16>
    12f4:	86d6                	mv	a3,s5
    12f6:	8b2a                	mv	s6,a0
    12f8:	864a                	mv	a2,s2
    12fa:	85a6                	mv	a1,s1
    12fc:	8522                	mv	a0,s0
    12fe:	3df1                	jal	11da <matrix_mul_matrix>
    1300:	8652                	mv	a2,s4
    1302:	85a6                	mv	a1,s1
    1304:	8522                	mv	a0,s0
    1306:	33cd                	jal	10e8 <matrix_sum>
    1308:	85da                	mv	a1,s6
    130a:	c10ff0ef          	jal	ra,71a <crc16>
    130e:	86d6                	mv	a3,s5
    1310:	8b2a                	mv	s6,a0
    1312:	864a                	mv	a2,s2
    1314:	85a6                	mv	a1,s1
    1316:	8522                	mv	a0,s0
    1318:	3f29                	jal	1232 <matrix_mul_matrix_bitextract>
    131a:	8652                	mv	a2,s4
    131c:	85a6                	mv	a1,s1
    131e:	8522                	mv	a0,s0
    1320:	33e1                	jal	10e8 <matrix_sum>
    1322:	85da                	mv	a1,s6
    1324:	bf6ff0ef          	jal	ra,71a <crc16>
    1328:	41300633          	neg	a2,s3
    132c:	0642                	slli	a2,a2,0x10
    132e:	84aa                	mv	s1,a0
    1330:	85ca                	mv	a1,s2
    1332:	8522                	mv	a0,s0
    1334:	8641                	srai	a2,a2,0x10
    1336:	3d2d                	jal	1170 <matrix_add_const>
    1338:	40f2                	lw	ra,28(sp)
    133a:	4462                	lw	s0,24(sp)
    133c:	01049513          	slli	a0,s1,0x10
    1340:	4942                	lw	s2,16(sp)
    1342:	44d2                	lw	s1,20(sp)
    1344:	49b2                	lw	s3,12(sp)
    1346:	4a22                	lw	s4,8(sp)
    1348:	4a92                	lw	s5,4(sp)
    134a:	4b02                	lw	s6,0(sp)
    134c:	8541                	srai	a0,a0,0x10
    134e:	6105                	addi	sp,sp,32
    1350:	8082                	ret

00001352 <core_bench_matrix>:
    1352:	1141                	addi	sp,sp,-16
    1354:	c422                	sw	s0,8(sp)
    1356:	872e                	mv	a4,a1
    1358:	8432                	mv	s0,a2
    135a:	454c                	lw	a1,12(a0)
    135c:	4514                	lw	a3,8(a0)
    135e:	4150                	lw	a2,4(a0)
    1360:	4108                	lw	a0,0(a0)
    1362:	c606                	sw	ra,12(sp)
    1364:	3f1d                	jal	129a <matrix_test>
    1366:	85a2                	mv	a1,s0
    1368:	4422                	lw	s0,8(sp)
    136a:	40b2                	lw	ra,12(sp)
    136c:	0141                	addi	sp,sp,16
    136e:	bacff06f          	j	71a <crc16>

00001372 <print_chr>:
    1372:	100107b7          	lui	a5,0x10010
    1376:	c3c8                	sw	a0,4(a5)
    1378:	8082                	ret

0000137a <print_str>:
    137a:	10010737          	lui	a4,0x10010
    137e:	00054783          	lbu	a5,0(a0)
    1382:	e391                	bnez	a5,1386 <print_str+0xc>
    1384:	8082                	ret
    1386:	0505                	addi	a0,a0,1
    1388:	c35c                	sw	a5,4(a4)
    138a:	bfd5                	j	137e <print_str+0x4>

0000138c <print_dec>:
    138c:	1141                	addi	sp,sp,-16
    138e:	005c                	addi	a5,sp,4
    1390:	86be                	mv	a3,a5
    1392:	4629                	li	a2,10
    1394:	ed19                	bnez	a0,13b2 <print_dec+0x26>
    1396:	00d78e63          	beq	a5,a3,13b2 <print_dec+0x26>
    139a:	10010637          	lui	a2,0x10010
    139e:	17fd                	addi	a5,a5,-1
    13a0:	0007c703          	lbu	a4,0(a5) # 10010000 <_sp+0xfffdfd0>
    13a4:	03070713          	addi	a4,a4,48 # 10010030 <_sp+0xfffe000>
    13a8:	c258                	sw	a4,4(a2)
    13aa:	fed79ae3          	bne	a5,a3,139e <print_dec+0x12>
    13ae:	0141                	addi	sp,sp,16
    13b0:	8082                	ret
    13b2:	02c57733          	remu	a4,a0,a2
    13b6:	0785                	addi	a5,a5,1
    13b8:	fee78fa3          	sb	a4,-1(a5)
    13bc:	02c55533          	divu	a0,a0,a2
    13c0:	bfd1                	j	1394 <print_dec+0x8>

000013c2 <print_hex>:
    13c2:	15fd                	addi	a1,a1,-1
    13c4:	00010737          	lui	a4,0x10
    13c8:	058a                	slli	a1,a1,0x2
    13ca:	5a070713          	addi	a4,a4,1440 # 105a0 <state_known_crc+0x3e4>
    13ce:	100106b7          	lui	a3,0x10010
    13d2:	0005d363          	bgez	a1,13d8 <print_hex+0x16>
    13d6:	8082                	ret
    13d8:	00b557b3          	srl	a5,a0,a1
    13dc:	8bbd                	andi	a5,a5,15
    13de:	97ba                	add	a5,a5,a4
    13e0:	0007c783          	lbu	a5,0(a5)
    13e4:	15f1                	addi	a1,a1,-4
    13e6:	c2dc                	sw	a5,4(a3)
    13e8:	b7ed                	j	13d2 <print_hex+0x10>

000013ea <print>:
    13ea:	7179                	addi	sp,sp,-48
    13ec:	d422                	sw	s0,40(sp)
    13ee:	d226                	sw	s1,36(sp)
    13f0:	d04a                	sw	s2,32(sp)
    13f2:	ce4e                	sw	s3,28(sp)
    13f4:	cc52                	sw	s4,24(sp)
    13f6:	ca56                	sw	s5,20(sp)
    13f8:	c85a                	sw	s6,16(sp)
    13fa:	c65e                	sw	s7,12(sp)
    13fc:	d606                	sw	ra,44(sp)
    13fe:	c462                	sw	s8,8(sp)
    1400:	842a                	mv	s0,a0
    1402:	87ae                	mv	a5,a1
    1404:	4481                	li	s1,0
    1406:	02500913          	li	s2,37
    140a:	100109b7          	lui	s3,0x10010
    140e:	02d00a13          	li	s4,45
    1412:	03000a93          	li	s5,48
    1416:	4b25                	li	s6,9
    1418:	4ba9                	li	s7,10
    141a:	00044703          	lbu	a4,0(s0)
    141e:	ef11                	bnez	a4,143a <print+0x50>
    1420:	50b2                	lw	ra,44(sp)
    1422:	5422                	lw	s0,40(sp)
    1424:	8526                	mv	a0,s1
    1426:	5902                	lw	s2,32(sp)
    1428:	5492                	lw	s1,36(sp)
    142a:	49f2                	lw	s3,28(sp)
    142c:	4a62                	lw	s4,24(sp)
    142e:	4ad2                	lw	s5,20(sp)
    1430:	4b42                	lw	s6,16(sp)
    1432:	4bb2                	lw	s7,12(sp)
    1434:	4c22                	lw	s8,8(sp)
    1436:	6145                	addi	sp,sp,48
    1438:	8082                	ret
    143a:	0b271863          	bne	a4,s2,14ea <print+0x100>
    143e:	00144683          	lbu	a3,1(s0)
    1442:	def9                	beqz	a3,1420 <print+0x36>
    1444:	00140713          	addi	a4,s0,1
    1448:	0b268063          	beq	a3,s2,14e8 <print+0xfe>
    144c:	01469463          	bne	a3,s4,1454 <print+0x6a>
    1450:	00240713          	addi	a4,s0,2
    1454:	843a                	mv	s0,a4
    1456:	00044703          	lbu	a4,0(s0)
    145a:	00140693          	addi	a3,s0,1
    145e:	03570863          	beq	a4,s5,148e <print+0xa4>
    1462:	4581                	li	a1,0
    1464:	00044703          	lbu	a4,0(s0)
    1468:	00140513          	addi	a0,s0,1
    146c:	fd070693          	addi	a3,a4,-48
    1470:	0ff6f613          	andi	a2,a3,255
    1474:	00cb7f63          	bleu	a2,s6,1492 <print+0xa8>
    1478:	07300693          	li	a3,115
    147c:	02d71063          	bne	a4,a3,149c <print+0xb2>
    1480:	4388                	lw	a0,0(a5)
    1482:	00478c13          	addi	s8,a5,4
    1486:	3dd5                	jal	137a <print_str>
    1488:	87e2                	mv	a5,s8
    148a:	0405                	addi	s0,s0,1
    148c:	b779                	j	141a <print+0x30>
    148e:	8436                	mv	s0,a3
    1490:	b7d9                	j	1456 <print+0x6c>
    1492:	037585b3          	mul	a1,a1,s7
    1496:	842a                	mv	s0,a0
    1498:	95b6                	add	a1,a1,a3
    149a:	b7e9                	j	1464 <print+0x7a>
    149c:	06400693          	li	a3,100
    14a0:	00d71863          	bne	a4,a3,14b0 <print+0xc6>
    14a4:	4388                	lw	a0,0(a5)
    14a6:	00478c13          	addi	s8,a5,4
    14aa:	35cd                	jal	138c <print_dec>
    14ac:	0485                	addi	s1,s1,1
    14ae:	bfe9                	j	1488 <print+0x9e>
    14b0:	07800693          	li	a3,120
    14b4:	00d71763          	bne	a4,a3,14c2 <print+0xd8>
    14b8:	4388                	lw	a0,0(a5)
    14ba:	00478c13          	addi	s8,a5,4
    14be:	3711                	jal	13c2 <print_hex>
    14c0:	b7f5                	j	14ac <print+0xc2>
    14c2:	05800693          	li	a3,88
    14c6:	fed709e3          	beq	a4,a3,14b8 <print+0xce>
    14ca:	07500693          	li	a3,117
    14ce:	fcd70be3          	beq	a4,a3,14a4 <print+0xba>
    14d2:	06300693          	li	a3,99
    14d6:	fad71ae3          	bne	a4,a3,148a <print+0xa0>
    14da:	0007c703          	lbu	a4,0(a5)
    14de:	0485                	addi	s1,s1,1
    14e0:	0791                	addi	a5,a5,4
    14e2:	00e9a223          	sw	a4,4(s3) # 10010004 <_sp+0xfffdfd4>
    14e6:	b755                	j	148a <print+0xa0>
    14e8:	843a                	mv	s0,a4
    14ea:	00044703          	lbu	a4,0(s0)
    14ee:	0485                	addi	s1,s1,1
    14f0:	00e9a223          	sw	a4,4(s3)
    14f4:	bf59                	j	148a <print+0xa0>

000014f6 <print_void>:
    14f6:	8082                	ret

000014f8 <printf>:
    14f8:	7139                	addi	sp,sp,-64
    14fa:	d22e                	sw	a1,36(sp)
    14fc:	104c                	addi	a1,sp,36
    14fe:	ce06                	sw	ra,28(sp)
    1500:	d432                	sw	a2,40(sp)
    1502:	d636                	sw	a3,44(sp)
    1504:	d83a                	sw	a4,48(sp)
    1506:	da3e                	sw	a5,52(sp)
    1508:	dc42                	sw	a6,56(sp)
    150a:	de46                	sw	a7,60(sp)
    150c:	c62e                	sw	a1,12(sp)
    150e:	3df1                	jal	13ea <print>
    1510:	40f2                	lw	ra,28(sp)
    1512:	6121                	addi	sp,sp,64
    1514:	8082                	ret

00001516 <sys_gettime>:
    1516:	100407b7          	lui	a5,0x10040
    151a:	03078713          	addi	a4,a5,48 # 10040030 <_sp+0x1002e000>
    151e:	5b9c                	lw	a5,48(a5)
    1520:	c15c                	sw	a5,4(a0)
    1522:	435c                	lw	a5,4(a4)
    1524:	c11c                	sw	a5,0(a0)
    1526:	8082                	ret

00001528 <time>:
    1528:	b0002573          	csrr	a0,0xb00
    152c:	8082                	ret

0000152e <insn>:
    152e:	b0002573          	csrr	a0,0xb00
    1532:	8082                	ret

00001534 <memcpy>:
    1534:	962a                	add	a2,a2,a0
    1536:	87aa                	mv	a5,a0
    1538:	00c79363          	bne	a5,a2,153e <memcpy+0xa>
    153c:	8082                	ret
    153e:	0585                	addi	a1,a1,1
    1540:	fff5c703          	lbu	a4,-1(a1)
    1544:	0785                	addi	a5,a5,1
    1546:	fee78fa3          	sb	a4,-1(a5)
    154a:	b7fd                	j	1538 <memcpy+0x4>

0000154c <memset>:
    154c:	962a                	add	a2,a2,a0
    154e:	87aa                	mv	a5,a0
    1550:	00c79363          	bne	a5,a2,1556 <memset+0xa>
    1554:	8082                	ret
    1556:	00b78023          	sb	a1,0(a5)
    155a:	0785                	addi	a5,a5,1
    155c:	bfd5                	j	1550 <memset+0x4>

0000155e <memcmp>:
    155e:	ce11                	beqz	a2,157a <memcmp+0x1c>
    1560:	00150793          	addi	a5,a0,1
    1564:	9532                	add	a0,a0,a2
    1566:	fff7c603          	lbu	a2,-1(a5)
    156a:	0005c703          	lbu	a4,0(a1)
    156e:	00a78563          	beq	a5,a0,1578 <memcmp+0x1a>
    1572:	0785                	addi	a5,a5,1
    1574:	00e60563          	beq	a2,a4,157e <memcmp+0x20>
    1578:	8e19                	sub	a2,a2,a4
    157a:	8532                	mv	a0,a2
    157c:	8082                	ret
    157e:	0585                	addi	a1,a1,1
    1580:	b7dd                	j	1566 <memcmp+0x8>

00001582 <memmove>:
    1582:	00b57e63          	bleu	a1,a0,159e <memmove+0x1c>
    1586:	962a                	add	a2,a2,a0
    1588:	87aa                	mv	a5,a0
    158a:	00c79363          	bne	a5,a2,1590 <memmove+0xe>
    158e:	8082                	ret
    1590:	0585                	addi	a1,a1,1
    1592:	fff5c703          	lbu	a4,-1(a1)
    1596:	0785                	addi	a5,a5,1
    1598:	fee78fa3          	sb	a4,-1(a5)
    159c:	b7fd                	j	158a <memmove+0x8>
    159e:	00a5fa63          	bleu	a0,a1,15b2 <memmove+0x30>
    15a2:	fff60793          	addi	a5,a2,-1 # 1000ffff <_sp+0xfffdfcf>
    15a6:	95be                	add	a1,a1,a5
    15a8:	97aa                	add	a5,a5,a0
    15aa:	8e1d                	sub	a2,a2,a5
    15ac:	00c78733          	add	a4,a5,a2
    15b0:	e311                	bnez	a4,15b4 <memmove+0x32>
    15b2:	8082                	ret
    15b4:	15fd                	addi	a1,a1,-1
    15b6:	0015c703          	lbu	a4,1(a1)
    15ba:	17fd                	addi	a5,a5,-1
    15bc:	00e780a3          	sb	a4,1(a5)
    15c0:	b7f5                	j	15ac <memmove+0x2a>

000015c2 <strnlen>:
    15c2:	872a                	mv	a4,a0
    15c4:	95aa                	add	a1,a1,a0
    15c6:	87aa                	mv	a5,a0
    15c8:	40e78533          	sub	a0,a5,a4
    15cc:	00b78563          	beq	a5,a1,15d6 <strnlen+0x14>
    15d0:	0007c683          	lbu	a3,0(a5)
    15d4:	e291                	bnez	a3,15d8 <strnlen+0x16>
    15d6:	8082                	ret
    15d8:	0785                	addi	a5,a5,1
    15da:	b7fd                	j	15c8 <strnlen+0x6>

000015dc <strlen>:
    15dc:	87aa                	mv	a5,a0
    15de:	0785                	addi	a5,a5,1
    15e0:	fff7c703          	lbu	a4,-1(a5)
    15e4:	ff6d                	bnez	a4,15de <strlen+0x2>
    15e6:	40a78533          	sub	a0,a5,a0
    15ea:	157d                	addi	a0,a0,-1
    15ec:	8082                	ret

000015ee <strcpy>:
    15ee:	872a                	mv	a4,a0
    15f0:	00b767b3          	or	a5,a4,a1
    15f4:	8b8d                	andi	a5,a5,3
    15f6:	efa9                	bnez	a5,1650 <strcpy+0x62>
    15f8:	feff0637          	lui	a2,0xfeff0
    15fc:	80808837          	lui	a6,0x80808
    1600:	eff60613          	addi	a2,a2,-257 # fefefeff <pulp__FC+0xfefeff00>
    1604:	08080813          	addi	a6,a6,128 # 80808080 <pulp__FC+0x80808081>
    1608:	419c                	lw	a5,0(a1)
    160a:	00c786b3          	add	a3,a5,a2
    160e:	fff7c893          	not	a7,a5
    1612:	0116f6b3          	and	a3,a3,a7
    1616:	0106f6b3          	and	a3,a3,a6
    161a:	c2b9                	beqz	a3,1660 <strcpy+0x72>
    161c:	86be                	mv	a3,a5
    161e:	00d70023          	sb	a3,0(a4)
    1622:	0ff7f693          	andi	a3,a5,255
    1626:	ce85                	beqz	a3,165e <strcpy+0x70>
    1628:	0087d693          	srli	a3,a5,0x8
    162c:	8636                	mv	a2,a3
    162e:	00c700a3          	sb	a2,1(a4)
    1632:	0ff6f693          	andi	a3,a3,255
    1636:	c685                	beqz	a3,165e <strcpy+0x70>
    1638:	0107d693          	srli	a3,a5,0x10
    163c:	8636                	mv	a2,a3
    163e:	00c70123          	sb	a2,2(a4)
    1642:	0ff6f693          	andi	a3,a3,255
    1646:	ce81                	beqz	a3,165e <strcpy+0x70>
    1648:	83e1                	srli	a5,a5,0x18
    164a:	00f701a3          	sb	a5,3(a4)
    164e:	8082                	ret
    1650:	0585                	addi	a1,a1,1
    1652:	fff5c783          	lbu	a5,-1(a1)
    1656:	0705                	addi	a4,a4,1
    1658:	fef70fa3          	sb	a5,-1(a4)
    165c:	fbd1                	bnez	a5,15f0 <strcpy+0x2>
    165e:	8082                	ret
    1660:	c31c                	sw	a5,0(a4)
    1662:	0591                	addi	a1,a1,4
    1664:	0711                	addi	a4,a4,4
    1666:	b74d                	j	1608 <strcpy+0x1a>

00001668 <strcmp>:
    1668:	00b567b3          	or	a5,a0,a1
    166c:	8b8d                	andi	a5,a5,3
    166e:	eb85                	bnez	a5,169e <strcmp+0x36>
    1670:	feff06b7          	lui	a3,0xfeff0
    1674:	80808637          	lui	a2,0x80808
    1678:	eff68693          	addi	a3,a3,-257 # fefefeff <pulp__FC+0xfefeff00>
    167c:	08060613          	addi	a2,a2,128 # 80808080 <pulp__FC+0x80808081>
    1680:	411c                	lw	a5,0(a0)
    1682:	4198                	lw	a4,0(a1)
    1684:	06e78d63          	beq	a5,a4,16fe <strcmp+0x96>
    1688:	0ff7f693          	andi	a3,a5,255
    168c:	0ff77613          	andi	a2,a4,255
    1690:	02c68763          	beq	a3,a2,16be <strcmp+0x56>
    1694:	4505                	li	a0,1
    1696:	06c6f363          	bleu	a2,a3,16fc <strcmp+0x94>
    169a:	557d                	li	a0,-1
    169c:	8082                	ret
    169e:	0505                	addi	a0,a0,1
    16a0:	0585                	addi	a1,a1,1
    16a2:	fff54783          	lbu	a5,-1(a0)
    16a6:	fff5c703          	lbu	a4,-1(a1)
    16aa:	00e78763          	beq	a5,a4,16b8 <strcmp+0x50>
    16ae:	557d                	li	a0,-1
    16b0:	04e7e663          	bltu	a5,a4,16fc <strcmp+0x94>
    16b4:	4505                	li	a0,1
    16b6:	8082                	ret
    16b8:	fbc5                	bnez	a5,1668 <strcmp>
    16ba:	4501                	li	a0,0
    16bc:	a081                	j	16fc <strcmp+0x94>
    16be:	4501                	li	a0,0
    16c0:	ce95                	beqz	a3,16fc <strcmp+0x94>
    16c2:	0087d693          	srli	a3,a5,0x8
    16c6:	00875613          	srli	a2,a4,0x8
    16ca:	0ff6f693          	andi	a3,a3,255
    16ce:	0ff67613          	andi	a2,a2,255
    16d2:	fcc691e3          	bne	a3,a2,1694 <strcmp+0x2c>
    16d6:	c29d                	beqz	a3,16fc <strcmp+0x94>
    16d8:	0107d693          	srli	a3,a5,0x10
    16dc:	01075613          	srli	a2,a4,0x10
    16e0:	0ff6f693          	andi	a3,a3,255
    16e4:	0ff67613          	andi	a2,a2,255
    16e8:	fac696e3          	bne	a3,a2,1694 <strcmp+0x2c>
    16ec:	ca81                	beqz	a3,16fc <strcmp+0x94>
    16ee:	83e1                	srli	a5,a5,0x18
    16f0:	8361                	srli	a4,a4,0x18
    16f2:	00e78563          	beq	a5,a4,16fc <strcmp+0x94>
    16f6:	4505                	li	a0,1
    16f8:	fae7e1e3          	bltu	a5,a4,169a <strcmp+0x32>
    16fc:	8082                	ret
    16fe:	00d78733          	add	a4,a5,a3
    1702:	fff7c793          	not	a5,a5
    1706:	8ff9                	and	a5,a5,a4
    1708:	8ff1                	and	a5,a5,a2
    170a:	fbc5                	bnez	a5,16ba <strcmp+0x52>
    170c:	0511                	addi	a0,a0,4
    170e:	0591                	addi	a1,a1,4
    1710:	bf85                	j	1680 <strcmp+0x18>

00001712 <strncmp>:
    1712:	87aa                	mv	a5,a0
    1714:	40a78733          	sub	a4,a5,a0
    1718:	00c75e63          	ble	a2,a4,1734 <strncmp+0x22>
    171c:	0007c683          	lbu	a3,0(a5)
    1720:	0005c703          	lbu	a4,0(a1)
    1724:	00d76a63          	bltu	a4,a3,1738 <strncmp+0x26>
    1728:	00e6ea63          	bltu	a3,a4,173c <strncmp+0x2a>
    172c:	c681                	beqz	a3,1734 <strncmp+0x22>
    172e:	0785                	addi	a5,a5,1
    1730:	0585                	addi	a1,a1,1
    1732:	f36d                	bnez	a4,1714 <strncmp+0x2>
    1734:	4501                	li	a0,0
    1736:	8082                	ret
    1738:	4505                	li	a0,1
    173a:	8082                	ret
    173c:	557d                	li	a0,-1
    173e:	8082                	ret

00001740 <atoi>:
    1740:	02000713          	li	a4,32
    1744:	00054783          	lbu	a5,0(a0)
    1748:	02e78063          	beq	a5,a4,1768 <atoi+0x28>
    174c:	02d00713          	li	a4,45
    1750:	00e78e63          	beq	a5,a4,176c <atoi+0x2c>
    1754:	02b00713          	li	a4,43
    1758:	4681                	li	a3,0
    175a:	00e79363          	bne	a5,a4,1760 <atoi+0x20>
    175e:	0505                	addi	a0,a0,1
    1760:	4781                	li	a5,0
    1762:	45a5                	li	a1,9
    1764:	4829                	li	a6,10
    1766:	a819                	j	177c <atoi+0x3c>
    1768:	0505                	addi	a0,a0,1
    176a:	bfe9                	j	1744 <atoi+0x4>
    176c:	4685                	li	a3,1
    176e:	bfc5                	j	175e <atoi+0x1e>
    1770:	030787b3          	mul	a5,a5,a6
    1774:	0505                	addi	a0,a0,1
    1776:	97b2                	add	a5,a5,a2
    1778:	fd078793          	addi	a5,a5,-48
    177c:	00054603          	lbu	a2,0(a0)
    1780:	fd060713          	addi	a4,a2,-48
    1784:	0ff77713          	andi	a4,a4,255
    1788:	fee5f4e3          	bleu	a4,a1,1770 <atoi+0x30>
    178c:	557d                	li	a0,-1
    178e:	e291                	bnez	a3,1792 <atoi+0x52>
    1790:	4505                	li	a0,1
    1792:	02a78533          	mul	a0,a5,a0
    1796:	8082                	ret

00001798 <uart_echo>:
    1798:	100107b7          	lui	a5,0x10010
    179c:	438c                	lw	a1,0(a5)
    179e:	1141                	addi	sp,sp,-16
    17a0:	c422                	sw	s0,8(sp)
    17a2:	c226                	sw	s1,4(sp)
    17a4:	c04a                	sw	s2,0(sp)
    17a6:	c606                	sw	ra,12(sp)
    17a8:	80000437          	lui	s0,0x80000
    17ac:	000104b7          	lui	s1,0x10
    17b0:	10010937          	lui	s2,0x10010
    17b4:	00859863          	bne	a1,s0,17c4 <uart_echo+0x2c>
    17b8:	40b2                	lw	ra,12(sp)
    17ba:	4422                	lw	s0,8(sp)
    17bc:	4492                	lw	s1,4(sp)
    17be:	4902                	lw	s2,0(sp)
    17c0:	0141                	addi	sp,sp,16
    17c2:	8082                	ret
    17c4:	0ff5f593          	andi	a1,a1,255
    17c8:	5b448513          	addi	a0,s1,1460 # 105b4 <state_known_crc+0x3f8>
    17cc:	3335                	jal	14f8 <printf>
    17ce:	00092583          	lw	a1,0(s2) # 10010000 <_sp+0xfffdfd0>
    17d2:	b7cd                	j	17b4 <uart_echo+0x1c>

000017d4 <uart_irq_handler>:
    17d4:	b7d1                	j	1798 <uart_echo>

000017d6 <dma_irq_handler>:
    17d6:	100707b7          	lui	a5,0x10070
    17da:	439c                	lw	a5,0(a5)
    17dc:	800006b7          	lui	a3,0x80000
    17e0:	10070737          	lui	a4,0x10070
    17e4:	4605                	li	a2,1
    17e6:	00d79363          	bne	a5,a3,17ec <dma_irq_handler+0x16>
    17ea:	8082                	ret
    17ec:	0007d363          	bgez	a5,17f2 <dma_irq_handler+0x1c>
    17f0:	cf10                	sw	a2,24(a4)
    17f2:	431c                	lw	a5,0(a4)
    17f4:	bfcd                	j	17e6 <dma_irq_handler+0x10>

000017f6 <time_irq_handler>:
    17f6:	8701a703          	lw	a4,-1936(gp) # 1083c <timer_irq_count>
    17fa:	00010537          	lui	a0,0x10
    17fe:	5bc50513          	addi	a0,a0,1468 # 105bc <state_known_crc+0x400>
    1802:	0705                	addi	a4,a4,1
    1804:	86e1a823          	sw	a4,-1936(gp) # 1083c <timer_irq_count>
    1808:	8701a583          	lw	a1,-1936(gp) # 1083c <timer_irq_count>
    180c:	b1f5                	j	14f8 <printf>

0000180e <irq_puts>:
    180e:	85aa                	mv	a1,a0
    1810:	00010537          	lui	a0,0x10
    1814:	5cc50513          	addi	a0,a0,1484 # 105cc <state_known_crc+0x410>
    1818:	b1c5                	j	14f8 <printf>

0000181a <mstatus_enable>:
    181a:	300027f3          	csrr	a5,mstatus
    181e:	84f1a423          	sw	a5,-1976(gp) # 10814 <mmstatus>
    1822:	8481a683          	lw	a3,-1976(gp) # 10814 <mmstatus>
    1826:	4785                	li	a5,1
    1828:	00a79533          	sll	a0,a5,a0
    182c:	8d55                	or	a0,a0,a3
    182e:	84a1a423          	sw	a0,-1976(gp) # 10814 <mmstatus>
    1832:	8481a783          	lw	a5,-1976(gp) # 10814 <mmstatus>
    1836:	30079073          	csrw	mstatus,a5
    183a:	8082                	ret

0000183c <mstatus_disable>:
    183c:	300027f3          	csrr	a5,mstatus
    1840:	84f1a423          	sw	a5,-1976(gp) # 10814 <mmstatus>
    1844:	8481a683          	lw	a3,-1976(gp) # 10814 <mmstatus>
    1848:	4785                	li	a5,1
    184a:	00a79533          	sll	a0,a5,a0
    184e:	fff54513          	not	a0,a0
    1852:	8d75                	and	a0,a0,a3
    1854:	84a1a423          	sw	a0,-1976(gp) # 10814 <mmstatus>
    1858:	8481a783          	lw	a5,-1976(gp) # 10814 <mmstatus>
    185c:	30079073          	csrw	mstatus,a5
    1860:	8082                	ret

00001862 <irq_init>:
    1862:	577d                	li	a4,-1
    1864:	1141                	addi	sp,sp,-16
    1866:	84e1a623          	sw	a4,-1972(gp) # 10818 <ie_mask32_std>
    186a:	c606                	sw	ra,12(sp)
    186c:	84c1a783          	lw	a5,-1972(gp) # 10818 <ie_mask32_std>
    1870:	30479073          	csrw	0x304,a5
    1874:	450d                	li	a0,3
    1876:	37d9                	jal	183c <mstatus_disable>
    1878:	40b2                	lw	ra,12(sp)
    187a:	450d                	li	a0,3
    187c:	0141                	addi	sp,sp,16
    187e:	bf71                	j	181a <mstatus_enable>

00001880 <rv_recv>:
    1880:	10070737          	lui	a4,0x10070
    1884:	435c                	lw	a5,4(a4)
    1886:	800006b7          	lui	a3,0x80000
    188a:	02d78563          	beq	a5,a3,18b4 <rv_recv+0x34>
    188e:	00072c23          	sw	zero,24(a4) # 10070018 <_sp+0x1005dfe8>
    1892:	02000693          	li	a3,32
    1896:	c714                	sw	a3,8(a4)
    1898:	07c2                	slli	a5,a5,0x10
    189a:	85018693          	addi	a3,gp,-1968 # 1081c <meta_buffer>
    189e:	83c1                	srli	a5,a5,0x10
    18a0:	c754                	sw	a3,12(a4)
    18a2:	1781                	addi	a5,a5,-32
    18a4:	c71c                	sw	a5,8(a4)
    18a6:	c748                	sw	a0,12(a4)
    18a8:	100706b7          	lui	a3,0x10070
    18ac:	4e98                	lw	a4,24(a3)
    18ae:	df7d                	beqz	a4,18ac <rv_recv+0x2c>
    18b0:	853e                	mv	a0,a5
    18b2:	8082                	ret
    18b4:	4501                	li	a0,0
    18b6:	8082                	ret

000018b8 <rv_send>:
    18b8:	01059713          	slli	a4,a1,0x10
    18bc:	100707b7          	lui	a5,0x10070
    18c0:	02070713          	addi	a4,a4,32
    18c4:	cb98                	sw	a4,16(a5)
    18c6:	6741                	lui	a4,0x10
    18c8:	7d870713          	addi	a4,a4,2008 # 107d8 <meta_buffer_send>
    18cc:	cbd8                	sw	a4,20(a5)
    18ce:	cb8c                	sw	a1,16(a5)
    18d0:	cbc8                	sw	a0,20(a5)
    18d2:	80000737          	lui	a4,0x80000
    18d6:	cbd8                	sw	a4,20(a5)
    18d8:	4505                	li	a0,1
    18da:	8082                	ret

000018dc <__no_irq_handler>:
    18dc:	0000f517          	auipc	a0,0xf
    18e0:	d8950513          	addi	a0,a0,-631 # 10665 <no_exception_handler_msg>
    18e4:	f2bff0ef          	jal	ra,180e <irq_puts>
    18e8:	0cc0006f          	j	19b4 <end_handler>

000018ec <sw_irq_handler>:
    18ec:	342022f3          	csrr	t0,mcause
    18f0:	00129293          	slli	t0,t0,0x1
    18f4:	0012d293          	srli	t0,t0,0x1
    18f8:	00200313          	li	t1,2
    18fc:	08628c63          	beq	t0,t1,1994 <handle_illegal_insn>
    1900:	00b00313          	li	t1,11
    1904:	06628863          	beq	t0,t1,1974 <handle_ecall>
    1908:	00300313          	li	t1,3
    190c:	06628c63          	beq	t0,t1,1984 <handle_ebreak>
    1910:	0940006f          	j	19a4 <handle_unknown>

00001914 <__uart_irq_handler>:
    1914:	fe112e23          	sw	ra,-4(sp)
    1918:	0b0000ef          	jal	ra,19c8 <save_current_environment>
    191c:	f8010113          	addi	sp,sp,-128
    1920:	eb5ff0ef          	jal	ra,17d4 <uart_irq_handler>
    1924:	08010113          	addi	sp,sp,128
    1928:	11c000ef          	jal	ra,1a44 <load_previous_environment>
    192c:	ffc12083          	lw	ra,-4(sp)
    1930:	30200073          	mret

00001934 <__dma_irq_handler>:
    1934:	fe112e23          	sw	ra,-4(sp)
    1938:	090000ef          	jal	ra,19c8 <save_current_environment>
    193c:	f8010113          	addi	sp,sp,-128
    1940:	e97ff0ef          	jal	ra,17d6 <dma_irq_handler>
    1944:	08010113          	addi	sp,sp,128
    1948:	0fc000ef          	jal	ra,1a44 <load_previous_environment>
    194c:	ffc12083          	lw	ra,-4(sp)
    1950:	30200073          	mret

00001954 <__time_irq_handler>:
    1954:	fe112e23          	sw	ra,-4(sp)
    1958:	070000ef          	jal	ra,19c8 <save_current_environment>
    195c:	f8010113          	addi	sp,sp,-128
    1960:	e97ff0ef          	jal	ra,17f6 <time_irq_handler>
    1964:	08010113          	addi	sp,sp,128
    1968:	0dc000ef          	jal	ra,1a44 <load_previous_environment>
    196c:	ffc12083          	lw	ra,-4(sp)
    1970:	30200073          	mret

00001974 <handle_ecall>:
    1974:	0000f517          	auipc	a0,0xf
    1978:	c8b50513          	addi	a0,a0,-885 # 105ff <ecall_msg>
    197c:	e93ff0ef          	jal	ra,180e <irq_puts>
    1980:	0340006f          	j	19b4 <end_handler>

00001984 <handle_ebreak>:
    1984:	0000f517          	auipc	a0,0xf
    1988:	c9c50513          	addi	a0,a0,-868 # 10620 <ebreak_msg>
    198c:	e83ff0ef          	jal	ra,180e <irq_puts>
    1990:	0240006f          	j	19b4 <end_handler>

00001994 <handle_illegal_insn>:
    1994:	0000f517          	auipc	a0,0xf
    1998:	c3c50513          	addi	a0,a0,-964 # 105d0 <illegal_insn_msg>
    199c:	e73ff0ef          	jal	ra,180e <irq_puts>
    19a0:	0140006f          	j	19b4 <end_handler>

000019a4 <handle_unknown>:
    19a4:	0000f517          	auipc	a0,0xf
    19a8:	c9e50513          	addi	a0,a0,-866 # 10642 <unknown_msg>
    19ac:	e63ff0ef          	jal	ra,180e <irq_puts>
    19b0:	0040006f          	j	19b4 <end_handler>

000019b4 <end_handler>:
    19b4:	34102573          	csrr	a0,mepc
    19b8:	00450513          	addi	a0,a0,4
    19bc:	34151073          	csrw	mepc,a0
    19c0:	30200073          	mret

000019c4 <verification_irq_handler>:
    19c4:	30200073          	mret

000019c8 <save_current_environment>:
    19c8:	fe212c23          	sw	sp,-8(sp)
    19cc:	fe312a23          	sw	gp,-12(sp)
    19d0:	fe412823          	sw	tp,-16(sp)
    19d4:	fe512623          	sw	t0,-20(sp)
    19d8:	fe612423          	sw	t1,-24(sp)
    19dc:	fe712223          	sw	t2,-28(sp)
    19e0:	fe812023          	sw	s0,-32(sp)
    19e4:	fc912e23          	sw	s1,-36(sp)
    19e8:	fca12c23          	sw	a0,-40(sp)
    19ec:	fcb12a23          	sw	a1,-44(sp)
    19f0:	fcc12823          	sw	a2,-48(sp)
    19f4:	fcd12623          	sw	a3,-52(sp)
    19f8:	fce12423          	sw	a4,-56(sp)
    19fc:	fcf12223          	sw	a5,-60(sp)
    1a00:	fd012023          	sw	a6,-64(sp)
    1a04:	fb112e23          	sw	a7,-68(sp)
    1a08:	fb212c23          	sw	s2,-72(sp)
    1a0c:	fb312a23          	sw	s3,-76(sp)
    1a10:	fb412823          	sw	s4,-80(sp)
    1a14:	fb512623          	sw	s5,-84(sp)
    1a18:	fb612423          	sw	s6,-88(sp)
    1a1c:	fb712223          	sw	s7,-92(sp)
    1a20:	fb812023          	sw	s8,-96(sp)
    1a24:	f9912e23          	sw	s9,-100(sp)
    1a28:	f9a12c23          	sw	s10,-104(sp)
    1a2c:	f9b12a23          	sw	s11,-108(sp)
    1a30:	f9c12823          	sw	t3,-112(sp)
    1a34:	f9d12623          	sw	t4,-116(sp)
    1a38:	f9e12423          	sw	t5,-120(sp)
    1a3c:	f9f12223          	sw	t6,-124(sp)
    1a40:	00008067          	ret

00001a44 <load_previous_environment>:
    1a44:	ff412183          	lw	gp,-12(sp)
    1a48:	ff012203          	lw	tp,-16(sp)
    1a4c:	fec12283          	lw	t0,-20(sp)
    1a50:	fe812303          	lw	t1,-24(sp)
    1a54:	fe412383          	lw	t2,-28(sp)
    1a58:	fe012403          	lw	s0,-32(sp)
    1a5c:	fdc12483          	lw	s1,-36(sp)
    1a60:	fd812503          	lw	a0,-40(sp)
    1a64:	fd412583          	lw	a1,-44(sp)
    1a68:	fd012603          	lw	a2,-48(sp)
    1a6c:	fcc12683          	lw	a3,-52(sp)
    1a70:	fc812703          	lw	a4,-56(sp)
    1a74:	fc412783          	lw	a5,-60(sp)
    1a78:	fc012803          	lw	a6,-64(sp)
    1a7c:	fbc12883          	lw	a7,-68(sp)
    1a80:	fb812903          	lw	s2,-72(sp)
    1a84:	fb412983          	lw	s3,-76(sp)
    1a88:	fb012a03          	lw	s4,-80(sp)
    1a8c:	fac12a83          	lw	s5,-84(sp)
    1a90:	fa812b03          	lw	s6,-88(sp)
    1a94:	fa412b83          	lw	s7,-92(sp)
    1a98:	fa012c03          	lw	s8,-96(sp)
    1a9c:	f9c12c83          	lw	s9,-100(sp)
    1aa0:	f9812d03          	lw	s10,-104(sp)
    1aa4:	f9412d83          	lw	s11,-108(sp)
    1aa8:	f9012e03          	lw	t3,-112(sp)
    1aac:	f8c12e83          	lw	t4,-116(sp)
    1ab0:	f8812f03          	lw	t5,-120(sp)
    1ab4:	f8412f83          	lw	t6,-124(sp)
    1ab8:	00008067          	ret

00001abc <__test_custom_instr>:
    1abc:	00a0809b          	0xa0809b
    1ac0:	00a0a11b          	0xa0a11b
    1ac4:	00b0b19b          	0xb0b19b
    1ac8:	00b0c21b          	0xb0c21b
    1acc:	00b2629b          	0xb2629b
    1ad0:	00a2f31b          	0xa2f31b
    1ad4:	0080939b          	0x80939b
    1ad8:	0040d41b          	0x40d41b
    1adc:	4010d49b          	0x4010d49b
    1ae0:	9f9f 0000 851f      	0x851f00009f9f
    1ae6:	0000                	unimp
    1ae8:	000105bf 0000065f 	0x65f000105bf
    1af0:	16df 0000 275f      	0x275f000016df
    1af6:	0000                	unimp
    1af8:	47df 0000 585f      	0x585f000047df
    1afe:	0000                	unimp
    1b00:	00c5806b          	0xc5806b
    1b04:	00d5906b          	0xd5906b
    1b08:	00e5a06b          	0xe5a06b
    1b0c:	875f 0005 96df      	0x96df0005875f
    1b12:	0005                	c.addi	zero,1
    1b14:	a65f 0005 88bb      	0x88bb0005a65f
    1b1a:	093b0013          	addi	zero,s6,147
    1b1e:	4014                	lw	a3,0(s0)
    1b20:	001499bb          	0x1499bb
    1b24:	00102a3b          	0x102a3b
    1b28:	0010babb          	0x10babb
    1b2c:	00114b3b          	0x114b3b
    1b30:	0011dbbb          	0x11dbbb
    1b34:	40125c3b          	0x40125c3b
    1b38:	0012ecbb          	0x12ecbb
    1b3c:	00137d3b          	0x137d3b
    1b40:	8082                	ret

00001b42 <__to_recv_pkt>:
    1b42:	20000f3f 00008013 	0x801320000f3f
    1b4a:	00010013          	mv	zero,sp
    1b4e:	151f 000f 8082      	0x8082000f151f

00001b54 <__test_proc_pkt>:
    1b54:	01081a1b          	0x1081a1b
    1b58:	010a5a1b          	0x10a5a1b
    1b5c:	151f 000a 8082      	0x8082000a151f

00001b62 <__test_replace_mac>:
    1b62:	01005a1b          	0x1005a1b
    1b66:	01001a9b          	0x1001a9b
    1b6a:	0100db1b          	0x100db1b
    1b6e:	01009c1b          	0x1009c1b
    1b72:	01015c9b          	0x1015c9b
    1b76:	01011d1b          	0x1011d1b
    1b7a:	018c803b          	0x18c803b
    1b7e:	014d00bb          	0x14d00bb
    1b82:	015b013b          	0x15b013b
    1b86:	01081d9b          	0x1081d9b
    1b8a:	010ddd9b          	0x10ddd9b
    1b8e:	951f 000d 8082      	0x8082000d951f

00001b94 <__add_next_512b_first32b_with_1>:
    1b94:	40000f3f 80000f3f 	0x80000f3f40000f3f
    1b9c:	000d1d9b          	0xd1d9b
    1ba0:	000d1d9b          	0xd1d9b
    1ba4:	000d1d9b          	0xd1d9b
    1ba8:	000d1d9b          	0xd1d9b
    1bac:	000d1d9b          	0xd1d9b
    1bb0:	000d1d9b          	0xd1d9b
    1bb4:	08000f3f 000d1d9b 	0xd1d9b08000f3f
    1bbc:	000d1d9b          	0xd1d9b
    1bc0:	0017879b          	0x17879b
    1bc4:	8082                	ret

00001bc6 <__to_send_pkt>:
    1bc6:	0048181b          	0x48181b
    1bca:	0048581b          	0x48581b
    1bce:	0d9f 0005 9d9b      	0x9d9b00050d9f
    1bd4:	01cd                	addi	gp,gp,19
    1bd6:	01b8683b          	0x1b8683b
    1bda:	10000f3f 181b8082 	0x808210000f3f

00001be0 <__test_send_pkt>:
    1be0:	0048181b          	0x48181b
    1be4:	0048581b          	0x48581b
    1be8:	10000f3f da1b8082 	0x808210000f3f

00001bee <__read_type>:
    1bee:	0101da1b          	0x101da1b
    1bf2:	151f 000a 8082      	0x8082000a151f

00001bf8 <__read_next_512b_first32b>:
    1bf8:	80000f3f 000d1d9b 	0xd1d9b80000f3f
    1c00:	000d1d9b          	0xd1d9b
    1c04:	000d1d9b          	0xd1d9b
    1c08:	000d1d9b          	0xd1d9b
    1c0c:	000d1d9b          	0xd1d9b
    1c10:	000d1d9b          	0xd1d9b
    1c14:	08000f3f 000d1d9b 	0xd1d9b08000f3f
    1c1c:	000d1d9b          	0xd1d9b
    1c20:	151f 0000 8082      	0x80820000151f

00001c26 <__divdf3>:
    1c26:	7179                	addi	sp,sp,-48
    1c28:	d422                	sw	s0,40(sp)
    1c2a:	d226                	sw	s1,36(sp)
    1c2c:	c85a                	sw	s6,16(sp)
    1c2e:	842a                	mv	s0,a0
    1c30:	8b2a                	mv	s6,a0
    1c32:	001004b7          	lui	s1,0x100
    1c36:	0145d513          	srli	a0,a1,0x14
    1c3a:	d04a                	sw	s2,32(sp)
    1c3c:	ce4e                	sw	s3,28(sp)
    1c3e:	c65e                	sw	s7,12(sp)
    1c40:	14fd                	addi	s1,s1,-1
    1c42:	d606                	sw	ra,44(sp)
    1c44:	cc52                	sw	s4,24(sp)
    1c46:	ca56                	sw	s5,20(sp)
    1c48:	7ff57513          	andi	a0,a0,2047
    1c4c:	8bb2                	mv	s7,a2
    1c4e:	89b6                	mv	s3,a3
    1c50:	8ced                	and	s1,s1,a1
    1c52:	01f5d913          	srli	s2,a1,0x1f
    1c56:	c149                	beqz	a0,1cd8 <__divdf3+0xb2>
    1c58:	7ff00793          	li	a5,2047
    1c5c:	0cf50763          	beq	a0,a5,1d2a <__divdf3+0x104>
    1c60:	048e                	slli	s1,s1,0x3
    1c62:	008006b7          	lui	a3,0x800
    1c66:	8cd5                	or	s1,s1,a3
    1c68:	01db5a93          	srli	s5,s6,0x1d
    1c6c:	009aeab3          	or	s5,s5,s1
    1c70:	003b1413          	slli	s0,s6,0x3
    1c74:	c0150a13          	addi	s4,a0,-1023
    1c78:	4b01                	li	s6,0
    1c7a:	0149d513          	srli	a0,s3,0x14
    1c7e:	001004b7          	lui	s1,0x100
    1c82:	14fd                	addi	s1,s1,-1
    1c84:	7ff57513          	andi	a0,a0,2047
    1c88:	0134f4b3          	and	s1,s1,s3
    1c8c:	8fde                	mv	t6,s7
    1c8e:	01f9d993          	srli	s3,s3,0x1f
    1c92:	cd55                	beqz	a0,1d4e <__divdf3+0x128>
    1c94:	7ff00793          	li	a5,2047
    1c98:	10f50163          	beq	a0,a5,1d9a <__divdf3+0x174>
    1c9c:	008007b7          	lui	a5,0x800
    1ca0:	048e                	slli	s1,s1,0x3
    1ca2:	8cdd                	or	s1,s1,a5
    1ca4:	01dbd793          	srli	a5,s7,0x1d
    1ca8:	8fc5                	or	a5,a5,s1
    1caa:	003b9f93          	slli	t6,s7,0x3
    1cae:	c0150513          	addi	a0,a0,-1023
    1cb2:	4701                	li	a4,0
    1cb4:	002b1693          	slli	a3,s6,0x2
    1cb8:	8ed9                	or	a3,a3,a4
    1cba:	16fd                	addi	a3,a3,-1
    1cbc:	45b9                	li	a1,14
    1cbe:	01394633          	xor	a2,s2,s3
    1cc2:	40aa0533          	sub	a0,s4,a0
    1cc6:	0ed5eb63          	bltu	a1,a3,1dbc <__divdf3+0x196>
    1cca:	65c1                	lui	a1,0x10
    1ccc:	068a                	slli	a3,a3,0x2
    1cce:	69058593          	addi	a1,a1,1680 # 10690 <uart_handler_msg+0xb>
    1cd2:	96ae                	add	a3,a3,a1
    1cd4:	4294                	lw	a3,0(a3)
    1cd6:	8682                	jr	a3
    1cd8:	0164eab3          	or	s5,s1,s6
    1cdc:	060a8063          	beqz	s5,1d3c <__divdf3+0x116>
    1ce0:	c895                	beqz	s1,1d14 <__divdf3+0xee>
    1ce2:	8526                	mv	a0,s1
    1ce4:	2325                	jal	220c <__clzsi2>
    1ce6:	ff550793          	addi	a5,a0,-11
    1cea:	4771                	li	a4,28
    1cec:	02f74963          	blt	a4,a5,1d1e <__divdf3+0xf8>
    1cf0:	4af5                	li	s5,29
    1cf2:	ff850413          	addi	s0,a0,-8
    1cf6:	40fa8ab3          	sub	s5,s5,a5
    1cfa:	008494b3          	sll	s1,s1,s0
    1cfe:	015b5ab3          	srl	s5,s6,s5
    1d02:	009aeab3          	or	s5,s5,s1
    1d06:	008b1433          	sll	s0,s6,s0
    1d0a:	c0d00a13          	li	s4,-1011
    1d0e:	40aa0a33          	sub	s4,s4,a0
    1d12:	b79d                	j	1c78 <__divdf3+0x52>
    1d14:	855a                	mv	a0,s6
    1d16:	29dd                	jal	220c <__clzsi2>
    1d18:	02050513          	addi	a0,a0,32
    1d1c:	b7e9                	j	1ce6 <__divdf3+0xc0>
    1d1e:	fd850493          	addi	s1,a0,-40
    1d22:	009b1ab3          	sll	s5,s6,s1
    1d26:	4401                	li	s0,0
    1d28:	b7cd                	j	1d0a <__divdf3+0xe4>
    1d2a:	0164eab3          	or	s5,s1,s6
    1d2e:	000a8b63          	beqz	s5,1d44 <__divdf3+0x11e>
    1d32:	8aa6                	mv	s5,s1
    1d34:	7ff00a13          	li	s4,2047
    1d38:	4b0d                	li	s6,3
    1d3a:	b781                	j	1c7a <__divdf3+0x54>
    1d3c:	4401                	li	s0,0
    1d3e:	4a01                	li	s4,0
    1d40:	4b05                	li	s6,1
    1d42:	bf25                	j	1c7a <__divdf3+0x54>
    1d44:	4401                	li	s0,0
    1d46:	7ff00a13          	li	s4,2047
    1d4a:	4b09                	li	s6,2
    1d4c:	b73d                	j	1c7a <__divdf3+0x54>
    1d4e:	0174e7b3          	or	a5,s1,s7
    1d52:	cfa1                	beqz	a5,1daa <__divdf3+0x184>
    1d54:	c885                	beqz	s1,1d84 <__divdf3+0x15e>
    1d56:	8526                	mv	a0,s1
    1d58:	2955                	jal	220c <__clzsi2>
    1d5a:	ff550713          	addi	a4,a0,-11
    1d5e:	47f1                	li	a5,28
    1d60:	02e7c763          	blt	a5,a4,1d8e <__divdf3+0x168>
    1d64:	47f5                	li	a5,29
    1d66:	ff850f93          	addi	t6,a0,-8
    1d6a:	8f99                	sub	a5,a5,a4
    1d6c:	01f494b3          	sll	s1,s1,t6
    1d70:	00fbd7b3          	srl	a5,s7,a5
    1d74:	8fc5                	or	a5,a5,s1
    1d76:	01fb9fb3          	sll	t6,s7,t6
    1d7a:	c0d00613          	li	a2,-1011
    1d7e:	40a60533          	sub	a0,a2,a0
    1d82:	bf05                	j	1cb2 <__divdf3+0x8c>
    1d84:	855e                	mv	a0,s7
    1d86:	2159                	jal	220c <__clzsi2>
    1d88:	02050513          	addi	a0,a0,32
    1d8c:	b7f9                	j	1d5a <__divdf3+0x134>
    1d8e:	fd850793          	addi	a5,a0,-40
    1d92:	00fb97b3          	sll	a5,s7,a5
    1d96:	4f81                	li	t6,0
    1d98:	b7cd                	j	1d7a <__divdf3+0x154>
    1d9a:	0174e7b3          	or	a5,s1,s7
    1d9e:	cb91                	beqz	a5,1db2 <__divdf3+0x18c>
    1da0:	87a6                	mv	a5,s1
    1da2:	7ff00513          	li	a0,2047
    1da6:	470d                	li	a4,3
    1da8:	b731                	j	1cb4 <__divdf3+0x8e>
    1daa:	4f81                	li	t6,0
    1dac:	4501                	li	a0,0
    1dae:	4705                	li	a4,1
    1db0:	b711                	j	1cb4 <__divdf3+0x8e>
    1db2:	4f81                	li	t6,0
    1db4:	7ff00513          	li	a0,2047
    1db8:	4709                	li	a4,2
    1dba:	bded                	j	1cb4 <__divdf3+0x8e>
    1dbc:	0157e663          	bltu	a5,s5,1dc8 <__divdf3+0x1a2>
    1dc0:	2afa9663          	bne	s5,a5,206c <__divdf3+0x446>
    1dc4:	2bf46463          	bltu	s0,t6,206c <__divdf3+0x446>
    1dc8:	01fa9593          	slli	a1,s5,0x1f
    1dcc:	00145693          	srli	a3,s0,0x1
    1dd0:	01f41713          	slli	a4,s0,0x1f
    1dd4:	001ada93          	srli	s5,s5,0x1
    1dd8:	00d5e433          	or	s0,a1,a3
    1ddc:	07a2                	slli	a5,a5,0x8
    1dde:	018fd813          	srli	a6,t6,0x18
    1de2:	00f86833          	or	a6,a6,a5
    1de6:	01085e93          	srli	t4,a6,0x10
    1dea:	03dad5b3          	divu	a1,s5,t4
    1dee:	01081e13          	slli	t3,a6,0x10
    1df2:	010e5e13          	srli	t3,t3,0x10
    1df6:	01045693          	srli	a3,s0,0x10
    1dfa:	008f9893          	slli	a7,t6,0x8
    1dfe:	03daf4b3          	remu	s1,s5,t4
    1e02:	8fae                	mv	t6,a1
    1e04:	02be07b3          	mul	a5,t3,a1
    1e08:	04c2                	slli	s1,s1,0x10
    1e0a:	8ec5                	or	a3,a3,s1
    1e0c:	00f6fc63          	bleu	a5,a3,1e24 <__divdf3+0x1fe>
    1e10:	96c2                	add	a3,a3,a6
    1e12:	fff58f93          	addi	t6,a1,-1
    1e16:	0106e763          	bltu	a3,a6,1e24 <__divdf3+0x1fe>
    1e1a:	00f6f563          	bleu	a5,a3,1e24 <__divdf3+0x1fe>
    1e1e:	ffe58f93          	addi	t6,a1,-2
    1e22:	96c2                	add	a3,a3,a6
    1e24:	8e9d                	sub	a3,a3,a5
    1e26:	03d6d333          	divu	t1,a3,t4
    1e2a:	0442                	slli	s0,s0,0x10
    1e2c:	8041                	srli	s0,s0,0x10
    1e2e:	03d6f6b3          	remu	a3,a3,t4
    1e32:	879a                	mv	a5,t1
    1e34:	026e05b3          	mul	a1,t3,t1
    1e38:	06c2                	slli	a3,a3,0x10
    1e3a:	8ec1                	or	a3,a3,s0
    1e3c:	00b6fc63          	bleu	a1,a3,1e54 <__divdf3+0x22e>
    1e40:	96c2                	add	a3,a3,a6
    1e42:	fff30793          	addi	a5,t1,-1
    1e46:	0106e763          	bltu	a3,a6,1e54 <__divdf3+0x22e>
    1e4a:	00b6f563          	bleu	a1,a3,1e54 <__divdf3+0x22e>
    1e4e:	ffe30793          	addi	a5,t1,-2
    1e52:	96c2                	add	a3,a3,a6
    1e54:	40b68433          	sub	s0,a3,a1
    1e58:	0fc2                	slli	t6,t6,0x10
    1e5a:	65c1                	lui	a1,0x10
    1e5c:	00ffefb3          	or	t6,t6,a5
    1e60:	fff58313          	addi	t1,a1,-1 # ffff <__clzsi2+0xddf3>
    1e64:	010fd693          	srli	a3,t6,0x10
    1e68:	006ff7b3          	and	a5,t6,t1
    1e6c:	0108df13          	srli	t5,a7,0x10
    1e70:	0068f333          	and	t1,a7,t1
    1e74:	026783b3          	mul	t2,a5,t1
    1e78:	026684b3          	mul	s1,a3,t1
    1e7c:	02ff07b3          	mul	a5,t5,a5
    1e80:	03e682b3          	mul	t0,a3,t5
    1e84:	009786b3          	add	a3,a5,s1
    1e88:	0103d793          	srli	a5,t2,0x10
    1e8c:	97b6                	add	a5,a5,a3
    1e8e:	0097f363          	bleu	s1,a5,1e94 <__divdf3+0x26e>
    1e92:	92ae                	add	t0,t0,a1
    1e94:	0107d693          	srli	a3,a5,0x10
    1e98:	9696                	add	a3,a3,t0
    1e9a:	62c1                	lui	t0,0x10
    1e9c:	12fd                	addi	t0,t0,-1
    1e9e:	0057f5b3          	and	a1,a5,t0
    1ea2:	05c2                	slli	a1,a1,0x10
    1ea4:	0053f3b3          	and	t2,t2,t0
    1ea8:	959e                	add	a1,a1,t2
    1eaa:	00d46763          	bltu	s0,a3,1eb8 <__divdf3+0x292>
    1eae:	87fe                	mv	a5,t6
    1eb0:	02d41e63          	bne	s0,a3,1eec <__divdf3+0x2c6>
    1eb4:	02b77c63          	bleu	a1,a4,1eec <__divdf3+0x2c6>
    1eb8:	9746                	add	a4,a4,a7
    1eba:	011732b3          	sltu	t0,a4,a7
    1ebe:	92c2                	add	t0,t0,a6
    1ec0:	9416                	add	s0,s0,t0
    1ec2:	ffff8793          	addi	a5,t6,-1
    1ec6:	00886663          	bltu	a6,s0,1ed2 <__divdf3+0x2ac>
    1eca:	02881163          	bne	a6,s0,1eec <__divdf3+0x2c6>
    1ece:	01176f63          	bltu	a4,a7,1eec <__divdf3+0x2c6>
    1ed2:	00d46663          	bltu	s0,a3,1ede <__divdf3+0x2b8>
    1ed6:	00869b63          	bne	a3,s0,1eec <__divdf3+0x2c6>
    1eda:	00b77963          	bleu	a1,a4,1eec <__divdf3+0x2c6>
    1ede:	9746                	add	a4,a4,a7
    1ee0:	ffef8793          	addi	a5,t6,-2
    1ee4:	01173fb3          	sltu	t6,a4,a7
    1ee8:	9fc2                	add	t6,t6,a6
    1eea:	947e                	add	s0,s0,t6
    1eec:	40b705b3          	sub	a1,a4,a1
    1ef0:	8c15                	sub	s0,s0,a3
    1ef2:	00b73733          	sltu	a4,a4,a1
    1ef6:	8c19                	sub	s0,s0,a4
    1ef8:	5ffd                	li	t6,-1
    1efa:	0e880663          	beq	a6,s0,1fe6 <__divdf3+0x3c0>
    1efe:	03d452b3          	divu	t0,s0,t4
    1f02:	0105d693          	srli	a3,a1,0x10
    1f06:	03d47433          	remu	s0,s0,t4
    1f0a:	8716                	mv	a4,t0
    1f0c:	025e0fb3          	mul	t6,t3,t0
    1f10:	0442                	slli	s0,s0,0x10
    1f12:	8c55                	or	s0,s0,a3
    1f14:	01f47c63          	bleu	t6,s0,1f2c <__divdf3+0x306>
    1f18:	9442                	add	s0,s0,a6
    1f1a:	fff28713          	addi	a4,t0,-1 # ffff <__clzsi2+0xddf3>
    1f1e:	01046763          	bltu	s0,a6,1f2c <__divdf3+0x306>
    1f22:	01f47563          	bleu	t6,s0,1f2c <__divdf3+0x306>
    1f26:	ffe28713          	addi	a4,t0,-2
    1f2a:	9442                	add	s0,s0,a6
    1f2c:	41f40433          	sub	s0,s0,t6
    1f30:	03d456b3          	divu	a3,s0,t4
    1f34:	05c2                	slli	a1,a1,0x10
    1f36:	81c1                	srli	a1,a1,0x10
    1f38:	03d47433          	remu	s0,s0,t4
    1f3c:	02de0e33          	mul	t3,t3,a3
    1f40:	0442                	slli	s0,s0,0x10
    1f42:	8c4d                	or	s0,s0,a1
    1f44:	85b6                	mv	a1,a3
    1f46:	01c47c63          	bleu	t3,s0,1f5e <__divdf3+0x338>
    1f4a:	9442                	add	s0,s0,a6
    1f4c:	fff68593          	addi	a1,a3,-1 # 7fffff <_sp+0x7edfcf>
    1f50:	01046763          	bltu	s0,a6,1f5e <__divdf3+0x338>
    1f54:	01c47563          	bleu	t3,s0,1f5e <__divdf3+0x338>
    1f58:	ffe68593          	addi	a1,a3,-2
    1f5c:	9442                	add	s0,s0,a6
    1f5e:	0742                	slli	a4,a4,0x10
    1f60:	8dd9                	or	a1,a1,a4
    1f62:	01059713          	slli	a4,a1,0x10
    1f66:	8341                	srli	a4,a4,0x10
    1f68:	41c40433          	sub	s0,s0,t3
    1f6c:	0105de13          	srli	t3,a1,0x10
    1f70:	02670eb3          	mul	t4,a4,t1
    1f74:	026e0333          	mul	t1,t3,t1
    1f78:	03cf0e33          	mul	t3,t5,t3
    1f7c:	02ef0f33          	mul	t5,t5,a4
    1f80:	010ed713          	srli	a4,t4,0x10
    1f84:	9f1a                	add	t5,t5,t1
    1f86:	977a                	add	a4,a4,t5
    1f88:	00677463          	bleu	t1,a4,1f90 <__divdf3+0x36a>
    1f8c:	66c1                	lui	a3,0x10
    1f8e:	9e36                	add	t3,t3,a3
    1f90:	01075313          	srli	t1,a4,0x10
    1f94:	9372                	add	t1,t1,t3
    1f96:	6e41                	lui	t3,0x10
    1f98:	1e7d                	addi	t3,t3,-1
    1f9a:	01c776b3          	and	a3,a4,t3
    1f9e:	06c2                	slli	a3,a3,0x10
    1fa0:	01cefeb3          	and	t4,t4,t3
    1fa4:	96f6                	add	a3,a3,t4
    1fa6:	00646663          	bltu	s0,t1,1fb2 <__divdf3+0x38c>
    1faa:	8fae                	mv	t6,a1
    1fac:	02641b63          	bne	s0,t1,1fe2 <__divdf3+0x3bc>
    1fb0:	ca9d                	beqz	a3,1fe6 <__divdf3+0x3c0>
    1fb2:	9442                	add	s0,s0,a6
    1fb4:	fff58f93          	addi	t6,a1,-1
    1fb8:	03046163          	bltu	s0,a6,1fda <__divdf3+0x3b4>
    1fbc:	00646663          	bltu	s0,t1,1fc8 <__divdf3+0x3a2>
    1fc0:	02641163          	bne	s0,t1,1fe2 <__divdf3+0x3bc>
    1fc4:	00d8fd63          	bleu	a3,a7,1fde <__divdf3+0x3b8>
    1fc8:	00189713          	slli	a4,a7,0x1
    1fcc:	011738b3          	sltu	a7,a4,a7
    1fd0:	9846                	add	a6,a6,a7
    1fd2:	ffe58f93          	addi	t6,a1,-2
    1fd6:	9442                	add	s0,s0,a6
    1fd8:	88ba                	mv	a7,a4
    1fda:	00641463          	bne	s0,t1,1fe2 <__divdf3+0x3bc>
    1fde:	01168463          	beq	a3,a7,1fe6 <__divdf3+0x3c0>
    1fe2:	001fef93          	ori	t6,t6,1
    1fe6:	3ff50693          	addi	a3,a0,1023
    1fea:	0ad05c63          	blez	a3,20a2 <__divdf3+0x47c>
    1fee:	007ff713          	andi	a4,t6,7
    1ff2:	cf01                	beqz	a4,200a <__divdf3+0x3e4>
    1ff4:	00fff713          	andi	a4,t6,15
    1ff8:	4591                	li	a1,4
    1ffa:	00b70863          	beq	a4,a1,200a <__divdf3+0x3e4>
    1ffe:	004f8593          	addi	a1,t6,4
    2002:	01f5bfb3          	sltu	t6,a1,t6
    2006:	97fe                	add	a5,a5,t6
    2008:	8fae                	mv	t6,a1
    200a:	00779713          	slli	a4,a5,0x7
    200e:	00075863          	bgez	a4,201e <__divdf3+0x3f8>
    2012:	ff000737          	lui	a4,0xff000
    2016:	177d                	addi	a4,a4,-1
    2018:	8ff9                	and	a5,a5,a4
    201a:	40050693          	addi	a3,a0,1024
    201e:	7fe00713          	li	a4,2046
    2022:	10d74b63          	blt	a4,a3,2138 <__divdf3+0x512>
    2026:	01d79713          	slli	a4,a5,0x1d
    202a:	003fdf93          	srli	t6,t6,0x3
    202e:	01f76733          	or	a4,a4,t6
    2032:	838d                	srli	a5,a5,0x3
    2034:	001005b7          	lui	a1,0x100
    2038:	15fd                	addi	a1,a1,-1
    203a:	8fed                	and	a5,a5,a1
    203c:	801005b7          	lui	a1,0x80100
    2040:	15fd                	addi	a1,a1,-1
    2042:	7ff6f693          	andi	a3,a3,2047
    2046:	06d2                	slli	a3,a3,0x14
    2048:	8fed                	and	a5,a5,a1
    204a:	50b2                	lw	ra,44(sp)
    204c:	5422                	lw	s0,40(sp)
    204e:	067e                	slli	a2,a2,0x1f
    2050:	8fd5                	or	a5,a5,a3
    2052:	00c7e6b3          	or	a3,a5,a2
    2056:	5492                	lw	s1,36(sp)
    2058:	5902                	lw	s2,32(sp)
    205a:	49f2                	lw	s3,28(sp)
    205c:	4a62                	lw	s4,24(sp)
    205e:	4ad2                	lw	s5,20(sp)
    2060:	4b42                	lw	s6,16(sp)
    2062:	4bb2                	lw	s7,12(sp)
    2064:	853a                	mv	a0,a4
    2066:	85b6                	mv	a1,a3
    2068:	6145                	addi	sp,sp,48
    206a:	8082                	ret
    206c:	157d                	addi	a0,a0,-1
    206e:	4701                	li	a4,0
    2070:	b3b5                	j	1ddc <__divdf3+0x1b6>
    2072:	864a                	mv	a2,s2
    2074:	87d6                	mv	a5,s5
    2076:	8fa2                	mv	t6,s0
    2078:	875a                	mv	a4,s6
    207a:	4689                	li	a3,2
    207c:	0ad70e63          	beq	a4,a3,2138 <__divdf3+0x512>
    2080:	468d                	li	a3,3
    2082:	0ad70463          	beq	a4,a3,212a <__divdf3+0x504>
    2086:	4685                	li	a3,1
    2088:	f4d71fe3          	bne	a4,a3,1fe6 <__divdf3+0x3c0>
    208c:	4781                	li	a5,0
    208e:	4701                	li	a4,0
    2090:	a0bd                	j	20fe <__divdf3+0x4d8>
    2092:	864e                	mv	a2,s3
    2094:	b7dd                	j	207a <__divdf3+0x454>
    2096:	000807b7          	lui	a5,0x80
    209a:	4f81                	li	t6,0
    209c:	4601                	li	a2,0
    209e:	470d                	li	a4,3
    20a0:	bfe9                	j	207a <__divdf3+0x454>
    20a2:	4585                	li	a1,1
    20a4:	8d95                	sub	a1,a1,a3
    20a6:	03800713          	li	a4,56
    20aa:	feb741e3          	blt	a4,a1,208c <__divdf3+0x466>
    20ae:	477d                	li	a4,31
    20b0:	04b74963          	blt	a4,a1,2102 <__divdf3+0x4dc>
    20b4:	41e50513          	addi	a0,a0,1054
    20b8:	00a79733          	sll	a4,a5,a0
    20bc:	00bfd6b3          	srl	a3,t6,a1
    20c0:	00af9533          	sll	a0,t6,a0
    20c4:	8f55                	or	a4,a4,a3
    20c6:	00a03533          	snez	a0,a0
    20ca:	8f49                	or	a4,a4,a0
    20cc:	00b7d7b3          	srl	a5,a5,a1
    20d0:	00777693          	andi	a3,a4,7
    20d4:	ce81                	beqz	a3,20ec <__divdf3+0x4c6>
    20d6:	00f77693          	andi	a3,a4,15
    20da:	4591                	li	a1,4
    20dc:	00b68863          	beq	a3,a1,20ec <__divdf3+0x4c6>
    20e0:	00470693          	addi	a3,a4,4 # ff000004 <pulp__FC+0xff000005>
    20e4:	00e6b733          	sltu	a4,a3,a4
    20e8:	97ba                	add	a5,a5,a4
    20ea:	8736                	mv	a4,a3
    20ec:	00879693          	slli	a3,a5,0x8
    20f0:	0406c963          	bltz	a3,2142 <__divdf3+0x51c>
    20f4:	01d79693          	slli	a3,a5,0x1d
    20f8:	830d                	srli	a4,a4,0x3
    20fa:	8f55                	or	a4,a4,a3
    20fc:	838d                	srli	a5,a5,0x3
    20fe:	4681                	li	a3,0
    2100:	bf15                	j	2034 <__divdf3+0x40e>
    2102:	5705                	li	a4,-31
    2104:	8f15                	sub	a4,a4,a3
    2106:	02000813          	li	a6,32
    210a:	00e7d733          	srl	a4,a5,a4
    210e:	4681                	li	a3,0
    2110:	01058663          	beq	a1,a6,211c <__divdf3+0x4f6>
    2114:	43e50513          	addi	a0,a0,1086
    2118:	00a796b3          	sll	a3,a5,a0
    211c:	01f6e533          	or	a0,a3,t6
    2120:	00a03533          	snez	a0,a0
    2124:	8f49                	or	a4,a4,a0
    2126:	4781                	li	a5,0
    2128:	b765                	j	20d0 <__divdf3+0x4aa>
    212a:	000807b7          	lui	a5,0x80
    212e:	4701                	li	a4,0
    2130:	7ff00693          	li	a3,2047
    2134:	4601                	li	a2,0
    2136:	bdfd                	j	2034 <__divdf3+0x40e>
    2138:	4781                	li	a5,0
    213a:	4701                	li	a4,0
    213c:	7ff00693          	li	a3,2047
    2140:	bdd5                	j	2034 <__divdf3+0x40e>
    2142:	4781                	li	a5,0
    2144:	4701                	li	a4,0
    2146:	4685                	li	a3,1
    2148:	b5f5                	j	2034 <__divdf3+0x40e>

0000214a <__fixunsdfsi>:
    214a:	0145d713          	srli	a4,a1,0x14
    214e:	001006b7          	lui	a3,0x100
    2152:	862a                	mv	a2,a0
    2154:	fff68793          	addi	a5,a3,-1 # fffff <_sp+0xedfcf>
    2158:	7ff77713          	andi	a4,a4,2047
    215c:	3fe00513          	li	a0,1022
    2160:	8fed                	and	a5,a5,a1
    2162:	81fd                	srli	a1,a1,0x1f
    2164:	02e55f63          	ble	a4,a0,21a2 <__fixunsdfsi+0x58>
    2168:	4501                	li	a0,0
    216a:	e591                	bnez	a1,2176 <__fixunsdfsi+0x2c>
    216c:	41e00593          	li	a1,1054
    2170:	557d                	li	a0,-1
    2172:	00e5d363          	ble	a4,a1,2178 <__fixunsdfsi+0x2e>
    2176:	8082                	ret
    2178:	8fd5                	or	a5,a5,a3
    217a:	43300693          	li	a3,1075
    217e:	8e99                	sub	a3,a3,a4
    2180:	45fd                	li	a1,31
    2182:	00d5ca63          	blt	a1,a3,2196 <__fixunsdfsi+0x4c>
    2186:	bed70713          	addi	a4,a4,-1043
    218a:	00e797b3          	sll	a5,a5,a4
    218e:	00d65533          	srl	a0,a2,a3
    2192:	8d5d                	or	a0,a0,a5
    2194:	8082                	ret
    2196:	41300513          	li	a0,1043
    219a:	8d19                	sub	a0,a0,a4
    219c:	00a7d533          	srl	a0,a5,a0
    21a0:	8082                	ret
    21a2:	4501                	li	a0,0
    21a4:	8082                	ret

000021a6 <__floatunsidf>:
    21a6:	1141                	addi	sp,sp,-16
    21a8:	c606                	sw	ra,12(sp)
    21aa:	c422                	sw	s0,8(sp)
    21ac:	cd21                	beqz	a0,2204 <__floatunsidf+0x5e>
    21ae:	842a                	mv	s0,a0
    21b0:	28b1                	jal	220c <__clzsi2>
    21b2:	41e00713          	li	a4,1054
    21b6:	47a9                	li	a5,10
    21b8:	8f09                	sub	a4,a4,a0
    21ba:	04a7c063          	blt	a5,a0,21fa <__floatunsidf+0x54>
    21be:	47ad                	li	a5,11
    21c0:	8f89                	sub	a5,a5,a0
    21c2:	0555                	addi	a0,a0,21
    21c4:	00f457b3          	srl	a5,s0,a5
    21c8:	00a41433          	sll	s0,s0,a0
    21cc:	00100537          	lui	a0,0x100
    21d0:	157d                	addi	a0,a0,-1
    21d2:	801006b7          	lui	a3,0x80100
    21d6:	8fe9                	and	a5,a5,a0
    21d8:	7ff77713          	andi	a4,a4,2047
    21dc:	16fd                	addi	a3,a3,-1
    21de:	0752                	slli	a4,a4,0x14
    21e0:	8ff5                	and	a5,a5,a3
    21e2:	8fd9                	or	a5,a5,a4
    21e4:	8522                	mv	a0,s0
    21e6:	40b2                	lw	ra,12(sp)
    21e8:	4422                	lw	s0,8(sp)
    21ea:	80000737          	lui	a4,0x80000
    21ee:	fff74713          	not	a4,a4
    21f2:	8f7d                	and	a4,a4,a5
    21f4:	85ba                	mv	a1,a4
    21f6:	0141                	addi	sp,sp,16
    21f8:	8082                	ret
    21fa:	1555                	addi	a0,a0,-11
    21fc:	00a417b3          	sll	a5,s0,a0
    2200:	4401                	li	s0,0
    2202:	b7e9                	j	21cc <__floatunsidf+0x26>
    2204:	4781                	li	a5,0
    2206:	4401                	li	s0,0
    2208:	4701                	li	a4,0
    220a:	b7c9                	j	21cc <__floatunsidf+0x26>

0000220c <__clzsi2>:
    220c:	67c1                	lui	a5,0x10
    220e:	02f57563          	bleu	a5,a0,2238 <__clzsi2+0x2c>
    2212:	0ff00793          	li	a5,255
    2216:	00a7b7b3          	sltu	a5,a5,a0
    221a:	078e                	slli	a5,a5,0x3
    221c:	02000713          	li	a4,32
    2220:	8f1d                	sub	a4,a4,a5
    2222:	00f557b3          	srl	a5,a0,a5
    2226:	6541                	lui	a0,0x10
    2228:	6cc50513          	addi	a0,a0,1740 # 106cc <__clz_tab>
    222c:	97aa                	add	a5,a5,a0
    222e:	0007c503          	lbu	a0,0(a5) # 10000 <__clzsi2+0xddf4>
    2232:	40a70533          	sub	a0,a4,a0
    2236:	8082                	ret
    2238:	01000737          	lui	a4,0x1000
    223c:	47c1                	li	a5,16
    223e:	fce56fe3          	bltu	a0,a4,221c <__clzsi2+0x10>
    2242:	47e1                	li	a5,24
    2244:	bfe1                	j	221c <__clzsi2+0x10>
