
obj/firmware.elf:     file format elf32-littleriscv


Disassembly of section .vectors:

00000000 <__vector_start>:
   0:	2430106f          	j	1a42 <sw_irq_handler>
   4:	22f0106f          	j	1a32 <__no_irq_handler>
   8:	22b0106f          	j	1a32 <__no_irq_handler>
   c:	2270106f          	j	1a32 <__no_irq_handler>
  10:	2230106f          	j	1a32 <__no_irq_handler>
  14:	21f0106f          	j	1a32 <__no_irq_handler>
  18:	21b0106f          	j	1a32 <__no_irq_handler>
  1c:	28f0106f          	j	1aaa <__time_irq_handler>
  20:	2130106f          	j	1a32 <__no_irq_handler>
  24:	20f0106f          	j	1a32 <__no_irq_handler>
  28:	20b0106f          	j	1a32 <__no_irq_handler>
  2c:	2070106f          	j	1a32 <__no_irq_handler>
  30:	2030106f          	j	1a32 <__no_irq_handler>
  34:	1ff0106f          	j	1a32 <__no_irq_handler>
  38:	1fb0106f          	j	1a32 <__no_irq_handler>
  3c:	1f70106f          	j	1a32 <__no_irq_handler>
  40:	22b0106f          	j	1a6a <__uart_irq_handler>
  44:	1ef0106f          	j	1a32 <__no_irq_handler>
  48:	1eb0106f          	j	1a32 <__no_irq_handler>
  4c:	1e70106f          	j	1a32 <__no_irq_handler>
  50:	1e30106f          	j	1a32 <__no_irq_handler>
  54:	1df0106f          	j	1a32 <__no_irq_handler>
  58:	2330106f          	j	1a8a <__dma_irq_handler>
  5c:	1d70106f          	j	1a32 <__no_irq_handler>
  60:	1d30106f          	j	1a32 <__no_irq_handler>
  64:	1cf0106f          	j	1a32 <__no_irq_handler>
  68:	1cb0106f          	j	1a32 <__no_irq_handler>
  6c:	1c70106f          	j	1a32 <__no_irq_handler>
  70:	1c30106f          	j	1a32 <__no_irq_handler>
  74:	1bf0106f          	j	1a32 <__no_irq_handler>
  78:	1bb0106f          	j	1a32 <__no_irq_handler>
  7c:	29f0106f          	j	1b1a <verification_irq_handler>
  80:	1b30106f          	j	1a32 <__no_irq_handler>
  84:	1af0106f          	j	1a32 <__no_irq_handler>
  88:	1ab0106f          	j	1a32 <__no_irq_handler>
  8c:	1a70106f          	j	1a32 <__no_irq_handler>
  90:	1a30106f          	j	1a32 <__no_irq_handler>
  94:	19f0106f          	j	1a32 <__no_irq_handler>
  98:	19b0106f          	j	1a32 <__no_irq_handler>
  9c:	1970106f          	j	1a32 <__no_irq_handler>
  a0:	1930106f          	j	1a32 <__no_irq_handler>
  a4:	18f0106f          	j	1a32 <__no_irq_handler>
  a8:	18b0106f          	j	1a32 <__no_irq_handler>
  ac:	1870106f          	j	1a32 <__no_irq_handler>
  b0:	1830106f          	j	1a32 <__no_irq_handler>
  b4:	17f0106f          	j	1a32 <__no_irq_handler>
  b8:	17b0106f          	j	1a32 <__no_irq_handler>
  bc:	1770106f          	j	1a32 <__no_irq_handler>
  c0:	1730106f          	j	1a32 <__no_irq_handler>
  c4:	16f0106f          	j	1a32 <__no_irq_handler>
  c8:	16b0106f          	j	1a32 <__no_irq_handler>
  cc:	1670106f          	j	1a32 <__no_irq_handler>
  d0:	1630106f          	j	1a32 <__no_irq_handler>
  d4:	15f0106f          	j	1a32 <__no_irq_handler>
  d8:	15b0106f          	j	1a32 <__no_irq_handler>
  dc:	1570106f          	j	1a32 <__no_irq_handler>
  e0:	1530106f          	j	1a32 <__no_irq_handler>
  e4:	14f0106f          	j	1a32 <__no_irq_handler>
  e8:	14b0106f          	j	1a32 <__no_irq_handler>
  ec:	1470106f          	j	1a32 <__no_irq_handler>
  f0:	1430106f          	j	1a32 <__no_irq_handler>
  f4:	13f0106f          	j	1a32 <__no_irq_handler>
  f8:	13b0106f          	j	1a32 <__no_irq_handler>
  fc:	1370106f          	j	1a32 <__no_irq_handler>

Disassembly of section .init:

00000180 <_start>:
 180:	00021197          	auipc	gp,0x21
 184:	97418193          	addi	gp,gp,-1676 # 20af4 <__global_pointer$>
 188:	00022117          	auipc	sp,0x22
 18c:	23810113          	addi	sp,sp,568 # 223c0 <_sp>
 190:	00000517          	auipc	a0,0x0
 194:	e7050513          	addi	a0,a0,-400 # 0 <__vector_start>
 198:	00156513          	ori	a0,a0,1
 19c:	30551073          	csrw	mtvec,a0
 1a0:	4502                	lw	a0,0(sp)
 1a2:	004c                	addi	a1,sp,4
 1a4:	4601                	li	a2,0
 1a6:	2009                	jal	1a8 <main>

Disassembly of section .text:

000001a8 <main>:
     1a8:	00020737          	lui	a4,0x20
     1ac:	2f472803          	lw	a6,756(a4) # 202f4 <__SDATA_BEGIN__>
     1b0:	7175                	addi	sp,sp,-144
     1b2:	000207b7          	lui	a5,0x20
     1b6:	000206b7          	lui	a3,0x20
     1ba:	c522                	sw	s0,136(sp)
     1bc:	c326                	sw	s1,132(sp)
     1be:	19068413          	addi	s0,a3,400 # 20190 <matrix_exact>
     1c2:	30078493          	addi	s1,a5,768 # 20300 <matrix_maybe_num>
     1c6:	c706                	sw	ra,140(sp)
     1c8:	c14a                	sw	s2,128(sp)
     1ca:	dece                	sw	s3,124(sp)
     1cc:	dcd2                	sw	s4,120(sp)
     1ce:	dad6                	sw	s5,116(sp)
     1d0:	d8da                	sw	s6,112(sp)
     1d2:	d6de                	sw	s7,108(sp)
     1d4:	d4e2                	sw	s8,104(sp)
     1d6:	d2e6                	sw	s9,100(sp)
     1d8:	d0ea                	sw	s10,96(sp)
     1da:	ceee                	sw	s11,92(sp)
     1dc:	19068693          	addi	a3,a3,400
     1e0:	30078793          	addi	a5,a5,768
     1e4:	4e01                	li	t3,0
     1e6:	4501                	li	a0,0
     1e8:	14400f13          	li	t5,324
     1ec:	4e85                	li	t4,1
     1ee:	48a5                	li	a7,9
     1f0:	02400f93          	li	t6,36
     1f4:	03e50633          	mul	a2,a0,t5
     1f8:	000210b7          	lui	ra,0x21
     1fc:	81008093          	addi	ra,ra,-2032 # 20810 <matrix_maybe>
     200:	4701                	li	a4,0
     202:	9606                	add	a2,a2,ra
     204:	00e685b3          	add	a1,a3,a4
     208:	418c                	lw	a1,0(a1)
     20a:	10058e63          	beqz	a1,326 <main+0x17e>
     20e:	00e785b3          	add	a1,a5,a4
     212:	0805                	addi	a6,a6,1
     214:	01d5a023          	sw	t4,0(a1)
     218:	4e05                	li	t3,1
     21a:	0711                	addi	a4,a4,4
     21c:	02460613          	addi	a2,a2,36
     220:	fff712e3          	bne	a4,t6,204 <main+0x5c>
     224:	0505                	addi	a0,a0,1
     226:	02478793          	addi	a5,a5,36
     22a:	02468693          	addi	a3,a3,36
     22e:	fd1513e3          	bne	a0,a7,1f4 <main+0x4c>
     232:	000e0663          	beqz	t3,23e <main+0x96>
     236:	000202b7          	lui	t0,0x20
     23a:	2f02aa23          	sw	a6,756(t0) # 202f4 <__SDATA_BEGIN__>
     23e:	00020337          	lui	t1,0x20
     242:	2f432583          	lw	a1,756(t1) # 202f4 <__SDATA_BEGIN__>
     246:	00020537          	lui	a0,0x20
     24a:	00050513          	mv	a0,a0
     24e:	280010ef          	jal	ra,14ce <printf>
     252:	000217b7          	lui	a5,0x21
     256:	3807ae23          	sw	zero,924(a5) # 2139c <loop>
     25a:	00021eb7          	lui	t4,0x21
     25e:	39cea583          	lw	a1,924(t4) # 2139c <loop>
     262:	3e700793          	li	a5,999
     266:	0cb7dd63          	ble	a1,a5,340 <main+0x198>
     26a:	00020f37          	lui	t5,0x20
     26e:	2f4f2603          	lw	a2,756(t5) # 202f4 <__SDATA_BEGIN__>
     272:	00020537          	lui	a0,0x20
     276:	01850513          	addi	a0,a0,24 # 20018 <load_previous_environment+0x1e47e>
     27a:	000209b7          	lui	s3,0x20
     27e:	250010ef          	jal	ra,14ce <printf>
     282:	4901                	li	s2,0
     284:	4aa5                	li	s5,9
     286:	8a4e                	mv	s4,s3
     288:	501c                	lw	a5,32(s0)
     28a:	03c98513          	addi	a0,s3,60 # 2003c <load_previous_environment+0x1e4a2>
     28e:	0905                	addi	s2,s2,1
     290:	c23e                	sw	a5,4(sp)
     292:	4c5c                	lw	a5,28(s0)
     294:	02440413          	addi	s0,s0,36
     298:	c03e                	sw	a5,0(sp)
     29a:	ff442883          	lw	a7,-12(s0)
     29e:	ff042803          	lw	a6,-16(s0)
     2a2:	fec42783          	lw	a5,-20(s0)
     2a6:	fe842703          	lw	a4,-24(s0)
     2aa:	fe442683          	lw	a3,-28(s0)
     2ae:	fe042603          	lw	a2,-32(s0)
     2b2:	fdc42583          	lw	a1,-36(s0)
     2b6:	218010ef          	jal	ra,14ce <printf>
     2ba:	fd5917e3          	bne	s2,s5,288 <main+0xe0>
     2be:	00020537          	lui	a0,0x20
     2c2:	05850513          	addi	a0,a0,88 # 20058 <load_previous_environment+0x1e4be>
     2c6:	208010ef          	jal	ra,14ce <printf>
     2ca:	00020537          	lui	a0,0x20
     2ce:	07850513          	addi	a0,a0,120 # 20078 <load_previous_environment+0x1e4de>
     2d2:	1fc010ef          	jal	ra,14ce <printf>
     2d6:	4401                	li	s0,0
     2d8:	4925                	li	s2,9
     2da:	509c                	lw	a5,32(s1)
     2dc:	0184a883          	lw	a7,24(s1)
     2e0:	0144a803          	lw	a6,20(s1)
     2e4:	c23e                	sw	a5,4(sp)
     2e6:	4cdc                	lw	a5,28(s1)
     2e8:	44d8                	lw	a4,12(s1)
     2ea:	4494                	lw	a3,8(s1)
     2ec:	c03e                	sw	a5,0(sp)
     2ee:	40d0                	lw	a2,4(s1)
     2f0:	489c                	lw	a5,16(s1)
     2f2:	408c                	lw	a1,0(s1)
     2f4:	03ca0513          	addi	a0,s4,60
     2f8:	0405                	addi	s0,s0,1
     2fa:	1d4010ef          	jal	ra,14ce <printf>
     2fe:	02448493          	addi	s1,s1,36
     302:	fd241ce3          	bne	s0,s2,2da <main+0x132>
     306:	40ba                	lw	ra,140(sp)
     308:	442a                	lw	s0,136(sp)
     30a:	449a                	lw	s1,132(sp)
     30c:	490a                	lw	s2,128(sp)
     30e:	59f6                	lw	s3,124(sp)
     310:	5a66                	lw	s4,120(sp)
     312:	5ad6                	lw	s5,116(sp)
     314:	5b46                	lw	s6,112(sp)
     316:	5bb6                	lw	s7,108(sp)
     318:	5c26                	lw	s8,104(sp)
     31a:	5c96                	lw	s9,100(sp)
     31c:	5d06                	lw	s10,96(sp)
     31e:	4df6                	lw	s11,92(sp)
     320:	4501                	li	a0,0
     322:	6149                	addi	sp,sp,144
     324:	8082                	ret
     326:	00259313          	slli	t1,a1,0x2
     32a:	9332                	add	t1,t1,a2
     32c:	01d32023          	sw	t4,0(t1)
     330:	0585                	addi	a1,a1,1
     332:	ff159ae3          	bne	a1,a7,326 <main+0x17e>
     336:	00e785b3          	add	a1,a5,a4
     33a:	0115a023          	sw	a7,0(a1)
     33e:	bdf1                	j	21a <main+0x72>
     340:	00020537          	lui	a0,0x20
     344:	00c50513          	addi	a0,a0,12 # 2000c <load_previous_environment+0x1e472>
     348:	186010ef          	jal	ra,14ce <printf>
     34c:	66b000ef          	jal	ra,11b6 <cal_matrix_maybe>
     350:	6b85                	lui	s7,0x1
     352:	8b22                	mv	s6,s0
     354:	8aa6                	mv	s5,s1
     356:	4a01                	li	s4,0
     358:	4c85                	li	s9,1
     35a:	4d25                	li	s10,9
     35c:	02400693          	li	a3,36
     360:	b64b8b93          	addi	s7,s7,-1180 # b64 <main+0x9bc>
     364:	00021537          	lui	a0,0x21
     368:	81050513          	addi	a0,a0,-2032 # 20810 <matrix_maybe>
     36c:	4901                	li	s2,0
     36e:	00aa0733          	add	a4,s4,a0
     372:	012a87b3          	add	a5,s5,s2
     376:	439c                	lw	a5,0(a5)
     378:	05979363          	bne	a5,s9,3be <main+0x216>
     37c:	012b0db3          	add	s11,s6,s2
     380:	000da983          	lw	s3,0(s11)
     384:	02099d63          	bnez	s3,3be <main+0x216>
     388:	03a90c33          	mul	s8,s2,s10
     38c:	9c3a                	add	s8,s8,a4
     38e:	00299793          	slli	a5,s3,0x2
     392:	97e2                	add	a5,a5,s8
     394:	439c                	lw	a5,0(a5)
     396:	0985                	addi	s3,s3,1
     398:	03979163          	bne	a5,s9,3ba <main+0x212>
     39c:	000203b7          	lui	t2,0x20
     3a0:	2f43a783          	lw	a5,756(t2) # 202f4 <__SDATA_BEGIN__>
     3a4:	013da023          	sw	s3,0(s11)
     3a8:	d036                	sw	a3,32(sp)
     3aa:	0785                	addi	a5,a5,1
     3ac:	ce3a                	sw	a4,28(sp)
     3ae:	2ef3aa23          	sw	a5,756(t2)
     3b2:	605000ef          	jal	ra,11b6 <cal_matrix_maybe>
     3b6:	4772                	lw	a4,28(sp)
     3b8:	5682                	lw	a3,32(sp)
     3ba:	fda99ae3          	bne	s3,s10,38e <main+0x1e6>
     3be:	0911                	addi	s2,s2,4
     3c0:	fad919e3          	bne	s2,a3,372 <main+0x1ca>
     3c4:	144a0a13          	addi	s4,s4,324
     3c8:	024a8a93          	addi	s5,s5,36
     3cc:	024b0b13          	addi	s6,s6,36
     3d0:	f97a1ae3          	bne	s4,s7,364 <main+0x1bc>
     3d4:	00021f37          	lui	t5,0x21
     3d8:	810f0f13          	addi	t5,t5,-2032 # 20810 <matrix_maybe>
     3dc:	8ca6                	mv	s9,s1
     3de:	8ba2                	mv	s7,s0
     3e0:	4b01                	li	s6,0
     3e2:	ffcf0613          	addi	a2,t5,-4
     3e6:	4d25                	li	s10,9
     3e8:	000210b7          	lui	ra,0x21
     3ec:	002b1a93          	slli	s5,s6,0x2
     3f0:	81008093          	addi	ra,ra,-2032 # 20810 <matrix_maybe>
     3f4:	9a86                	add	s5,s5,ra
     3f6:	4a01                	li	s4,0
     3f8:	4985                	li	s3,1
     3fa:	002a1c13          	slli	s8,s4,0x2
     3fe:	018b8db3          	add	s11,s7,s8
     402:	000da783          	lw	a5,0(s11)
     406:	e3d9                	bnez	a5,48c <main+0x2e4>
     408:	9c66                	add	s8,s8,s9
     40a:	4905                	li	s2,1
     40c:	02400593          	li	a1,36
     410:	00291793          	slli	a5,s2,0x2
     414:	97d6                	add	a5,a5,s5
     416:	ffc7a783          	lw	a5,-4(a5)
     41a:	07379563          	bne	a5,s3,484 <main+0x2dc>
     41e:	01690733          	add	a4,s2,s6
     422:	000216b7          	lui	a3,0x21
     426:	070a                	slli	a4,a4,0x2
     428:	3b36a023          	sw	s3,928(a3) # 213a0 <tag>
     42c:	9732                	add	a4,a4,a2
     42e:	4781                	li	a5,0
     430:	2efa0263          	beq	s4,a5,714 <main+0x56c>
     434:	00279693          	slli	a3,a5,0x2
     438:	96de                	add	a3,a3,s7
     43a:	4288                	lw	a0,0(a3)
     43c:	e519                	bnez	a0,44a <main+0x2a2>
     43e:	02b786b3          	mul	a3,a5,a1
     442:	96ba                	add	a3,a3,a4
     444:	4294                	lw	a3,0(a3)
     446:	01368463          	beq	a3,s3,44e <main+0x2a6>
     44a:	2d251563          	bne	a0,s2,714 <main+0x56c>
     44e:	00021737          	lui	a4,0x21
     452:	3a072023          	sw	zero,928(a4) # 213a0 <tag>
     456:	00021837          	lui	a6,0x21
     45a:	3a082783          	lw	a5,928(a6) # 213a0 <tag>
     45e:	03379363          	bne	a5,s3,484 <main+0x2dc>
     462:	00020eb7          	lui	t4,0x20
     466:	2f4ea783          	lw	a5,756(t4) # 202f4 <__SDATA_BEGIN__>
     46a:	012da023          	sw	s2,0(s11)
     46e:	013c2023          	sw	s3,0(s8)
     472:	0785                	addi	a5,a5,1
     474:	cc2e                	sw	a1,24(sp)
     476:	ca32                	sw	a2,20(sp)
     478:	2efeaa23          	sw	a5,756(t4)
     47c:	53b000ef          	jal	ra,11b6 <cal_matrix_maybe>
     480:	4652                	lw	a2,20(sp)
     482:	45e2                	lw	a1,24(sp)
     484:	0905                	addi	s2,s2,1
     486:	47a9                	li	a5,10
     488:	f8f914e3          	bne	s2,a5,410 <main+0x268>
     48c:	0a05                	addi	s4,s4,1
     48e:	024a8a93          	addi	s5,s5,36
     492:	f7aa14e3          	bne	s4,s10,3fa <main+0x252>
     496:	051b0b13          	addi	s6,s6,81
     49a:	2d900793          	li	a5,729
     49e:	024b8b93          	addi	s7,s7,36
     4a2:	024c8c93          	addi	s9,s9,36
     4a6:	f4fb11e3          	bne	s6,a5,3e8 <main+0x240>
     4aa:	00021737          	lui	a4,0x21
     4ae:	81070713          	addi	a4,a4,-2032 # 20810 <matrix_maybe>
     4b2:	4b81                	li	s7,0
     4b4:	4b01                	li	s6,0
     4b6:	4c25                	li	s8,9
     4b8:	ffc70613          	addi	a2,a4,-4
     4bc:	14400913          	li	s2,324
     4c0:	032b0933          	mul	s2,s6,s2
     4c4:	000217b7          	lui	a5,0x21
     4c8:	81078793          	addi	a5,a5,-2032 # 20810 <matrix_maybe>
     4cc:	8a22                	mv	s4,s0
     4ce:	4981                	li	s3,0
     4d0:	009b8db3          	add	s11,s7,s1
     4d4:	993e                	add	s2,s2,a5
     4d6:	017a0d33          	add	s10,s4,s7
     4da:	000d2783          	lw	a5,0(s10)
     4de:	e3d5                	bnez	a5,582 <main+0x3da>
     4e0:	038985b3          	mul	a1,s3,s8
     4e4:	00299c93          	slli	s9,s3,0x2
     4e8:	9cee                	add	s9,s9,s11
     4ea:	4a85                	li	s5,1
     4ec:	02400513          	li	a0,36
     4f0:	14400813          	li	a6,324
     4f4:	002a9793          	slli	a5,s5,0x2
     4f8:	97ca                	add	a5,a5,s2
     4fa:	ffc7a783          	lw	a5,-4(a5)
     4fe:	4705                	li	a4,1
     500:	06e79d63          	bne	a5,a4,57a <main+0x3d2>
     504:	00ba8733          	add	a4,s5,a1
     508:	000212b7          	lui	t0,0x21
     50c:	070a                	slli	a4,a4,0x2
     50e:	3af2a023          	sw	a5,928(t0) # 213a0 <tag>
     512:	9732                	add	a4,a4,a2
     514:	4781                	li	a5,0
     516:	4885                	li	a7,1
     518:	20fb0263          	beq	s6,a5,71c <main+0x574>
     51c:	02a786b3          	mul	a3,a5,a0
     520:	96d2                	add	a3,a3,s4
     522:	0006a303          	lw	t1,0(a3)
     526:	00031863          	bnez	t1,536 <main+0x38e>
     52a:	030786b3          	mul	a3,a5,a6
     52e:	96ba                	add	a3,a3,a4
     530:	4294                	lw	a3,0(a3)
     532:	01168463          	beq	a3,a7,53a <main+0x392>
     536:	1f531363          	bne	t1,s5,71c <main+0x574>
     53a:	00021337          	lui	t1,0x21
     53e:	3a032023          	sw	zero,928(t1) # 213a0 <tag>
     542:	000213b7          	lui	t2,0x21
     546:	3a03a703          	lw	a4,928(t2) # 213a0 <tag>
     54a:	4785                	li	a5,1
     54c:	02f71763          	bne	a4,a5,57a <main+0x3d2>
     550:	000206b7          	lui	a3,0x20
     554:	2f46a783          	lw	a5,756(a3) # 202f4 <__SDATA_BEGIN__>
     558:	015d2023          	sw	s5,0(s10)
     55c:	00eca023          	sw	a4,0(s9)
     560:	0785                	addi	a5,a5,1
     562:	d02a                	sw	a0,32(sp)
     564:	cc2e                	sw	a1,24(sp)
     566:	ca32                	sw	a2,20(sp)
     568:	ce42                	sw	a6,28(sp)
     56a:	2ef6aa23          	sw	a5,756(a3)
     56e:	449000ef          	jal	ra,11b6 <cal_matrix_maybe>
     572:	4872                	lw	a6,28(sp)
     574:	4652                	lw	a2,20(sp)
     576:	45e2                	lw	a1,24(sp)
     578:	5502                	lw	a0,32(sp)
     57a:	0a85                	addi	s5,s5,1
     57c:	47a9                	li	a5,10
     57e:	f6fa9be3          	bne	s5,a5,4f4 <main+0x34c>
     582:	0985                	addi	s3,s3,1
     584:	02490913          	addi	s2,s2,36
     588:	0a11                	addi	s4,s4,4
     58a:	f58996e3          	bne	s3,s8,4d6 <main+0x32e>
     58e:	0b05                	addi	s6,s6,1
     590:	024b8b93          	addi	s7,s7,36
     594:	f33b14e3          	bne	s6,s3,4bc <main+0x314>
     598:	8da2                	mv	s11,s0
     59a:	4981                	li	s3,0
     59c:	00020337          	lui	t1,0x20
     5a0:	4a8d                	li	s5,3
     5a2:	0359eab3          	rem	s5,s3,s5
     5a6:	14400793          	li	a5,324
     5aa:	00021a37          	lui	s4,0x21
     5ae:	810a0a13          	addi	s4,s4,-2032 # 20810 <matrix_maybe>
     5b2:	4901                	li	s2,0
     5b4:	41598ab3          	sub	s5,s3,s5
     5b8:	02f98b33          	mul	s6,s3,a5
     5bc:	02fa87b3          	mul	a5,s5,a5
     5c0:	9b52                	add	s6,s6,s4
     5c2:	d23e                	sw	a5,36(sp)
     5c4:	02400793          	li	a5,36
     5c8:	02f987b3          	mul	a5,s3,a5
     5cc:	97a6                	add	a5,a5,s1
     5ce:	d63e                	sw	a5,44(sp)
     5d0:	00291d13          	slli	s10,s2,0x2
     5d4:	01ad8e33          	add	t3,s11,s10
     5d8:	000e2783          	lw	a5,0(t3)
     5dc:	ebfd                	bnez	a5,6d2 <main+0x52a>
     5de:	4a0d                	li	s4,3
     5e0:	03496a33          	rem	s4,s2,s4
     5e4:	02400793          	li	a5,36
     5e8:	5812                	lw	a6,36(sp)
     5ea:	5c32                	lw	s8,44(sp)
     5ec:	4c81                	li	s9,0
     5ee:	4b85                	li	s7,1
     5f0:	9d62                	add	s10,s10,s8
     5f2:	4e8d                	li	t4,3
     5f4:	4c05                	li	s8,1
     5f6:	41490a33          	sub	s4,s2,s4
     5fa:	02fa07b3          	mul	a5,s4,a5
     5fe:	97c2                	add	a5,a5,a6
     600:	d43e                	sw	a5,40(sp)
     602:	019b07b3          	add	a5,s6,s9
     606:	438c                	lw	a1,0(a5)
     608:	0d859063          	bne	a1,s8,6c8 <main+0x520>
     60c:	53a2                	lw	t2,40(sp)
     60e:	00021737          	lui	a4,0x21
     612:	000210b7          	lui	ra,0x21
     616:	000212b7          	lui	t0,0x21
     61a:	019386b3          	add	a3,t2,s9
     61e:	00021f37          	lui	t5,0x21
     622:	81070713          	addi	a4,a4,-2032 # 20810 <matrix_maybe>
     626:	3b50a423          	sw	s5,936(ra) # 213a8 <check_i>
     62a:	3942aa23          	sw	s4,916(t0) # 21394 <check_j>
     62e:	3b8f2023          	sw	s8,928(t5) # 213a0 <tag>
     632:	4601                	li	a2,0
     634:	4501                	li	a0,0
     636:	43a5                	li	t2,9
     638:	14400293          	li	t0,324
     63c:	96ba                	add	a3,a3,a4
     63e:	02400093          	li	ra,36
     642:	00ca8f33          	add	t5,s5,a2
     646:	027f07b3          	mul	a5,t5,t2
     64a:	4701                	li	a4,0
     64c:	02560833          	mul	a6,a2,t0
     650:	97d2                	add	a5,a5,s4
     652:	078a                	slli	a5,a5,0x2
     654:	97a2                	add	a5,a5,s0
     656:	9836                	add	a6,a6,a3
     658:	01e99663          	bne	s3,t5,664 <main+0x4bc>
     65c:	014708b3          	add	a7,a4,s4
     660:	03190263          	beq	s2,a7,684 <main+0x4dc>
     664:	00271893          	slli	a7,a4,0x2
     668:	98be                	add	a7,a7,a5
     66a:	0008af83          	lw	t6,0(a7)
     66e:	000f9963          	bnez	t6,680 <main+0x4d8>
     672:	021708b3          	mul	a7,a4,ra
     676:	98c2                	add	a7,a7,a6
     678:	0008a883          	lw	a7,0(a7)
     67c:	0b888463          	beq	a7,s8,724 <main+0x57c>
     680:	0b7f8263          	beq	t6,s7,724 <main+0x57c>
     684:	0705                	addi	a4,a4,1
     686:	fdd719e3          	bne	a4,t4,658 <main+0x4b0>
     68a:	0605                	addi	a2,a2,1
     68c:	fbd61be3          	bne	a2,t4,642 <main+0x49a>
     690:	c509                	beqz	a0,69a <main+0x4f2>
     692:	000217b7          	lui	a5,0x21
     696:	3ab7a023          	sw	a1,928(a5) # 213a0 <tag>
     69a:	00021837          	lui	a6,0x21
     69e:	3a082783          	lw	a5,928(a6) # 213a0 <tag>
     6a2:	03879363          	bne	a5,s8,6c8 <main+0x520>
     6a6:	2f432783          	lw	a5,756(t1) # 202f4 <__SDATA_BEGIN__>
     6aa:	017e2023          	sw	s7,0(t3)
     6ae:	018d2023          	sw	s8,0(s10)
     6b2:	0785                	addi	a5,a5,1
     6b4:	2ef32a23          	sw	a5,756(t1)
     6b8:	cc1a                	sw	t1,24(sp)
     6ba:	d072                	sw	t3,32(sp)
     6bc:	ce76                	sw	t4,28(sp)
     6be:	2f9000ef          	jal	ra,11b6 <cal_matrix_maybe>
     6c2:	4ef2                	lw	t4,28(sp)
     6c4:	5e02                	lw	t3,32(sp)
     6c6:	4362                	lw	t1,24(sp)
     6c8:	0b85                	addi	s7,s7,1
     6ca:	47a9                	li	a5,10
     6cc:	0c91                	addi	s9,s9,4
     6ce:	f2fb9ae3          	bne	s7,a5,602 <main+0x45a>
     6d2:	0905                	addi	s2,s2,1
     6d4:	47a5                	li	a5,9
     6d6:	024b0b13          	addi	s6,s6,36
     6da:	eef91be3          	bne	s2,a5,5d0 <main+0x428>
     6de:	0985                	addi	s3,s3,1
     6e0:	024d8d93          	addi	s11,s11,36
     6e4:	eb299ee3          	bne	s3,s2,5a0 <main+0x3f8>
     6e8:	00021eb7          	lui	t4,0x21
     6ec:	00020f37          	lui	t5,0x20
     6f0:	4581                	li	a1,0
     6f2:	14400a13          	li	s4,324
     6f6:	5c7d                	li	s8,-1
     6f8:	810e8e93          	addi	t4,t4,-2032 # 20810 <matrix_maybe>
     6fc:	300f0f13          	addi	t5,t5,768 # 20300 <matrix_maybe_num>
     700:	00358a93          	addi	s5,a1,3
     704:	03458933          	mul	s2,a1,s4
     708:	4881                	li	a7,0
     70a:	4825                	li	a6,9
     70c:	02400e13          	li	t3,36
     710:	4085                	li	ra,1
     712:	aa1d                	j	848 <main+0x6a0>
     714:	0785                	addi	a5,a5,1
     716:	d1a79de3          	bne	a5,s10,430 <main+0x288>
     71a:	bb35                	j	456 <main+0x2ae>
     71c:	0785                	addi	a5,a5,1
     71e:	df879de3          	bne	a5,s8,518 <main+0x370>
     722:	b505                	j	542 <main+0x39a>
     724:	4581                	li	a1,0
     726:	4505                	li	a0,1
     728:	b78d                	j	68a <main+0x4e2>
     72a:	00269313          	slli	t1,a3,0x2
     72e:	936a                	add	t1,t1,s10
     730:	4281                	li	t0,0
     732:	577d                	li	a4,-1
     734:	57fd                	li	a5,-1
     736:	00b283b3          	add	t2,t0,a1
     73a:	03038633          	mul	a2,t2,a6
     73e:	4501                	li	a0,0
     740:	9646                	add	a2,a2,a7
     742:	060a                	slli	a2,a2,0x2
     744:	9622                	add	a2,a2,s0
     746:	03c509b3          	mul	s3,a0,t3
     74a:	01150bb3          	add	s7,a0,a7
     74e:	999a                	add	s3,s3,t1
     750:	0009a983          	lw	s3,0(s3)
     754:	02199463          	bne	s3,ra,77c <main+0x5d4>
     758:	00251993          	slli	s3,a0,0x2
     75c:	99b2                	add	s3,s3,a2
     75e:	0009a983          	lw	s3,0(s3)
     762:	00099d63          	bnez	s3,77c <main+0x5d4>
     766:	11878063          	beq	a5,s8,866 <main+0x6be>
     76a:	0e07cc63          	bltz	a5,862 <main+0x6ba>
     76e:	0ef39a63          	bne	t2,a5,862 <main+0x6ba>
     772:	879e                	mv	a5,t2
     774:	0e074c63          	bltz	a4,86c <main+0x6c4>
     778:	0eeb9a63          	bne	s7,a4,86c <main+0x6c4>
     77c:	0505                	addi	a0,a0,1
     77e:	fd6514e3          	bne	a0,s6,746 <main+0x59e>
     782:	0285                	addi	t0,t0,1
     784:	14430313          	addi	t1,t1,324
     788:	fb6297e3          	bne	t0,s6,736 <main+0x58e>
     78c:	04f05d63          	blez	a5,7e6 <main+0x63e>
     790:	03c782b3          	mul	t0,a5,t3
     794:	4601                	li	a2,0
     796:	039787b3          	mul	a5,a5,s9
     79a:	97b6                	add	a5,a5,a3
     79c:	078a                	slli	a5,a5,0x2
     79e:	01164463          	blt	a2,a7,7a6 <main+0x5fe>
     7a2:	03f64f63          	blt	a2,t6,7e0 <main+0x638>
     7a6:	00261513          	slli	a0,a2,0x2
     7aa:	00020db7          	lui	s11,0x20
     7ae:	9516                	add	a0,a0,t0
     7b0:	190d8d93          	addi	s11,s11,400 # 20190 <matrix_exact>
     7b4:	00ad8333          	add	t1,s11,a0
     7b8:	00032303          	lw	t1,0(t1)
     7bc:	02031263          	bnez	t1,7e0 <main+0x638>
     7c0:	03c60333          	mul	t1,a2,t3
     7c4:	933e                	add	t1,t1,a5
     7c6:	9376                	add	t1,t1,t4
     7c8:	00032383          	lw	t2,0(t1)
     7cc:	00139a63          	bne	t2,ra,7e0 <main+0x638>
     7d0:	957a                	add	a0,a0,t5
     7d2:	00032023          	sw	zero,0(t1)
     7d6:	00052303          	lw	t1,0(a0)
     7da:	137d                	addi	t1,t1,-1
     7dc:	00652023          	sw	t1,0(a0)
     7e0:	0605                	addi	a2,a2,1
     7e2:	fb061ee3          	bne	a2,a6,79e <main+0x5f6>
     7e6:	04e05963          	blez	a4,838 <main+0x690>
     7ea:	00271313          	slli	t1,a4,0x2
     7ee:	03070733          	mul	a4,a4,a6
     7f2:	4781                	li	a5,0
     7f4:	9736                	add	a4,a4,a3
     7f6:	070a                	slli	a4,a4,0x2
     7f8:	00b7c463          	blt	a5,a1,800 <main+0x658>
     7fc:	0357cb63          	blt	a5,s5,832 <main+0x68a>
     800:	03c78633          	mul	a2,a5,t3
     804:	000202b7          	lui	t0,0x20
     808:	19028293          	addi	t0,t0,400 # 20190 <matrix_exact>
     80c:	961a                	add	a2,a2,t1
     80e:	00c28533          	add	a0,t0,a2
     812:	4108                	lw	a0,0(a0)
     814:	ed19                	bnez	a0,832 <main+0x68a>
     816:	03478533          	mul	a0,a5,s4
     81a:	953a                	add	a0,a0,a4
     81c:	9576                	add	a0,a0,t4
     81e:	00052283          	lw	t0,0(a0)
     822:	00129863          	bne	t0,ra,832 <main+0x68a>
     826:	967a                	add	a2,a2,t5
     828:	00052023          	sw	zero,0(a0)
     82c:	4208                	lw	a0,0(a2)
     82e:	157d                	addi	a0,a0,-1
     830:	c208                	sw	a0,0(a2)
     832:	0785                	addi	a5,a5,1
     834:	fd0792e3          	bne	a5,a6,7f8 <main+0x650>
     838:	0685                	addi	a3,a3,1
     83a:	ef0698e3          	bne	a3,a6,72a <main+0x582>
     83e:	06c90913          	addi	s2,s2,108
     842:	88fe                	mv	a7,t6
     844:	02df8663          	beq	t6,a3,870 <main+0x6c8>
     848:	00021337          	lui	t1,0x21
     84c:	81030313          	addi	t1,t1,-2032 # 20810 <matrix_maybe>
     850:	00388f93          	addi	t6,a7,3
     854:	4681                	li	a3,0
     856:	00690d33          	add	s10,s2,t1
     85a:	4b0d                	li	s6,3
     85c:	05100c93          	li	s9,81
     860:	b5e9                	j	72a <main+0x582>
     862:	57f9                	li	a5,-2
     864:	bf01                	j	774 <main+0x5cc>
     866:	875e                	mv	a4,s7
     868:	879e                	mv	a5,t2
     86a:	bf09                	j	77c <main+0x5d4>
     86c:	5779                	li	a4,-2
     86e:	b739                	j	77c <main+0x5d4>
     870:	85d6                	mv	a1,s5
     872:	e9fa97e3          	bne	s5,t6,700 <main+0x558>
     876:	468d                	li	a3,3
     878:	000217b7          	lui	a5,0x21
     87c:	00021737          	lui	a4,0x21
     880:	00021f37          	lui	t5,0x21
     884:	00020fb7          	lui	t6,0x20
     888:	38d7aa23          	sw	a3,916(a5) # 21394 <check_j>
     88c:	3ad72423          	sw	a3,936(a4) # 213a8 <check_i>
     890:	4081                	li	ra,0
     892:	4381                	li	t2,0
     894:	4e81                	li	t4,0
     896:	5cfd                	li	s9,-1
     898:	4d31                	li	s10,12
     89a:	4905                	li	s2,1
     89c:	55fd                	li	a1,-1
     89e:	810f0f13          	addi	t5,t5,-2032 # 20810 <matrix_maybe>
     8a2:	300f8f93          	addi	t6,t6,768 # 20300 <matrix_maybe_num>
     8a6:	008e8b33          	add	s6,t4,s0
     8aa:	4681                	li	a3,0
     8ac:	d25a                	sw	s6,36(sp)
     8ae:	5af9                	li	s5,-2
     8b0:	4625                	li	a2,9
     8b2:	a0f9                	j	980 <main+0x7d8>
     8b4:	5df1                	li	s11,-4
     8b6:	03b70a33          	mul	s4,a4,s11
     8ba:	9a72                	add	s4,s4,t3
     8bc:	00ca2a03          	lw	s4,12(s4)
     8c0:	100a1163          	bnez	s4,9c2 <main+0x81a>
     8c4:	fdc00d93          	li	s11,-36
     8c8:	03b70a33          	mul	s4,a4,s11
     8cc:	9a4e                	add	s4,s4,s3
     8ce:	06ca2a03          	lw	s4,108(s4)
     8d2:	0f2a1863          	bne	s4,s2,9c2 <main+0x81a>
     8d6:	00082a03          	lw	s4,0(a6)
     8da:	019a1563          	bne	s4,s9,8e4 <main+0x73c>
     8de:	00582023          	sw	t0,0(a6)
     8e2:	a0c5                	j	9c2 <main+0x81a>
     8e4:	0c5a0f63          	beq	s4,t0,9c2 <main+0x81a>
     8e8:	00052a03          	lw	s4,0(a0)
     8ec:	019a1563          	bne	s4,s9,8f6 <main+0x74e>
     8f0:	00552023          	sw	t0,0(a0)
     8f4:	a0f9                	j	9c2 <main+0x81a>
     8f6:	0c5a0663          	beq	s4,t0,9c2 <main+0x81a>
     8fa:	01582023          	sw	s5,0(a6)
     8fe:	01552023          	sw	s5,0(a0)
     902:	a0c1                	j	9c2 <main+0x81a>
     904:	000209b7          	lui	s3,0x20
     908:	01c882b3          	add	t0,a7,t3
     90c:	19098993          	addi	s3,s3,400 # 20190 <matrix_exact>
     910:	00598333          	add	t1,s3,t0
     914:	00032303          	lw	t1,0(t1)
     918:	02031263          	bnez	t1,93c <main+0x794>
     91c:	02c88333          	mul	t1,a7,a2
     920:	932a                	add	t1,t1,a0
     922:	937a                	add	t1,t1,t5
     924:	00032983          	lw	s3,0(t1)
     928:	01299a63          	bne	s3,s2,93c <main+0x794>
     92c:	92fe                	add	t0,t0,t6
     92e:	00032023          	sw	zero,0(t1)
     932:	0002a303          	lw	t1,0(t0)
     936:	137d                	addi	t1,t1,-1
     938:	0062a023          	sw	t1,0(t0)
     93c:	00020a37          	lui	s4,0x20
     940:	00f882b3          	add	t0,a7,a5
     944:	190a0a13          	addi	s4,s4,400 # 20190 <matrix_exact>
     948:	005a0333          	add	t1,s4,t0
     94c:	00032303          	lw	t1,0(t1)
     950:	02031263          	bnez	t1,974 <main+0x7cc>
     954:	02c88333          	mul	t1,a7,a2
     958:	9342                	add	t1,t1,a6
     95a:	937a                	add	t1,t1,t5
     95c:	00032983          	lw	s3,0(t1)
     960:	01299a63          	bne	s3,s2,974 <main+0x7cc>
     964:	92fe                	add	t0,t0,t6
     966:	00032023          	sw	zero,0(t1)
     96a:	0002a303          	lw	t1,0(t0)
     96e:	137d                	addi	t1,t1,-1
     970:	0062a023          	sw	t1,0(t0)
     974:	0891                	addi	a7,a7,4
     976:	f9a897e3          	bne	a7,s10,904 <main+0x75c>
     97a:	0685                	addi	a3,a3,1
     97c:	0ac68a63          	beq	a3,a2,a30 <main+0x888>
     980:	00168333          	add	t1,a3,ra
     984:	dc2e                	sw	a1,56(sp)
     986:	c2ae                	sw	a1,68(sp)
     988:	de2e                	sw	a1,60(sp)
     98a:	c4ae                	sw	a1,72(sp)
     98c:	c0ae                	sw	a1,64(sp)
     98e:	c6ae                	sw	a1,76(sp)
     990:	030a                	slli	t1,t1,0x2
     992:	03810813          	addi	a6,sp,56
     996:	00c8                	addi	a0,sp,68
     998:	4781                	li	a5,0
     99a:	14400b93          	li	s7,324
     99e:	4b0d                	li	s6,3
     9a0:	03a78e33          	mul	t3,a5,s10
     9a4:	5712                	lw	a4,36(sp)
     9a6:	000219b7          	lui	s3,0x21
     9aa:	81098993          	addi	s3,s3,-2032 # 20810 <matrix_maybe>
     9ae:	4881                	li	a7,0
     9b0:	01330c33          	add	s8,t1,s3
     9b4:	9e3a                	add	t3,t3,a4
     9b6:	037889b3          	mul	s3,a7,s7
     9ba:	007882b3          	add	t0,a7,t2
     9be:	4711                	li	a4,4
     9c0:	99e2                	add	s3,s3,s8
     9c2:	177d                	addi	a4,a4,-1
     9c4:	ee0718e3          	bnez	a4,8b4 <main+0x70c>
     9c8:	0885                	addi	a7,a7,1
     9ca:	024e0e13          	addi	t3,t3,36
     9ce:	ff6894e3          	bne	a7,s6,9b6 <main+0x80e>
     9d2:	0785                	addi	a5,a5,1
     9d4:	06c30313          	addi	t1,t1,108
     9d8:	0811                	addi	a6,a6,4
     9da:	0511                	addi	a0,a0,4
     9dc:	fd1792e3          	bne	a5,a7,9a0 <main+0x7f8>
     9e0:	5562                	lw	a0,56(sp)
     9e2:	00021337          	lui	t1,0x21
     9e6:	000212b7          	lui	t0,0x21
     9ea:	3af32423          	sw	a5,936(t1) # 213a8 <check_i>
     9ee:	38f2aa23          	sw	a5,916(t0) # 21394 <check_j>
     9f2:	5372                	lw	t1,60(sp)
     9f4:	02054063          	bltz	a0,a14 <main+0x86c>
     9f8:	4896                	lw	a7,68(sp)
     9fa:	0008cd63          	bltz	a7,a14 <main+0x86c>
     9fe:	00651563          	bne	a0,t1,a08 <main+0x860>
     a02:	4826                	lw	a6,72(sp)
     a04:	75088563          	beq	a7,a6,114e <__stack_size+0x14e>
     a08:	4806                	lw	a6,64(sp)
     a0a:	01051563          	bne	a0,a6,a14 <main+0x86c>
     a0e:	4836                	lw	a6,76(sp)
     a10:	75088063          	beq	a7,a6,1150 <__stack_size+0x150>
     a14:	851a                	mv	a0,t1
     a16:	f60342e3          	bltz	t1,97a <main+0x7d2>
     a1a:	47a6                	lw	a5,72(sp)
     a1c:	f407cfe3          	bltz	a5,97a <main+0x7d2>
     a20:	4806                	lw	a6,64(sp)
     a22:	f5031ce3          	bne	t1,a6,97a <main+0x7d2>
     a26:	4836                	lw	a6,76(sp)
     a28:	f50799e3          	bne	a5,a6,97a <main+0x7d2>
     a2c:	4781                	li	a5,0
     a2e:	a70d                	j	1150 <__stack_size+0x150>
     a30:	06ce8e93          	addi	t4,t4,108
     a34:	14400793          	li	a5,324
     a38:	038d                	addi	t2,t2,3
     a3a:	0f308093          	addi	ra,ra,243
     a3e:	e6fe94e3          	bne	t4,a5,8a6 <main+0x6fe>
     a42:	00021fb7          	lui	t6,0x21
     a46:	000202b7          	lui	t0,0x20
     a4a:	4f01                	li	t5,0
     a4c:	4e81                	li	t4,0
     a4e:	5b7d                	li	s6,-1
     a50:	4ded                	li	s11,27
     a52:	02400c93          	li	s9,36
     a56:	4985                	li	s3,1
     a58:	5bf9                	li	s7,-2
     a5a:	557d                	li	a0,-1
     a5c:	810f8f93          	addi	t6,t6,-2032 # 20810 <matrix_maybe>
     a60:	30028293          	addi	t0,t0,768 # 20300 <matrix_maybe_num>
     a64:	4601                	li	a2,0
     a66:	14400d13          	li	s10,324
     a6a:	490d                	li	s2,3
     a6c:	45a5                	li	a1,9
     a6e:	a045                	j	b0e <main+0x966>
     a70:	101a8363          	beq	s5,ra,b76 <main+0x9ce>
     a74:	0008aa83          	lw	s5,0(a7)
     a78:	016a9563          	bne	s5,s6,a82 <main+0x8da>
     a7c:	0018a023          	sw	ra,0(a7)
     a80:	a8dd                	j	b76 <main+0x9ce>
     a82:	0e1a8a63          	beq	s5,ra,b76 <main+0x9ce>
     a86:	01732023          	sw	s7,0(t1)
     a8a:	0178a023          	sw	s7,0(a7)
     a8e:	a0e5                	j	b76 <main+0x9ce>
     a90:	00020a37          	lui	s4,0x20
     a94:	00780e33          	add	t3,a6,t2
     a98:	190a0a13          	addi	s4,s4,400 # 20190 <matrix_exact>
     a9c:	01ca0333          	add	t1,s4,t3
     aa0:	00032303          	lw	t1,0(t1)
     aa4:	02031263          	bnez	t1,ac8 <main+0x920>
     aa8:	02b80333          	mul	t1,a6,a1
     aac:	9336                	add	t1,t1,a3
     aae:	937e                	add	t1,t1,t6
     ab0:	00032a03          	lw	s4,0(t1)
     ab4:	013a1a63          	bne	s4,s3,ac8 <main+0x920>
     ab8:	9e16                	add	t3,t3,t0
     aba:	00032023          	sw	zero,0(t1)
     abe:	000e2303          	lw	t1,0(t3)
     ac2:	137d                	addi	t1,t1,-1
     ac4:	006e2023          	sw	t1,0(t3)
     ac8:	00020c37          	lui	s8,0x20
     acc:	01180e33          	add	t3,a6,a7
     ad0:	190c0c13          	addi	s8,s8,400 # 20190 <matrix_exact>
     ad4:	01cc0333          	add	t1,s8,t3
     ad8:	00032303          	lw	t1,0(t1)
     adc:	02031263          	bnez	t1,b00 <main+0x958>
     ae0:	02b80333          	mul	t1,a6,a1
     ae4:	933e                	add	t1,t1,a5
     ae6:	937e                	add	t1,t1,t6
     ae8:	00032a03          	lw	s4,0(t1)
     aec:	013a1a63          	bne	s4,s3,b00 <main+0x958>
     af0:	9e16                	add	t3,t3,t0
     af2:	00032023          	sw	zero,0(t1)
     af6:	000e2303          	lw	t1,0(t3)
     afa:	137d                	addi	t1,t1,-1
     afc:	006e2023          	sw	t1,0(t3)
     b00:	02480813          	addi	a6,a6,36
     b04:	f81816e3          	bne	a6,ra,a90 <main+0x8e8>
     b08:	0605                	addi	a2,a2,1
     b0a:	0cb60d63          	beq	a2,a1,be4 <main+0xa3c>
     b0e:	01e60e33          	add	t3,a2,t5
     b12:	dc2a                	sw	a0,56(sp)
     b14:	c2aa                	sw	a0,68(sp)
     b16:	de2a                	sw	a0,60(sp)
     b18:	c4aa                	sw	a0,72(sp)
     b1a:	c0aa                	sw	a0,64(sp)
     b1c:	c6aa                	sw	a0,76(sp)
     b1e:	0e0a                	slli	t3,t3,0x2
     b20:	03810313          	addi	t1,sp,56
     b24:	04410893          	addi	a7,sp,68
     b28:	4781                	li	a5,0
     b2a:	03b786b3          	mul	a3,a5,s11
     b2e:	000210b7          	lui	ra,0x21
     b32:	81008093          	addi	ra,ra,-2032 # 20810 <matrix_maybe>
     b36:	4381                	li	t2,0
     b38:	001e0c33          	add	s8,t3,ra
     b3c:	96f6                	add	a3,a3,t4
     b3e:	068a                	slli	a3,a3,0x2
     b40:	96a2                	add	a3,a3,s0
     b42:	03a38a33          	mul	s4,t2,s10
     b46:	4801                	li	a6,0
     b48:	9a62                	add	s4,s4,s8
     b4a:	00281a93          	slli	s5,a6,0x2
     b4e:	9ab6                	add	s5,s5,a3
     b50:	000aaa83          	lw	s5,0(s5)
     b54:	01d800b3          	add	ra,a6,t4
     b58:	000a9f63          	bnez	s5,b76 <main+0x9ce>
     b5c:	03980ab3          	mul	s5,a6,s9
     b60:	9ad2                	add	s5,s5,s4
     b62:	000aaa83          	lw	s5,0(s5)
     b66:	013a9863          	bne	s5,s3,b76 <main+0x9ce>
     b6a:	00032a83          	lw	s5,0(t1)
     b6e:	f16a91e3          	bne	s5,s6,a70 <main+0x8c8>
     b72:	00132023          	sw	ra,0(t1)
     b76:	0805                	addi	a6,a6,1
     b78:	fd2819e3          	bne	a6,s2,b4a <main+0x9a2>
     b7c:	0385                	addi	t2,t2,1
     b7e:	02468693          	addi	a3,a3,36
     b82:	fd2390e3          	bne	t2,s2,b42 <main+0x99a>
     b86:	0785                	addi	a5,a5,1
     b88:	3cce0e13          	addi	t3,t3,972
     b8c:	0311                	addi	t1,t1,4
     b8e:	0891                	addi	a7,a7,4
     b90:	f9279de3          	bne	a5,s2,b2a <main+0x982>
     b94:	56e2                	lw	a3,56(sp)
     b96:	00021337          	lui	t1,0x21
     b9a:	000213b7          	lui	t2,0x21
     b9e:	38f32a23          	sw	a5,916(t1) # 21394 <check_j>
     ba2:	3af3a423          	sw	a5,936(t2) # 213a8 <check_i>
     ba6:	5372                	lw	t1,60(sp)
     ba8:	0206c063          	bltz	a3,bc8 <main+0xa20>
     bac:	4896                	lw	a7,68(sp)
     bae:	0008cd63          	bltz	a7,bc8 <main+0xa20>
     bb2:	00669563          	bne	a3,t1,bbc <main+0xa14>
     bb6:	4826                	lw	a6,72(sp)
     bb8:	5d088563          	beq	a7,a6,1182 <__stack_size+0x182>
     bbc:	4806                	lw	a6,64(sp)
     bbe:	01069563          	bne	a3,a6,bc8 <main+0xa20>
     bc2:	4836                	lw	a6,76(sp)
     bc4:	5d088063          	beq	a7,a6,1184 <__stack_size+0x184>
     bc8:	869a                	mv	a3,t1
     bca:	f2034fe3          	bltz	t1,b08 <main+0x960>
     bce:	47a6                	lw	a5,72(sp)
     bd0:	f207cce3          	bltz	a5,b08 <main+0x960>
     bd4:	4806                	lw	a6,64(sp)
     bd6:	f30319e3          	bne	t1,a6,b08 <main+0x960>
     bda:	4836                	lw	a6,76(sp)
     bdc:	f30796e3          	bne	a5,a6,b08 <main+0x960>
     be0:	4781                	li	a5,0
     be2:	a34d                	j	1184 <__stack_size+0x184>
     be4:	0f6d                	addi	t5,t5,27
     be6:	05100793          	li	a5,81
     bea:	0e8d                	addi	t4,t4,3
     bec:	e6ff1ce3          	bne	t5,a5,a64 <main+0x8bc>
     bf0:	00020337          	lui	t1,0x20
     bf4:	8e22                	mv	t3,s0
     bf6:	4581                	li	a1,0
     bf8:	30030313          	addi	t1,t1,768 # 20300 <matrix_maybe_num>
     bfc:	4ea5                	li	t4,9
     bfe:	02400f93          	li	t6,36
     c02:	4285                	li	t0,1
     c04:	4f29                	li	t5,10
     c06:	14400393          	li	t2,324
     c0a:	03d58633          	mul	a2,a1,t4
     c0e:	00021cb7          	lui	s9,0x21
     c12:	14430793          	addi	a5,t1,324
     c16:	810c8c93          	addi	s9,s9,-2032 # 20810 <matrix_maybe>
     c1a:	00f586b3          	add	a3,a1,a5
     c1e:	4885                	li	a7,1
     c20:	9666                	add	a2,a2,s9
     c22:	0006a023          	sw	zero,0(a3)
     c26:	4501                	li	a0,0
     c28:	00251813          	slli	a6,a0,0x2
     c2c:	9872                	add	a6,a6,t3
     c2e:	00082803          	lw	a6,0(a6)
     c32:	4b181663          	bne	a6,a7,10de <__stack_size+0xde>
     c36:	0006a023          	sw	zero,0(a3)
     c3a:	0885                	addi	a7,a7,1
     c3c:	0691                	addi	a3,a3,4
     c3e:	0611                	addi	a2,a2,4
     c40:	ffe891e3          	bne	a7,t5,c22 <main+0xa7a>
     c44:	02458593          	addi	a1,a1,36
     c48:	024e0e13          	addi	t3,t3,36
     c4c:	fa759fe3          	bne	a1,t2,c0a <main+0xa62>
     c50:	4601                	li	a2,0
     c52:	8e22                	mv	t3,s0
     c54:	02400f13          	li	t5,36
     c58:	14400e93          	li	t4,324
     c5c:	4285                	li	t0,1
     c5e:	43a5                	li	t2,9
     c60:	4fa9                	li	t6,10
     c62:	00021db7          	lui	s11,0x21
     c66:	810d8d93          	addi	s11,s11,-2032 # 20810 <matrix_maybe>
     c6a:	00f606b3          	add	a3,a2,a5
     c6e:	01b608b3          	add	a7,a2,s11
     c72:	4805                	li	a6,1
     c74:	1406a223          	sw	zero,324(a3)
     c78:	4581                	li	a1,0
     c7a:	03e58533          	mul	a0,a1,t5
     c7e:	9572                	add	a0,a0,t3
     c80:	4108                	lw	a0,0(a0)
     c82:	49051063          	bne	a0,a6,1102 <__stack_size+0x102>
     c86:	1406a223          	sw	zero,324(a3)
     c8a:	0805                	addi	a6,a6,1
     c8c:	0691                	addi	a3,a3,4
     c8e:	0891                	addi	a7,a7,4
     c90:	fff812e3          	bne	a6,t6,c74 <main+0xacc>
     c94:	02460613          	addi	a2,a2,36
     c98:	0e11                	addi	t3,t3,4
     c9a:	fdd614e3          	bne	a2,t4,c62 <main+0xaba>
     c9e:	00021fb7          	lui	t6,0x21
     ca2:	4581                	li	a1,0
     ca4:	450d                	li	a0,3
     ca6:	02400293          	li	t0,36
     caa:	4e25                	li	t3,9
     cac:	05100093          	li	ra,81
     cb0:	810f8f93          	addi	t6,t6,-2032 # 20810 <matrix_maybe>
     cb4:	4905                	li	s2,1
     cb6:	43a9                	li	t2,10
     cb8:	02a5cf33          	div	t5,a1,a0
     cbc:	4805                	li	a6,1
     cbe:	02a5eeb3          	rem	t4,a1,a0
     cc2:	02558633          	mul	a2,a1,t0
     cc6:	02af0f33          	mul	t5,t5,a0
     cca:	963e                	add	a2,a2,a5
     ccc:	02ae8eb3          	mul	t4,t4,a0
     cd0:	fff80993          	addi	s3,a6,-1
     cd4:	28062423          	sw	zero,648(a2)
     cd8:	4881                	li	a7,0
     cda:	00020b37          	lui	s6,0x20
     cde:	190b0b13          	addi	s6,s6,400 # 20190 <matrix_exact>
     ce2:	02a8ca33          	div	s4,a7,a0
     ce6:	02a8e6b3          	rem	a3,a7,a0
     cea:	9a7a                	add	s4,s4,t5
     cec:	03ca0ab3          	mul	s5,s4,t3
     cf0:	96f6                	add	a3,a3,t4
     cf2:	9ab6                	add	s5,s5,a3
     cf4:	0a8a                	slli	s5,s5,0x2
     cf6:	9ada                	add	s5,s5,s6
     cf8:	000aaa83          	lw	s5,0(s5)
     cfc:	430a9363          	bne	s5,a6,1122 <__stack_size+0x122>
     d00:	28062423          	sw	zero,648(a2)
     d04:	0805                	addi	a6,a6,1
     d06:	0611                	addi	a2,a2,4
     d08:	fc7814e3          	bne	a6,t2,cd0 <main+0xb28>
     d0c:	0585                	addi	a1,a1,1
     d0e:	fbc595e3          	bne	a1,t3,cb8 <main+0xb10>
     d12:	00021f37          	lui	t5,0x21
     d16:	89a2                	mv	s3,s0
     d18:	8a3e                	mv	s4,a5
     d1a:	4881                	li	a7,0
     d1c:	14400913          	li	s2,324
     d20:	4e09                	li	t3,2
     d22:	02400a93          	li	s5,36
     d26:	4b05                	li	s6,1
     d28:	45a5                	li	a1,9
     d2a:	810f0f13          	addi	t5,t5,-2032 # 20810 <matrix_maybe>
     d2e:	03288633          	mul	a2,a7,s2
     d32:	40e782b3          	sub	t0,a5,a4
     d36:	4e81                	li	t4,0
     d38:	d216                	sw	t0,36(sp)
     d3a:	00ca06b3          	add	a3,s4,a2
     d3e:	4294                	lw	a3,0(a3)
     d40:	001e8b93          	addi	s7,t4,1
     d44:	0fc69863          	bne	a3,t3,e34 <main+0xc8c>
     d48:	4c81                	li	s9,0
     d4a:	de66                	sw	s9,60(sp)
     d4c:	c4e6                	sw	s9,72(sp)
     d4e:	5c92                	lw	s9,36(sp)
     d50:	00021db7          	lui	s11,0x21
     d54:	000210b7          	lui	ra,0x21
     d58:	4c01                	li	s8,0
     d5a:	810d8d93          	addi	s11,s11,-2032 # 20810 <matrix_maybe>
     d5e:	81408093          	addi	ra,ra,-2028 # 20814 <matrix_maybe+0x4>
     d62:	dc62                	sw	s8,56(sp)
     d64:	c2e2                	sw	s8,68(sp)
     d66:	8fde                	mv	t6,s7
     d68:	00cc8c33          	add	s8,s9,a2
     d6c:	4281                	li	t0,0
     d6e:	01b60cb3          	add	s9,a2,s11
     d72:	00c08d33          	add	s10,ra,a2
     d76:	005c06b3          	add	a3,s8,t0
     d7a:	42d4                	lw	a3,4(a3)
     d7c:	0bc69863          	bne	a3,t3,e2c <main+0xc84>
     d80:	4501                	li	a0,0
     d82:	4681                	li	a3,0
     d84:	005d03b3          	add	t2,s10,t0
     d88:	00269813          	slli	a6,a3,0x2
     d8c:	984e                	add	a6,a6,s3
     d8e:	00082803          	lw	a6,0(a6)
     d92:	02081963          	bnez	a6,dc4 <main+0xc1c>
     d96:	03568833          	mul	a6,a3,s5
     d9a:	010c80b3          	add	ra,s9,a6
     d9e:	0000a083          	lw	ra,0(ra)
     da2:	03609163          	bne	ra,s6,dc4 <main+0xc1c>
     da6:	981e                	add	a6,a6,t2
     da8:	00082803          	lw	a6,0(a6)
     dac:	01681c63          	bne	a6,s6,dc4 <main+0xc1c>
     db0:	00251813          	slli	a6,a0,0x2
     db4:	05010d93          	addi	s11,sp,80
     db8:	986e                	add	a6,a6,s11
     dba:	ff182423          	sw	a7,-24(a6)
     dbe:	fed82a23          	sw	a3,-12(a6)
     dc2:	0505                	addi	a0,a0,1
     dc4:	0685                	addi	a3,a3,1
     dc6:	fcb691e3          	bne	a3,a1,d88 <main+0xbe0>
     dca:	07c51163          	bne	a0,t3,e2c <main+0xc84>
     dce:	50e2                	lw	ra,56(sp)
     dd0:	4816                	lw	a6,68(sp)
     dd2:	53f2                	lw	t2,60(sp)
     dd4:	02b086b3          	mul	a3,ra,a1
     dd8:	4526                	lw	a0,72(sp)
     dda:	96c2                	add	a3,a3,a6
     ddc:	068a                	slli	a3,a3,0x2
     dde:	969a                	add	a3,a3,t1
     de0:	01c6a023          	sw	t3,0(a3)
     de4:	02b386b3          	mul	a3,t2,a1
     de8:	03580833          	mul	a6,a6,s5
     dec:	96aa                	add	a3,a3,a0
     dee:	068a                	slli	a3,a3,0x2
     df0:	969a                	add	a3,a3,t1
     df2:	01c6a023          	sw	t3,0(a3)
     df6:	4681                	li	a3,0
     df8:	032080b3          	mul	ra,ra,s2
     dfc:	03550533          	mul	a0,a0,s5
     e00:	9806                	add	a6,a6,ra
     e02:	032383b3          	mul	t2,t2,s2
     e06:	951e                	add	a0,a0,t2
     e08:	00de8f63          	beq	t4,a3,e26 <main+0xc7e>
     e0c:	00df8d63          	beq	t6,a3,e26 <main+0xc7e>
     e10:	00269d93          	slli	s11,a3,0x2
     e14:	010d83b3          	add	t2,s11,a6
     e18:	93fa                	add	t2,t2,t5
     e1a:	9daa                	add	s11,s11,a0
     e1c:	0003a023          	sw	zero,0(t2)
     e20:	9dfa                	add	s11,s11,t5
     e22:	000da023          	sw	zero,0(s11)
     e26:	0685                	addi	a3,a3,1
     e28:	feb690e3          	bne	a3,a1,e08 <main+0xc60>
     e2c:	0f85                	addi	t6,t6,1
     e2e:	0291                	addi	t0,t0,4
     e30:	f4bf93e3          	bne	t6,a1,d76 <main+0xbce>
     e34:	40a1                	li	ra,8
     e36:	0611                	addi	a2,a2,4
     e38:	8ede                	mv	t4,s7
     e3a:	f01b90e3          	bne	s7,ra,d3a <main+0xb92>
     e3e:	0885                	addi	a7,a7,1
     e40:	ee0a0a13          	addi	s4,s4,-288
     e44:	12070713          	addi	a4,a4,288
     e48:	02498993          	addi	s3,s3,36
     e4c:	eeb891e3          	bne	a7,a1,d2e <main+0xb86>
     e50:	000212b7          	lui	t0,0x21
     e54:	000206b7          	lui	a3,0x20
     e58:	81028293          	addi	t0,t0,-2032 # 20810 <matrix_maybe>
     e5c:	00021f37          	lui	t5,0x21
     e60:	8922                	mv	s2,s0
     e62:	4881                	li	a7,0
     e64:	02400e93          	li	t4,36
     e68:	4309                	li	t1,2
     e6a:	30068693          	addi	a3,a3,768 # 20300 <matrix_maybe_num>
     e6e:	14400993          	li	s3,324
     e72:	4a05                	li	s4,1
     e74:	00428b93          	addi	s7,t0,4
     e78:	45a5                	li	a1,9
     e7a:	810f0f13          	addi	t5,t5,-2032 # 20810 <matrix_maybe>
     e7e:	03d88633          	mul	a2,a7,t4
     e82:	4e01                	li	t3,0
     e84:	4b21                	li	s6,8
     e86:	95018393          	addi	t2,gp,-1712 # 20444 <matrix_maybe_countOfNum>
     e8a:	00c38733          	add	a4,t2,a2
     e8e:	14472703          	lw	a4,324(a4)
     e92:	001e0a93          	addi	s5,t3,1
     e96:	0e671463          	bne	a4,t1,f7e <main+0xdd6>
     e9a:	00021db7          	lui	s11,0x21
     e9e:	4c01                	li	s8,0
     ea0:	4c81                	li	s9,0
     ea2:	810d8d93          	addi	s11,s11,-2032 # 20810 <matrix_maybe>
     ea6:	dc62                	sw	s8,56(sp)
     ea8:	de66                	sw	s9,60(sp)
     eaa:	c2e2                	sw	s8,68(sp)
     eac:	c4e6                	sw	s9,72(sp)
     eae:	8fd6                	mv	t6,s5
     eb0:	4281                	li	t0,0
     eb2:	00f60c33          	add	s8,a2,a5
     eb6:	01b60cb3          	add	s9,a2,s11
     eba:	00cb8d33          	add	s10,s7,a2
     ebe:	005c0733          	add	a4,s8,t0
     ec2:	14872703          	lw	a4,328(a4)
     ec6:	0a671863          	bne	a4,t1,f76 <main+0xdce>
     eca:	4501                	li	a0,0
     ecc:	4701                	li	a4,0
     ece:	005d03b3          	add	t2,s10,t0
     ed2:	03d70833          	mul	a6,a4,t4
     ed6:	984a                	add	a6,a6,s2
     ed8:	00082803          	lw	a6,0(a6)
     edc:	02081963          	bnez	a6,f0e <main+0xd66>
     ee0:	03370833          	mul	a6,a4,s3
     ee4:	010c80b3          	add	ra,s9,a6
     ee8:	0000a083          	lw	ra,0(ra)
     eec:	03409163          	bne	ra,s4,f0e <main+0xd66>
     ef0:	981e                	add	a6,a6,t2
     ef2:	00082803          	lw	a6,0(a6)
     ef6:	01481c63          	bne	a6,s4,f0e <main+0xd66>
     efa:	00251813          	slli	a6,a0,0x2
     efe:	05010093          	addi	ra,sp,80
     f02:	9806                	add	a6,a6,ra
     f04:	fee82423          	sw	a4,-24(a6)
     f08:	ff182a23          	sw	a7,-12(a6)
     f0c:	0505                	addi	a0,a0,1
     f0e:	0705                	addi	a4,a4,1
     f10:	fcb711e3          	bne	a4,a1,ed2 <main+0xd2a>
     f14:	06651163          	bne	a0,t1,f76 <main+0xdce>
     f18:	50e2                	lw	ra,56(sp)
     f1a:	4516                	lw	a0,68(sp)
     f1c:	53f2                	lw	t2,60(sp)
     f1e:	02b08733          	mul	a4,ra,a1
     f22:	4826                	lw	a6,72(sp)
     f24:	972a                	add	a4,a4,a0
     f26:	070a                	slli	a4,a4,0x2
     f28:	9736                	add	a4,a4,a3
     f2a:	00672023          	sw	t1,0(a4)
     f2e:	02b38733          	mul	a4,t2,a1
     f32:	03d50533          	mul	a0,a0,t4
     f36:	9742                	add	a4,a4,a6
     f38:	070a                	slli	a4,a4,0x2
     f3a:	9736                	add	a4,a4,a3
     f3c:	00672023          	sw	t1,0(a4)
     f40:	4701                	li	a4,0
     f42:	033080b3          	mul	ra,ra,s3
     f46:	03d80833          	mul	a6,a6,t4
     f4a:	9506                	add	a0,a0,ra
     f4c:	033383b3          	mul	t2,t2,s3
     f50:	981e                	add	a6,a6,t2
     f52:	00ee0f63          	beq	t3,a4,f70 <main+0xdc8>
     f56:	00ef8d63          	beq	t6,a4,f70 <main+0xdc8>
     f5a:	00271d93          	slli	s11,a4,0x2
     f5e:	00ad83b3          	add	t2,s11,a0
     f62:	93fa                	add	t2,t2,t5
     f64:	9dc2                	add	s11,s11,a6
     f66:	0003a023          	sw	zero,0(t2)
     f6a:	9dfa                	add	s11,s11,t5
     f6c:	000da023          	sw	zero,0(s11)
     f70:	0705                	addi	a4,a4,1
     f72:	feb710e3          	bne	a4,a1,f52 <main+0xdaa>
     f76:	0f85                	addi	t6,t6,1
     f78:	0291                	addi	t0,t0,4
     f7a:	f4bf92e3          	bne	t6,a1,ebe <main+0xd16>
     f7e:	0611                	addi	a2,a2,4
     f80:	8e56                	mv	t3,s5
     f82:	f16a92e3          	bne	s5,s6,e86 <main+0xcde>
     f86:	0885                	addi	a7,a7,1
     f88:	0911                	addi	s2,s2,4
     f8a:	eeb89ae3          	bne	a7,a1,e7e <main+0xcd6>
     f8e:	00021837          	lui	a6,0x21
     f92:	4301                	li	t1,0
     f94:	450d                	li	a0,3
     f96:	4e09                	li	t3,2
     f98:	4625                	li	a2,9
     f9a:	05100b93          	li	s7,81
     f9e:	81080813          	addi	a6,a6,-2032 # 20810 <matrix_maybe>
     fa2:	4985                	li	s3,1
     fa4:	14400a13          	li	s4,324
     fa8:	02400a93          	li	s5,36
     fac:	02a34933          	div	s2,t1,a0
     fb0:	4581                	li	a1,0
     fb2:	02a360b3          	rem	ra,t1,a0
     fb6:	02a90933          	mul	s2,s2,a0
     fba:	02a080b3          	mul	ra,ra,a0
     fbe:	00259713          	slli	a4,a1,0x2
     fc2:	973e                	add	a4,a4,a5
     fc4:	28872703          	lw	a4,648(a4)
     fc8:	00158b13          	addi	s6,a1,1
     fcc:	0fc71763          	bne	a4,t3,10ba <__stack_size+0xba>
     fd0:	4c01                	li	s8,0
     fd2:	4c81                	li	s9,0
     fd4:	dc62                	sw	s8,56(sp)
     fd6:	de66                	sw	s9,60(sp)
     fd8:	c2e2                	sw	s8,68(sp)
     fda:	c4e6                	sw	s9,72(sp)
     fdc:	88da                	mv	a7,s6
     fde:	00289713          	slli	a4,a7,0x2
     fe2:	973e                	add	a4,a4,a5
     fe4:	28872703          	lw	a4,648(a4)
     fe8:	0dc71663          	bne	a4,t3,10b4 <__stack_size+0xb4>
     fec:	4381                	li	t2,0
     fee:	4e81                	li	t4,0
     ff0:	02aecfb3          	div	t6,t4,a0
     ff4:	00020cb7          	lui	s9,0x20
     ff8:	190c8c93          	addi	s9,s9,400 # 20190 <matrix_exact>
     ffc:	02aeef33          	rem	t5,t4,a0
    1000:	9fca                	add	t6,t6,s2
    1002:	02cf8733          	mul	a4,t6,a2
    1006:	9f06                	add	t5,t5,ra
    1008:	977a                	add	a4,a4,t5
    100a:	070a                	slli	a4,a4,0x2
    100c:	9766                	add	a4,a4,s9
    100e:	4318                	lw	a4,0(a4)
    1010:	ef15                	bnez	a4,104c <__stack_size+0x4c>
    1012:	037f82b3          	mul	t0,t6,s7
    1016:	02cf0733          	mul	a4,t5,a2
    101a:	9716                	add	a4,a4,t0
    101c:	00b702b3          	add	t0,a4,a1
    1020:	028a                	slli	t0,t0,0x2
    1022:	92c2                	add	t0,t0,a6
    1024:	0002a283          	lw	t0,0(t0)
    1028:	03329263          	bne	t0,s3,104c <__stack_size+0x4c>
    102c:	9746                	add	a4,a4,a7
    102e:	070a                	slli	a4,a4,0x2
    1030:	9742                	add	a4,a4,a6
    1032:	4318                	lw	a4,0(a4)
    1034:	01371c63          	bne	a4,s3,104c <__stack_size+0x4c>
    1038:	00239713          	slli	a4,t2,0x2
    103c:	05010d93          	addi	s11,sp,80
    1040:	976e                	add	a4,a4,s11
    1042:	fff72423          	sw	t6,-24(a4)
    1046:	ffe72a23          	sw	t5,-12(a4)
    104a:	0385                	addi	t2,t2,1
    104c:	0e85                	addi	t4,t4,1
    104e:	face91e3          	bne	t4,a2,ff0 <main+0xe48>
    1052:	07c39163          	bne	t2,t3,10b4 <__stack_size+0xb4>
    1056:	5ee2                	lw	t4,56(sp)
    1058:	4296                	lw	t0,68(sp)
    105a:	5f72                	lw	t5,60(sp)
    105c:	02ce8733          	mul	a4,t4,a2
    1060:	4fa6                	lw	t6,72(sp)
    1062:	9716                	add	a4,a4,t0
    1064:	070a                	slli	a4,a4,0x2
    1066:	9736                	add	a4,a4,a3
    1068:	01c72023          	sw	t3,0(a4)
    106c:	02cf0733          	mul	a4,t5,a2
    1070:	034e8eb3          	mul	t4,t4,s4
    1074:	977e                	add	a4,a4,t6
    1076:	070a                	slli	a4,a4,0x2
    1078:	9736                	add	a4,a4,a3
    107a:	01c72023          	sw	t3,0(a4)
    107e:	4701                	li	a4,0
    1080:	035282b3          	mul	t0,t0,s5
    1084:	034f0f33          	mul	t5,t5,s4
    1088:	9e96                	add	t4,t4,t0
    108a:	035f8fb3          	mul	t6,t6,s5
    108e:	9f7e                	add	t5,t5,t6
    1090:	00e58f63          	beq	a1,a4,10ae <__stack_size+0xae>
    1094:	00e88d63          	beq	a7,a4,10ae <__stack_size+0xae>
    1098:	00271f93          	slli	t6,a4,0x2
    109c:	01df82b3          	add	t0,t6,t4
    10a0:	92c2                	add	t0,t0,a6
    10a2:	9ffa                	add	t6,t6,t5
    10a4:	0002a023          	sw	zero,0(t0)
    10a8:	9fc2                	add	t6,t6,a6
    10aa:	000fa023          	sw	zero,0(t6)
    10ae:	0705                	addi	a4,a4,1
    10b0:	fec710e3          	bne	a4,a2,1090 <__stack_size+0x90>
    10b4:	0885                	addi	a7,a7,1
    10b6:	f2c894e3          	bne	a7,a2,fde <main+0xe36>
    10ba:	4721                	li	a4,8
    10bc:	85da                	mv	a1,s6
    10be:	f0eb10e3          	bne	s6,a4,fbe <main+0xe16>
    10c2:	0305                	addi	t1,t1,1
    10c4:	02478793          	addi	a5,a5,36
    10c8:	eec312e3          	bne	t1,a2,fac <main+0xe04>
    10cc:	00021737          	lui	a4,0x21
    10d0:	39c72783          	lw	a5,924(a4) # 2139c <loop>
    10d4:	0785                	addi	a5,a5,1
    10d6:	38f72e23          	sw	a5,924(a4)
    10da:	980ff06f          	j	25a <main+0xb2>
    10de:	00081e63          	bnez	a6,10fa <__stack_size+0xfa>
    10e2:	03f50833          	mul	a6,a0,t6
    10e6:	9832                	add	a6,a6,a2
    10e8:	00082803          	lw	a6,0(a6)
    10ec:	00581763          	bne	a6,t0,10fa <__stack_size+0xfa>
    10f0:	0006a803          	lw	a6,0(a3)
    10f4:	0805                	addi	a6,a6,1
    10f6:	0106a023          	sw	a6,0(a3)
    10fa:	0505                	addi	a0,a0,1
    10fc:	b3d516e3          	bne	a0,t4,c28 <main+0xa80>
    1100:	be2d                	j	c3a <main+0xa92>
    1102:	ed01                	bnez	a0,111a <__stack_size+0x11a>
    1104:	03d58533          	mul	a0,a1,t4
    1108:	9546                	add	a0,a0,a7
    110a:	4108                	lw	a0,0(a0)
    110c:	00551763          	bne	a0,t0,111a <__stack_size+0x11a>
    1110:	1446a503          	lw	a0,324(a3)
    1114:	0505                	addi	a0,a0,1
    1116:	14a6a223          	sw	a0,324(a3)
    111a:	0585                	addi	a1,a1,1
    111c:	b4759fe3          	bne	a1,t2,c7a <main+0xad2>
    1120:	b6ad                	j	c8a <main+0xae2>
    1122:	020a9263          	bnez	s5,1146 <__stack_size+0x146>
    1126:	03c686b3          	mul	a3,a3,t3
    112a:	021a0a33          	mul	s4,s4,ra
    112e:	96d2                	add	a3,a3,s4
    1130:	96ce                	add	a3,a3,s3
    1132:	068a                	slli	a3,a3,0x2
    1134:	96fe                	add	a3,a3,t6
    1136:	4294                	lw	a3,0(a3)
    1138:	01269763          	bne	a3,s2,1146 <__stack_size+0x146>
    113c:	28862683          	lw	a3,648(a2)
    1140:	0685                	addi	a3,a3,1
    1142:	28d62423          	sw	a3,648(a2)
    1146:	0885                	addi	a7,a7,1
    1148:	b9c899e3          	bne	a7,t3,cda <main+0xb32>
    114c:	be65                	j	d04 <main+0xb5c>
    114e:	4799                	li	a5,6
    1150:	05100313          	li	t1,81
    1154:	02c788b3          	mul	a7,a5,a2
    1158:	02c50e33          	mul	t3,a0,a2
    115c:	02c802b3          	mul	t0,a6,a2
    1160:	9e3e                	add	t3,t3,a5
    1162:	0e0a                	slli	t3,t3,0x2
    1164:	02650533          	mul	a0,a0,t1
    1168:	9796                	add	a5,a5,t0
    116a:	078a                	slli	a5,a5,0x2
    116c:	02680833          	mul	a6,a6,t1
    1170:	9546                	add	a0,a0,a7
    1172:	9536                	add	a0,a0,a3
    1174:	050a                	slli	a0,a0,0x2
    1176:	9846                	add	a6,a6,a7
    1178:	9836                	add	a6,a6,a3
    117a:	080a                	slli	a6,a6,0x2
    117c:	4881                	li	a7,0
    117e:	ff8ff06f          	j	976 <main+0x7ce>
    1182:	4799                	li	a5,6
    1184:	02b788b3          	mul	a7,a5,a1
    1188:	05100093          	li	ra,81
    118c:	00d883b3          	add	t2,a7,a3
    1190:	021787b3          	mul	a5,a5,ra
    1194:	98c2                	add	a7,a7,a6
    1196:	038a                	slli	t2,t2,0x2
    1198:	088a                	slli	a7,a7,0x2
    119a:	06c00093          	li	ra,108
    119e:	02b80833          	mul	a6,a6,a1
    11a2:	02b686b3          	mul	a3,a3,a1
    11a6:	96be                	add	a3,a3,a5
    11a8:	97c2                	add	a5,a5,a6
    11aa:	96b2                	add	a3,a3,a2
    11ac:	97b2                	add	a5,a5,a2
    11ae:	068a                	slli	a3,a3,0x2
    11b0:	078a                	slli	a5,a5,0x2
    11b2:	4801                	li	a6,0
    11b4:	ba81                	j	b04 <main+0x95c>

000011b6 <cal_matrix_maybe>:
    11b6:	7179                	addi	sp,sp,-48
    11b8:	c06e                	sw	s11,0(sp)
    11ba:	00021f37          	lui	t5,0x21
    11be:	00021db7          	lui	s11,0x21
    11c2:	3a8f2703          	lw	a4,936(t5) # 213a8 <check_i>
    11c6:	394da803          	lw	a6,916(s11) # 21394 <check_j>
    11ca:	00020337          	lui	t1,0x20
    11ce:	d426                	sw	s1,40(sp)
    11d0:	00021e37          	lui	t3,0x21
    11d4:	000204b7          	lui	s1,0x20
    11d8:	d24a                	sw	s2,36(sp)
    11da:	d04e                	sw	s3,32(sp)
    11dc:	ce52                	sw	s4,28(sp)
    11de:	c85e                	sw	s7,16(sp)
    11e0:	c662                	sw	s8,12(sp)
    11e2:	c26a                	sw	s10,4(sp)
    11e4:	d622                	sw	s0,44(sp)
    11e6:	cc56                	sw	s5,24(sp)
    11e8:	ca5a                	sw	s6,20(sp)
    11ea:	c466                	sw	s9,8(sp)
    11ec:	19030c13          	addi	s8,t1,400 # 20190 <matrix_exact>
    11f0:	19030993          	addi	s3,t1,400
    11f4:	4281                	li	t0,0
    11f6:	4501                	li	a0,0
    11f8:	4681                	li	a3,0
    11fa:	490d                	li	s2,3
    11fc:	30048493          	addi	s1,s1,768 # 20300 <matrix_maybe_num>
    1200:	45a5                	li	a1,9
    1202:	05100b93          	li	s7,81
    1206:	810e0e13          	addi	t3,t3,-2032 # 20810 <matrix_maybe>
    120a:	4a05                	li	s4,1
    120c:	02400d13          	li	s10,36
    1210:	0326e8b3          	rem	a7,a3,s2
    1214:	00548633          	add	a2,s1,t0
    1218:	8fe2                	mv	t6,s8
    121a:	4781                	li	a5,0
    121c:	411688b3          	sub	a7,a3,a7
    1220:	02b88cb3          	mul	s9,a7,a1
    1224:	00388b13          	addi	s6,a7,3
    1228:	03768433          	mul	s0,a3,s7
    122c:	005f8eb3          	add	t4,t6,t0
    1230:	000eae83          	lw	t4,0(t4)
    1234:	0c0e9b63          	bnez	t4,130a <cal_matrix_maybe+0x154>
    1238:	4501                	li	a0,0
    123a:	02b78833          	mul	a6,a5,a1
    123e:	9822                	add	a6,a6,s0
    1240:	02a78463          	beq	a5,a0,1268 <cal_matrix_maybe+0xb2>
    1244:	00251713          	slli	a4,a0,0x2
    1248:	974e                	add	a4,a4,s3
    124a:	4318                	lw	a4,0(a4)
    124c:	cf11                	beqz	a4,1268 <cal_matrix_maybe+0xb2>
    124e:	177d                	addi	a4,a4,-1
    1250:	9742                	add	a4,a4,a6
    1252:	070a                	slli	a4,a4,0x2
    1254:	9772                	add	a4,a4,t3
    1256:	00072e83          	lw	t4,0(a4)
    125a:	014e9763          	bne	t4,s4,1268 <cal_matrix_maybe+0xb2>
    125e:	00072023          	sw	zero,0(a4)
    1262:	4218                	lw	a4,0(a2)
    1264:	177d                	addi	a4,a4,-1
    1266:	c218                	sw	a4,0(a2)
    1268:	0505                	addi	a0,a0,1
    126a:	fcb51be3          	bne	a0,a1,1240 <cal_matrix_maybe+0x8a>
    126e:	02b78833          	mul	a6,a5,a1
    1272:	4501                	li	a0,0
    1274:	9822                	add	a6,a6,s0
    1276:	02a68463          	beq	a3,a0,129e <cal_matrix_maybe+0xe8>
    127a:	03a50733          	mul	a4,a0,s10
    127e:	977e                	add	a4,a4,t6
    1280:	4318                	lw	a4,0(a4)
    1282:	cf11                	beqz	a4,129e <cal_matrix_maybe+0xe8>
    1284:	177d                	addi	a4,a4,-1
    1286:	9742                	add	a4,a4,a6
    1288:	070a                	slli	a4,a4,0x2
    128a:	9772                	add	a4,a4,t3
    128c:	00072e83          	lw	t4,0(a4)
    1290:	014e9763          	bne	t4,s4,129e <cal_matrix_maybe+0xe8>
    1294:	00072023          	sw	zero,0(a4)
    1298:	4218                	lw	a4,0(a2)
    129a:	177d                	addi	a4,a4,-1
    129c:	c218                	sw	a4,0(a2)
    129e:	0505                	addi	a0,a0,1
    12a0:	fcb51be3          	bne	a0,a1,1276 <cal_matrix_maybe+0xc0>
    12a4:	0327e833          	rem	a6,a5,s2
    12a8:	00020337          	lui	t1,0x20
    12ac:	19030313          	addi	t1,t1,400 # 20190 <matrix_exact>
    12b0:	83c6                	mv	t2,a7
    12b2:	02b78ab3          	mul	s5,a5,a1
    12b6:	41078833          	sub	a6,a5,a6
    12ba:	010c8533          	add	a0,s9,a6
    12be:	050a                	slli	a0,a0,0x2
    12c0:	951a                	add	a0,a0,t1
    12c2:	9aa2                	add	s5,s5,s0
    12c4:	4e81                	li	t4,0
    12c6:	00769663          	bne	a3,t2,12d2 <cal_matrix_maybe+0x11c>
    12ca:	010e8733          	add	a4,t4,a6
    12ce:	02e78463          	beq	a5,a4,12f6 <cal_matrix_maybe+0x140>
    12d2:	002e9713          	slli	a4,t4,0x2
    12d6:	972a                	add	a4,a4,a0
    12d8:	4318                	lw	a4,0(a4)
    12da:	cf11                	beqz	a4,12f6 <cal_matrix_maybe+0x140>
    12dc:	177d                	addi	a4,a4,-1
    12de:	9756                	add	a4,a4,s5
    12e0:	070a                	slli	a4,a4,0x2
    12e2:	9772                	add	a4,a4,t3
    12e4:	00072303          	lw	t1,0(a4)
    12e8:	01431763          	bne	t1,s4,12f6 <cal_matrix_maybe+0x140>
    12ec:	00072023          	sw	zero,0(a4)
    12f0:	4218                	lw	a4,0(a2)
    12f2:	177d                	addi	a4,a4,-1
    12f4:	c218                	sw	a4,0(a2)
    12f6:	0e85                	addi	t4,t4,1
    12f8:	fd2e97e3          	bne	t4,s2,12c6 <cal_matrix_maybe+0x110>
    12fc:	0385                	addi	t2,t2,1
    12fe:	02450513          	addi	a0,a0,36
    1302:	fd6391e3          	bne	t2,s6,12c4 <cal_matrix_maybe+0x10e>
    1306:	8746                	mv	a4,a7
    1308:	4505                	li	a0,1
    130a:	0785                	addi	a5,a5,1
    130c:	0611                	addi	a2,a2,4
    130e:	0f91                	addi	t6,t6,4
    1310:	f0b79ee3          	bne	a5,a1,122c <cal_matrix_maybe+0x76>
    1314:	0685                	addi	a3,a3,1
    1316:	02428293          	addi	t0,t0,36
    131a:	02498993          	addi	s3,s3,36
    131e:	eef699e3          	bne	a3,a5,1210 <cal_matrix_maybe+0x5a>
    1322:	c509                	beqz	a0,132c <cal_matrix_maybe+0x176>
    1324:	3aef2423          	sw	a4,936(t5)
    1328:	390daa23          	sw	a6,916(s11)
    132c:	5432                	lw	s0,44(sp)
    132e:	54a2                	lw	s1,40(sp)
    1330:	5912                	lw	s2,36(sp)
    1332:	5982                	lw	s3,32(sp)
    1334:	4a72                	lw	s4,28(sp)
    1336:	4ae2                	lw	s5,24(sp)
    1338:	4b52                	lw	s6,20(sp)
    133a:	4bc2                	lw	s7,16(sp)
    133c:	4c32                	lw	s8,12(sp)
    133e:	4ca2                	lw	s9,8(sp)
    1340:	4d12                	lw	s10,4(sp)
    1342:	4d82                	lw	s11,0(sp)
    1344:	6145                	addi	sp,sp,48
    1346:	8082                	ret

00001348 <print_chr>:
    1348:	100107b7          	lui	a5,0x10010
    134c:	c3c8                	sw	a0,4(a5)
    134e:	8082                	ret

00001350 <print_str>:
    1350:	10010737          	lui	a4,0x10010
    1354:	00054783          	lbu	a5,0(a0)
    1358:	e391                	bnez	a5,135c <print_str+0xc>
    135a:	8082                	ret
    135c:	0505                	addi	a0,a0,1
    135e:	c35c                	sw	a5,4(a4)
    1360:	bfd5                	j	1354 <print_str+0x4>

00001362 <print_dec>:
    1362:	1141                	addi	sp,sp,-16
    1364:	005c                	addi	a5,sp,4
    1366:	86be                	mv	a3,a5
    1368:	4629                	li	a2,10
    136a:	ed19                	bnez	a0,1388 <print_dec+0x26>
    136c:	00d78e63          	beq	a5,a3,1388 <print_dec+0x26>
    1370:	10010637          	lui	a2,0x10010
    1374:	17fd                	addi	a5,a5,-1
    1376:	0007c703          	lbu	a4,0(a5) # 10010000 <_sp+0xffedc40>
    137a:	03070713          	addi	a4,a4,48 # 10010030 <_sp+0xffedc70>
    137e:	c258                	sw	a4,4(a2)
    1380:	fed79ae3          	bne	a5,a3,1374 <print_dec+0x12>
    1384:	0141                	addi	sp,sp,16
    1386:	8082                	ret
    1388:	02c57733          	remu	a4,a0,a2
    138c:	0785                	addi	a5,a5,1
    138e:	fee78fa3          	sb	a4,-1(a5)
    1392:	02c55533          	divu	a0,a0,a2
    1396:	bfd1                	j	136a <print_dec+0x8>

00001398 <print_hex>:
    1398:	15fd                	addi	a1,a1,-1
    139a:	00020737          	lui	a4,0x20
    139e:	058a                	slli	a1,a1,0x2
    13a0:	0a070713          	addi	a4,a4,160 # 200a0 <load_previous_environment+0x1e506>
    13a4:	100106b7          	lui	a3,0x10010
    13a8:	0005d363          	bgez	a1,13ae <print_hex+0x16>
    13ac:	8082                	ret
    13ae:	00b557b3          	srl	a5,a0,a1
    13b2:	8bbd                	andi	a5,a5,15
    13b4:	97ba                	add	a5,a5,a4
    13b6:	0007c783          	lbu	a5,0(a5)
    13ba:	15f1                	addi	a1,a1,-4
    13bc:	c2dc                	sw	a5,4(a3)
    13be:	b7ed                	j	13a8 <print_hex+0x10>

000013c0 <print>:
    13c0:	7179                	addi	sp,sp,-48
    13c2:	d422                	sw	s0,40(sp)
    13c4:	d226                	sw	s1,36(sp)
    13c6:	d04a                	sw	s2,32(sp)
    13c8:	ce4e                	sw	s3,28(sp)
    13ca:	cc52                	sw	s4,24(sp)
    13cc:	ca56                	sw	s5,20(sp)
    13ce:	c85a                	sw	s6,16(sp)
    13d0:	c65e                	sw	s7,12(sp)
    13d2:	d606                	sw	ra,44(sp)
    13d4:	c462                	sw	s8,8(sp)
    13d6:	842a                	mv	s0,a0
    13d8:	87ae                	mv	a5,a1
    13da:	4481                	li	s1,0
    13dc:	02500913          	li	s2,37
    13e0:	100109b7          	lui	s3,0x10010
    13e4:	02d00a13          	li	s4,45
    13e8:	03000a93          	li	s5,48
    13ec:	4b25                	li	s6,9
    13ee:	4ba9                	li	s7,10
    13f0:	00044703          	lbu	a4,0(s0)
    13f4:	ef11                	bnez	a4,1410 <print+0x50>
    13f6:	50b2                	lw	ra,44(sp)
    13f8:	5422                	lw	s0,40(sp)
    13fa:	8526                	mv	a0,s1
    13fc:	5902                	lw	s2,32(sp)
    13fe:	5492                	lw	s1,36(sp)
    1400:	49f2                	lw	s3,28(sp)
    1402:	4a62                	lw	s4,24(sp)
    1404:	4ad2                	lw	s5,20(sp)
    1406:	4b42                	lw	s6,16(sp)
    1408:	4bb2                	lw	s7,12(sp)
    140a:	4c22                	lw	s8,8(sp)
    140c:	6145                	addi	sp,sp,48
    140e:	8082                	ret
    1410:	0b271863          	bne	a4,s2,14c0 <print+0x100>
    1414:	00144683          	lbu	a3,1(s0)
    1418:	def9                	beqz	a3,13f6 <print+0x36>
    141a:	00140713          	addi	a4,s0,1
    141e:	0b268063          	beq	a3,s2,14be <print+0xfe>
    1422:	01469463          	bne	a3,s4,142a <print+0x6a>
    1426:	00240713          	addi	a4,s0,2
    142a:	843a                	mv	s0,a4
    142c:	00044703          	lbu	a4,0(s0)
    1430:	00140693          	addi	a3,s0,1
    1434:	03570863          	beq	a4,s5,1464 <print+0xa4>
    1438:	4581                	li	a1,0
    143a:	00044703          	lbu	a4,0(s0)
    143e:	00140513          	addi	a0,s0,1
    1442:	fd070693          	addi	a3,a4,-48
    1446:	0ff6f613          	andi	a2,a3,255
    144a:	00cb7f63          	bleu	a2,s6,1468 <print+0xa8>
    144e:	07300693          	li	a3,115
    1452:	02d71063          	bne	a4,a3,1472 <print+0xb2>
    1456:	4388                	lw	a0,0(a5)
    1458:	00478c13          	addi	s8,a5,4
    145c:	3dd5                	jal	1350 <print_str>
    145e:	87e2                	mv	a5,s8
    1460:	0405                	addi	s0,s0,1
    1462:	b779                	j	13f0 <print+0x30>
    1464:	8436                	mv	s0,a3
    1466:	b7d9                	j	142c <print+0x6c>
    1468:	037585b3          	mul	a1,a1,s7
    146c:	842a                	mv	s0,a0
    146e:	95b6                	add	a1,a1,a3
    1470:	b7e9                	j	143a <print+0x7a>
    1472:	06400693          	li	a3,100
    1476:	00d71863          	bne	a4,a3,1486 <print+0xc6>
    147a:	4388                	lw	a0,0(a5)
    147c:	00478c13          	addi	s8,a5,4
    1480:	35cd                	jal	1362 <print_dec>
    1482:	0485                	addi	s1,s1,1
    1484:	bfe9                	j	145e <print+0x9e>
    1486:	07800693          	li	a3,120
    148a:	00d71763          	bne	a4,a3,1498 <print+0xd8>
    148e:	4388                	lw	a0,0(a5)
    1490:	00478c13          	addi	s8,a5,4
    1494:	3711                	jal	1398 <print_hex>
    1496:	b7f5                	j	1482 <print+0xc2>
    1498:	05800693          	li	a3,88
    149c:	fed709e3          	beq	a4,a3,148e <print+0xce>
    14a0:	07500693          	li	a3,117
    14a4:	fcd70be3          	beq	a4,a3,147a <print+0xba>
    14a8:	06300693          	li	a3,99
    14ac:	fad71ae3          	bne	a4,a3,1460 <print+0xa0>
    14b0:	0007c703          	lbu	a4,0(a5)
    14b4:	0485                	addi	s1,s1,1
    14b6:	0791                	addi	a5,a5,4
    14b8:	00e9a223          	sw	a4,4(s3) # 10010004 <_sp+0xffedc44>
    14bc:	b755                	j	1460 <print+0xa0>
    14be:	843a                	mv	s0,a4
    14c0:	00044703          	lbu	a4,0(s0)
    14c4:	0485                	addi	s1,s1,1
    14c6:	00e9a223          	sw	a4,4(s3)
    14ca:	bf59                	j	1460 <print+0xa0>

000014cc <print_void>:
    14cc:	8082                	ret

000014ce <printf>:
    14ce:	7139                	addi	sp,sp,-64
    14d0:	d22e                	sw	a1,36(sp)
    14d2:	104c                	addi	a1,sp,36
    14d4:	ce06                	sw	ra,28(sp)
    14d6:	d432                	sw	a2,40(sp)
    14d8:	d636                	sw	a3,44(sp)
    14da:	d83a                	sw	a4,48(sp)
    14dc:	da3e                	sw	a5,52(sp)
    14de:	dc42                	sw	a6,56(sp)
    14e0:	de46                	sw	a7,60(sp)
    14e2:	c62e                	sw	a1,12(sp)
    14e4:	3df1                	jal	13c0 <print>
    14e6:	40f2                	lw	ra,28(sp)
    14e8:	6121                	addi	sp,sp,64
    14ea:	8082                	ret

000014ec <sys_gettime>:
    14ec:	100407b7          	lui	a5,0x10040
    14f0:	03078713          	addi	a4,a5,48 # 10040030 <_sp+0x1001dc70>
    14f4:	5b9c                	lw	a5,48(a5)
    14f6:	c15c                	sw	a5,4(a0)
    14f8:	435c                	lw	a5,4(a4)
    14fa:	c11c                	sw	a5,0(a0)
    14fc:	8082                	ret

000014fe <time>:
    14fe:	b0002573          	csrr	a0,0xb00
    1502:	8082                	ret

00001504 <insn>:
    1504:	b0002573          	csrr	a0,0xb00
    1508:	8082                	ret

0000150a <memcpy>:
    150a:	962a                	add	a2,a2,a0
    150c:	87aa                	mv	a5,a0
    150e:	00c79363          	bne	a5,a2,1514 <memcpy+0xa>
    1512:	8082                	ret
    1514:	0585                	addi	a1,a1,1
    1516:	fff5c703          	lbu	a4,-1(a1)
    151a:	0785                	addi	a5,a5,1
    151c:	fee78fa3          	sb	a4,-1(a5)
    1520:	b7fd                	j	150e <memcpy+0x4>

00001522 <memset>:
    1522:	962a                	add	a2,a2,a0
    1524:	87aa                	mv	a5,a0
    1526:	00c79363          	bne	a5,a2,152c <memset+0xa>
    152a:	8082                	ret
    152c:	00b78023          	sb	a1,0(a5)
    1530:	0785                	addi	a5,a5,1
    1532:	bfd5                	j	1526 <memset+0x4>

00001534 <memcmp>:
    1534:	ce11                	beqz	a2,1550 <memcmp+0x1c>
    1536:	00150793          	addi	a5,a0,1
    153a:	9532                	add	a0,a0,a2
    153c:	fff7c603          	lbu	a2,-1(a5)
    1540:	0005c703          	lbu	a4,0(a1)
    1544:	00a78563          	beq	a5,a0,154e <memcmp+0x1a>
    1548:	0785                	addi	a5,a5,1
    154a:	00e60563          	beq	a2,a4,1554 <memcmp+0x20>
    154e:	8e19                	sub	a2,a2,a4
    1550:	8532                	mv	a0,a2
    1552:	8082                	ret
    1554:	0585                	addi	a1,a1,1
    1556:	b7dd                	j	153c <memcmp+0x8>

00001558 <memmove>:
    1558:	00b57e63          	bleu	a1,a0,1574 <memmove+0x1c>
    155c:	962a                	add	a2,a2,a0
    155e:	87aa                	mv	a5,a0
    1560:	00c79363          	bne	a5,a2,1566 <memmove+0xe>
    1564:	8082                	ret
    1566:	0585                	addi	a1,a1,1
    1568:	fff5c703          	lbu	a4,-1(a1)
    156c:	0785                	addi	a5,a5,1
    156e:	fee78fa3          	sb	a4,-1(a5)
    1572:	b7fd                	j	1560 <memmove+0x8>
    1574:	00a5fa63          	bleu	a0,a1,1588 <memmove+0x30>
    1578:	fff60793          	addi	a5,a2,-1 # 1000ffff <_sp+0xffedc3f>
    157c:	95be                	add	a1,a1,a5
    157e:	97aa                	add	a5,a5,a0
    1580:	8e1d                	sub	a2,a2,a5
    1582:	00c78733          	add	a4,a5,a2
    1586:	e311                	bnez	a4,158a <memmove+0x32>
    1588:	8082                	ret
    158a:	15fd                	addi	a1,a1,-1
    158c:	0015c703          	lbu	a4,1(a1)
    1590:	17fd                	addi	a5,a5,-1
    1592:	00e780a3          	sb	a4,1(a5)
    1596:	b7f5                	j	1582 <memmove+0x2a>

00001598 <strnlen>:
    1598:	872a                	mv	a4,a0
    159a:	95aa                	add	a1,a1,a0
    159c:	87aa                	mv	a5,a0
    159e:	40e78533          	sub	a0,a5,a4
    15a2:	00b78563          	beq	a5,a1,15ac <strnlen+0x14>
    15a6:	0007c683          	lbu	a3,0(a5)
    15aa:	e291                	bnez	a3,15ae <strnlen+0x16>
    15ac:	8082                	ret
    15ae:	0785                	addi	a5,a5,1
    15b0:	b7fd                	j	159e <strnlen+0x6>

000015b2 <strlen>:
    15b2:	87aa                	mv	a5,a0
    15b4:	0785                	addi	a5,a5,1
    15b6:	fff7c703          	lbu	a4,-1(a5)
    15ba:	ff6d                	bnez	a4,15b4 <strlen+0x2>
    15bc:	40a78533          	sub	a0,a5,a0
    15c0:	157d                	addi	a0,a0,-1
    15c2:	8082                	ret

000015c4 <strcpy>:
    15c4:	872a                	mv	a4,a0
    15c6:	00b767b3          	or	a5,a4,a1
    15ca:	8b8d                	andi	a5,a5,3
    15cc:	efa9                	bnez	a5,1626 <strcpy+0x62>
    15ce:	feff0637          	lui	a2,0xfeff0
    15d2:	80808837          	lui	a6,0x80808
    15d6:	eff60613          	addi	a2,a2,-257 # fefefeff <pulp__FC+0xfefeff00>
    15da:	08080813          	addi	a6,a6,128 # 80808080 <pulp__FC+0x80808081>
    15de:	419c                	lw	a5,0(a1)
    15e0:	00c786b3          	add	a3,a5,a2
    15e4:	fff7c893          	not	a7,a5
    15e8:	0116f6b3          	and	a3,a3,a7
    15ec:	0106f6b3          	and	a3,a3,a6
    15f0:	c2b9                	beqz	a3,1636 <strcpy+0x72>
    15f2:	86be                	mv	a3,a5
    15f4:	00d70023          	sb	a3,0(a4)
    15f8:	0ff7f693          	andi	a3,a5,255
    15fc:	ce85                	beqz	a3,1634 <strcpy+0x70>
    15fe:	0087d693          	srli	a3,a5,0x8
    1602:	8636                	mv	a2,a3
    1604:	00c700a3          	sb	a2,1(a4)
    1608:	0ff6f693          	andi	a3,a3,255
    160c:	c685                	beqz	a3,1634 <strcpy+0x70>
    160e:	0107d693          	srli	a3,a5,0x10
    1612:	8636                	mv	a2,a3
    1614:	00c70123          	sb	a2,2(a4)
    1618:	0ff6f693          	andi	a3,a3,255
    161c:	ce81                	beqz	a3,1634 <strcpy+0x70>
    161e:	83e1                	srli	a5,a5,0x18
    1620:	00f701a3          	sb	a5,3(a4)
    1624:	8082                	ret
    1626:	0585                	addi	a1,a1,1
    1628:	fff5c783          	lbu	a5,-1(a1)
    162c:	0705                	addi	a4,a4,1
    162e:	fef70fa3          	sb	a5,-1(a4)
    1632:	fbd1                	bnez	a5,15c6 <strcpy+0x2>
    1634:	8082                	ret
    1636:	c31c                	sw	a5,0(a4)
    1638:	0591                	addi	a1,a1,4
    163a:	0711                	addi	a4,a4,4
    163c:	b74d                	j	15de <strcpy+0x1a>

0000163e <strcmp>:
    163e:	00b567b3          	or	a5,a0,a1
    1642:	8b8d                	andi	a5,a5,3
    1644:	eb85                	bnez	a5,1674 <strcmp+0x36>
    1646:	feff06b7          	lui	a3,0xfeff0
    164a:	80808637          	lui	a2,0x80808
    164e:	eff68693          	addi	a3,a3,-257 # fefefeff <pulp__FC+0xfefeff00>
    1652:	08060613          	addi	a2,a2,128 # 80808080 <pulp__FC+0x80808081>
    1656:	411c                	lw	a5,0(a0)
    1658:	4198                	lw	a4,0(a1)
    165a:	06e78d63          	beq	a5,a4,16d4 <strcmp+0x96>
    165e:	0ff7f693          	andi	a3,a5,255
    1662:	0ff77613          	andi	a2,a4,255
    1666:	02c68763          	beq	a3,a2,1694 <strcmp+0x56>
    166a:	4505                	li	a0,1
    166c:	06c6f363          	bleu	a2,a3,16d2 <strcmp+0x94>
    1670:	557d                	li	a0,-1
    1672:	8082                	ret
    1674:	0505                	addi	a0,a0,1
    1676:	0585                	addi	a1,a1,1
    1678:	fff54783          	lbu	a5,-1(a0)
    167c:	fff5c703          	lbu	a4,-1(a1)
    1680:	00e78763          	beq	a5,a4,168e <strcmp+0x50>
    1684:	557d                	li	a0,-1
    1686:	04e7e663          	bltu	a5,a4,16d2 <strcmp+0x94>
    168a:	4505                	li	a0,1
    168c:	8082                	ret
    168e:	fbc5                	bnez	a5,163e <strcmp>
    1690:	4501                	li	a0,0
    1692:	a081                	j	16d2 <strcmp+0x94>
    1694:	4501                	li	a0,0
    1696:	ce95                	beqz	a3,16d2 <strcmp+0x94>
    1698:	0087d693          	srli	a3,a5,0x8
    169c:	00875613          	srli	a2,a4,0x8
    16a0:	0ff6f693          	andi	a3,a3,255
    16a4:	0ff67613          	andi	a2,a2,255
    16a8:	fcc691e3          	bne	a3,a2,166a <strcmp+0x2c>
    16ac:	c29d                	beqz	a3,16d2 <strcmp+0x94>
    16ae:	0107d693          	srli	a3,a5,0x10
    16b2:	01075613          	srli	a2,a4,0x10
    16b6:	0ff6f693          	andi	a3,a3,255
    16ba:	0ff67613          	andi	a2,a2,255
    16be:	fac696e3          	bne	a3,a2,166a <strcmp+0x2c>
    16c2:	ca81                	beqz	a3,16d2 <strcmp+0x94>
    16c4:	83e1                	srli	a5,a5,0x18
    16c6:	8361                	srli	a4,a4,0x18
    16c8:	00e78563          	beq	a5,a4,16d2 <strcmp+0x94>
    16cc:	4505                	li	a0,1
    16ce:	fae7e1e3          	bltu	a5,a4,1670 <strcmp+0x32>
    16d2:	8082                	ret
    16d4:	00d78733          	add	a4,a5,a3
    16d8:	fff7c793          	not	a5,a5
    16dc:	8ff9                	and	a5,a5,a4
    16de:	8ff1                	and	a5,a5,a2
    16e0:	fbc5                	bnez	a5,1690 <strcmp+0x52>
    16e2:	0511                	addi	a0,a0,4
    16e4:	0591                	addi	a1,a1,4
    16e6:	bf85                	j	1656 <strcmp+0x18>

000016e8 <strncmp>:
    16e8:	87aa                	mv	a5,a0
    16ea:	40a78733          	sub	a4,a5,a0
    16ee:	00c75e63          	ble	a2,a4,170a <strncmp+0x22>
    16f2:	0007c683          	lbu	a3,0(a5)
    16f6:	0005c703          	lbu	a4,0(a1)
    16fa:	00d76a63          	bltu	a4,a3,170e <strncmp+0x26>
    16fe:	00e6ea63          	bltu	a3,a4,1712 <strncmp+0x2a>
    1702:	c681                	beqz	a3,170a <strncmp+0x22>
    1704:	0785                	addi	a5,a5,1
    1706:	0585                	addi	a1,a1,1
    1708:	f36d                	bnez	a4,16ea <strncmp+0x2>
    170a:	4501                	li	a0,0
    170c:	8082                	ret
    170e:	4505                	li	a0,1
    1710:	8082                	ret
    1712:	557d                	li	a0,-1
    1714:	8082                	ret

00001716 <atoi>:
    1716:	02000713          	li	a4,32
    171a:	00054783          	lbu	a5,0(a0)
    171e:	02e78063          	beq	a5,a4,173e <atoi+0x28>
    1722:	02d00713          	li	a4,45
    1726:	00e78e63          	beq	a5,a4,1742 <atoi+0x2c>
    172a:	02b00713          	li	a4,43
    172e:	4681                	li	a3,0
    1730:	00e79363          	bne	a5,a4,1736 <atoi+0x20>
    1734:	0505                	addi	a0,a0,1
    1736:	4781                	li	a5,0
    1738:	45a5                	li	a1,9
    173a:	4829                	li	a6,10
    173c:	a819                	j	1752 <atoi+0x3c>
    173e:	0505                	addi	a0,a0,1
    1740:	bfe9                	j	171a <atoi+0x4>
    1742:	4685                	li	a3,1
    1744:	bfc5                	j	1734 <atoi+0x1e>
    1746:	030787b3          	mul	a5,a5,a6
    174a:	0505                	addi	a0,a0,1
    174c:	97b2                	add	a5,a5,a2
    174e:	fd078793          	addi	a5,a5,-48
    1752:	00054603          	lbu	a2,0(a0)
    1756:	fd060713          	addi	a4,a2,-48
    175a:	0ff77713          	andi	a4,a4,255
    175e:	fee5f4e3          	bleu	a4,a1,1746 <atoi+0x30>
    1762:	557d                	li	a0,-1
    1764:	e291                	bnez	a3,1768 <atoi+0x52>
    1766:	4505                	li	a0,1
    1768:	02a78533          	mul	a0,a5,a0
    176c:	8082                	ret

0000176e <uart_echo>:
    176e:	100107b7          	lui	a5,0x10010
    1772:	438c                	lw	a1,0(a5)
    1774:	1141                	addi	sp,sp,-16
    1776:	c422                	sw	s0,8(sp)
    1778:	c226                	sw	s1,4(sp)
    177a:	c04a                	sw	s2,0(sp)
    177c:	c606                	sw	ra,12(sp)
    177e:	80000437          	lui	s0,0x80000
    1782:	000204b7          	lui	s1,0x20
    1786:	10010937          	lui	s2,0x10010
    178a:	00859863          	bne	a1,s0,179a <uart_echo+0x2c>
    178e:	40b2                	lw	ra,12(sp)
    1790:	4422                	lw	s0,8(sp)
    1792:	4492                	lw	s1,4(sp)
    1794:	4902                	lw	s2,0(sp)
    1796:	0141                	addi	sp,sp,16
    1798:	8082                	ret
    179a:	0ff5f593          	andi	a1,a1,255
    179e:	0b448513          	addi	a0,s1,180 # 200b4 <load_previous_environment+0x1e51a>
    17a2:	3335                	jal	14ce <printf>
    17a4:	00092583          	lw	a1,0(s2) # 10010000 <_sp+0xffedc40>
    17a8:	b7cd                	j	178a <uart_echo+0x1c>

000017aa <uart_irq_handler>:
    17aa:	b7d1                	j	176e <uart_echo>

000017ac <dma_irq_handler>:
    17ac:	100707b7          	lui	a5,0x10070
    17b0:	439c                	lw	a5,0(a5)
    17b2:	800006b7          	lui	a3,0x80000
    17b6:	10070737          	lui	a4,0x10070
    17ba:	4605                	li	a2,1
    17bc:	00d79363          	bne	a5,a3,17c2 <dma_irq_handler+0x16>
    17c0:	8082                	ret
    17c2:	0007d363          	bgez	a5,17c8 <dma_irq_handler+0x1c>
    17c6:	cf10                	sw	a2,24(a4)
    17c8:	431c                	lw	a5,0(a4)
    17ca:	bfcd                	j	17bc <dma_irq_handler+0x10>

000017cc <time_irq_handler>:
    17cc:	000217b7          	lui	a5,0x21
    17d0:	3987a703          	lw	a4,920(a5) # 21398 <timer_irq_count>
    17d4:	00020537          	lui	a0,0x20
    17d8:	0bc50513          	addi	a0,a0,188 # 200bc <load_previous_environment+0x1e522>
    17dc:	0705                	addi	a4,a4,1
    17de:	38e7ac23          	sw	a4,920(a5)
    17e2:	3987a583          	lw	a1,920(a5)
    17e6:	b1e5                	j	14ce <printf>

000017e8 <irq_puts>:
    17e8:	85aa                	mv	a1,a0
    17ea:	00020537          	lui	a0,0x20
    17ee:	0cc50513          	addi	a0,a0,204 # 200cc <load_previous_environment+0x1e532>
    17f2:	b9f1                	j	14ce <printf>

000017f4 <mstatus_enable>:
    17f4:	300027f3          	csrr	a5,mstatus
    17f8:	00020737          	lui	a4,0x20
    17fc:	2ef72c23          	sw	a5,760(a4) # 202f8 <mmstatus>
    1800:	2f872683          	lw	a3,760(a4)
    1804:	4785                	li	a5,1
    1806:	00a79533          	sll	a0,a5,a0
    180a:	8d55                	or	a0,a0,a3
    180c:	2ea72c23          	sw	a0,760(a4)
    1810:	2f872783          	lw	a5,760(a4)
    1814:	30079073          	csrw	mstatus,a5
    1818:	8082                	ret

0000181a <mstatus_disable>:
    181a:	300027f3          	csrr	a5,mstatus
    181e:	00020737          	lui	a4,0x20
    1822:	2ef72c23          	sw	a5,760(a4) # 202f8 <mmstatus>
    1826:	2f872683          	lw	a3,760(a4)
    182a:	4785                	li	a5,1
    182c:	00a79533          	sll	a0,a5,a0
    1830:	fff54513          	not	a0,a0
    1834:	8d75                	and	a0,a0,a3
    1836:	2ea72c23          	sw	a0,760(a4)
    183a:	2f872783          	lw	a5,760(a4)
    183e:	30079073          	csrw	mstatus,a5
    1842:	8082                	ret

00001844 <irq_init>:
    1844:	000207b7          	lui	a5,0x20
    1848:	577d                	li	a4,-1
    184a:	1141                	addi	sp,sp,-16
    184c:	2ee7ae23          	sw	a4,764(a5) # 202fc <ie_mask32_std>
    1850:	c606                	sw	ra,12(sp)
    1852:	2fc7a783          	lw	a5,764(a5)
    1856:	30479073          	csrw	0x304,a5
    185a:	450d                	li	a0,3
    185c:	3f7d                	jal	181a <mstatus_disable>
    185e:	40b2                	lw	ra,12(sp)
    1860:	450d                	li	a0,3
    1862:	0141                	addi	sp,sp,16
    1864:	bf41                	j	17f4 <mstatus_enable>

00001866 <rv_recv>:
    1866:	10070737          	lui	a4,0x10070
    186a:	435c                	lw	a5,4(a4)
    186c:	800006b7          	lui	a3,0x80000
    1870:	02d78763          	beq	a5,a3,189e <rv_recv+0x38>
    1874:	00072c23          	sw	zero,24(a4) # 10070018 <_sp+0x1004dc58>
    1878:	02000693          	li	a3,32
    187c:	c714                	sw	a3,8(a4)
    187e:	07c2                	slli	a5,a5,0x10
    1880:	000216b7          	lui	a3,0x21
    1884:	37468693          	addi	a3,a3,884 # 21374 <meta_buffer>
    1888:	83c1                	srli	a5,a5,0x10
    188a:	c754                	sw	a3,12(a4)
    188c:	1781                	addi	a5,a5,-32
    188e:	c71c                	sw	a5,8(a4)
    1890:	c748                	sw	a0,12(a4)
    1892:	100706b7          	lui	a3,0x10070
    1896:	4e98                	lw	a4,24(a3)
    1898:	df7d                	beqz	a4,1896 <rv_recv+0x30>
    189a:	853e                	mv	a0,a5
    189c:	8082                	ret
    189e:	4501                	li	a0,0
    18a0:	8082                	ret

000018a2 <rv_send>:
    18a2:	01059713          	slli	a4,a1,0x10
    18a6:	100707b7          	lui	a5,0x10070
    18aa:	02070713          	addi	a4,a4,32
    18ae:	cb98                	sw	a4,16(a5)
    18b0:	00020737          	lui	a4,0x20
    18b4:	2d470713          	addi	a4,a4,724 # 202d4 <meta_buffer_send>
    18b8:	cbd8                	sw	a4,20(a5)
    18ba:	cb8c                	sw	a1,16(a5)
    18bc:	cbc8                	sw	a0,20(a5)
    18be:	80000737          	lui	a4,0x80000
    18c2:	cbd8                	sw	a4,20(a5)
    18c4:	4505                	li	a0,1
    18c6:	8082                	ret

000018c8 <__test_custom_instr>:
    18c8:	00a0809b          	0xa0809b
    18cc:	00a0a11b          	0xa0a11b
    18d0:	00b0b19b          	0xb0b19b
    18d4:	00b0c21b          	0xb0c21b
    18d8:	00b2629b          	0xb2629b
    18dc:	00a2f31b          	0xa2f31b
    18e0:	0080939b          	0x80939b
    18e4:	0040d41b          	0x40d41b
    18e8:	4010d49b          	0x4010d49b
    18ec:	9f9f 0000 851f      	0x851f00009f9f
    18f2:	0000                	unimp
    18f4:	000105bf 0000065f 	0x65f000105bf
    18fc:	16df 0000 275f      	0x275f000016df
    1902:	0000                	unimp
    1904:	47df 0000 585f      	0x585f000047df
    190a:	0000                	unimp
    190c:	00c5806b          	0xc5806b
    1910:	00d5906b          	0xd5906b
    1914:	00e5a06b          	0xe5a06b
    1918:	875f 0005 96df      	0x96df0005875f
    191e:	0005                	c.addi	zero,1
    1920:	a65f 0005 88bb      	0x88bb0005a65f
    1926:	093b0013          	addi	zero,s6,147
    192a:	4014                	lw	a3,0(s0)
    192c:	001499bb          	0x1499bb
    1930:	00102a3b          	0x102a3b
    1934:	0010babb          	0x10babb
    1938:	00114b3b          	0x114b3b
    193c:	0011dbbb          	0x11dbbb
    1940:	40125c3b          	0x40125c3b
    1944:	0012ecbb          	0x12ecbb
    1948:	00137d3b          	0x137d3b
    194c:	8082                	ret

0000194e <__to_recv_pkt>:
    194e:	20000f3f 00008013 	0x801320000f3f
    1956:	00010013          	mv	zero,sp
    195a:	151f 000f 8082      	0x8082000f151f

00001960 <__test_proc_pkt>:
    1960:	01081a1b          	0x1081a1b
    1964:	010a5a1b          	0x10a5a1b
    1968:	151f 000a 8082      	0x8082000a151f

0000196e <__test_replace_mac>:
    196e:	01005a1b          	0x1005a1b
    1972:	01001a9b          	0x1001a9b
    1976:	0100db1b          	0x100db1b
    197a:	01009c1b          	0x1009c1b
    197e:	01015c9b          	0x1015c9b
    1982:	01011d1b          	0x1011d1b
    1986:	018c803b          	0x18c803b
    198a:	014d00bb          	0x14d00bb
    198e:	015b013b          	0x15b013b
    1992:	01081d9b          	0x1081d9b
    1996:	010ddd9b          	0x10ddd9b
    199a:	951f 000d 8082      	0x8082000d951f

000019a0 <__add_next_512b_first32b_with_1>:
    19a0:	40000f3f 80000f3f 	0x80000f3f40000f3f
    19a8:	000d1d9b          	0xd1d9b
    19ac:	000d1d9b          	0xd1d9b
    19b0:	000d1d9b          	0xd1d9b
    19b4:	000d1d9b          	0xd1d9b
    19b8:	000d1d9b          	0xd1d9b
    19bc:	000d1d9b          	0xd1d9b
    19c0:	08000f3f 000d1d9b 	0xd1d9b08000f3f
    19c8:	000d1d9b          	0xd1d9b
    19cc:	0017879b          	0x17879b
    19d0:	8082                	ret

000019d2 <__to_send_pkt>:
    19d2:	0048181b          	0x48181b
    19d6:	0048581b          	0x48581b
    19da:	0d9f 0005 9d9b      	0x9d9b00050d9f
    19e0:	01cd                	addi	gp,gp,19
    19e2:	01b8683b          	0x1b8683b
    19e6:	10000f3f 181b8082 	0x808210000f3f

000019ec <__test_send_pkt>:
    19ec:	0048181b          	0x48181b
    19f0:	0048581b          	0x48581b
    19f4:	10000f3f da1b8082 	0x808210000f3f

000019fa <__read_type>:
    19fa:	0101da1b          	0x101da1b
    19fe:	151f 000a 8082      	0x8082000a151f

00001a04 <__read_next_512b_first32b>:
    1a04:	80000f3f 000d1d9b 	0xd1d9b80000f3f
    1a0c:	000d1d9b          	0xd1d9b
    1a10:	000d1d9b          	0xd1d9b
    1a14:	000d1d9b          	0xd1d9b
    1a18:	000d1d9b          	0xd1d9b
    1a1c:	000d1d9b          	0xd1d9b
    1a20:	08000f3f 000d1d9b 	0xd1d9b08000f3f
    1a28:	000d1d9b          	0xd1d9b
    1a2c:	151f 0000 8082      	0x80820000151f

00001a32 <__no_irq_handler>:
    1a32:	0001e517          	auipc	a0,0x1e
    1a36:	73350513          	addi	a0,a0,1843 # 20165 <no_exception_handler_msg>
    1a3a:	dafff0ef          	jal	ra,17e8 <irq_puts>
    1a3e:	0cc0006f          	j	1b0a <end_handler>

00001a42 <sw_irq_handler>:
    1a42:	342022f3          	csrr	t0,mcause
    1a46:	00129293          	slli	t0,t0,0x1
    1a4a:	0012d293          	srli	t0,t0,0x1
    1a4e:	00200313          	li	t1,2
    1a52:	08628c63          	beq	t0,t1,1aea <handle_illegal_insn>
    1a56:	00b00313          	li	t1,11
    1a5a:	06628863          	beq	t0,t1,1aca <handle_ecall>
    1a5e:	00300313          	li	t1,3
    1a62:	06628c63          	beq	t0,t1,1ada <handle_ebreak>
    1a66:	0940006f          	j	1afa <handle_unknown>

00001a6a <__uart_irq_handler>:
    1a6a:	fe112e23          	sw	ra,-4(sp)
    1a6e:	0b0000ef          	jal	ra,1b1e <save_current_environment>
    1a72:	f8010113          	addi	sp,sp,-128
    1a76:	d35ff0ef          	jal	ra,17aa <uart_irq_handler>
    1a7a:	08010113          	addi	sp,sp,128
    1a7e:	11c000ef          	jal	ra,1b9a <load_previous_environment>
    1a82:	ffc12083          	lw	ra,-4(sp)
    1a86:	30200073          	mret

00001a8a <__dma_irq_handler>:
    1a8a:	fe112e23          	sw	ra,-4(sp)
    1a8e:	090000ef          	jal	ra,1b1e <save_current_environment>
    1a92:	f8010113          	addi	sp,sp,-128
    1a96:	d17ff0ef          	jal	ra,17ac <dma_irq_handler>
    1a9a:	08010113          	addi	sp,sp,128
    1a9e:	0fc000ef          	jal	ra,1b9a <load_previous_environment>
    1aa2:	ffc12083          	lw	ra,-4(sp)
    1aa6:	30200073          	mret

00001aaa <__time_irq_handler>:
    1aaa:	fe112e23          	sw	ra,-4(sp)
    1aae:	070000ef          	jal	ra,1b1e <save_current_environment>
    1ab2:	f8010113          	addi	sp,sp,-128
    1ab6:	d17ff0ef          	jal	ra,17cc <time_irq_handler>
    1aba:	08010113          	addi	sp,sp,128
    1abe:	0dc000ef          	jal	ra,1b9a <load_previous_environment>
    1ac2:	ffc12083          	lw	ra,-4(sp)
    1ac6:	30200073          	mret

00001aca <handle_ecall>:
    1aca:	0001e517          	auipc	a0,0x1e
    1ace:	63550513          	addi	a0,a0,1589 # 200ff <ecall_msg>
    1ad2:	d17ff0ef          	jal	ra,17e8 <irq_puts>
    1ad6:	0340006f          	j	1b0a <end_handler>

00001ada <handle_ebreak>:
    1ada:	0001e517          	auipc	a0,0x1e
    1ade:	64650513          	addi	a0,a0,1606 # 20120 <ebreak_msg>
    1ae2:	d07ff0ef          	jal	ra,17e8 <irq_puts>
    1ae6:	0240006f          	j	1b0a <end_handler>

00001aea <handle_illegal_insn>:
    1aea:	0001e517          	auipc	a0,0x1e
    1aee:	5e650513          	addi	a0,a0,1510 # 200d0 <illegal_insn_msg>
    1af2:	cf7ff0ef          	jal	ra,17e8 <irq_puts>
    1af6:	0140006f          	j	1b0a <end_handler>

00001afa <handle_unknown>:
    1afa:	0001e517          	auipc	a0,0x1e
    1afe:	64850513          	addi	a0,a0,1608 # 20142 <unknown_msg>
    1b02:	ce7ff0ef          	jal	ra,17e8 <irq_puts>
    1b06:	0040006f          	j	1b0a <end_handler>

00001b0a <end_handler>:
    1b0a:	34102573          	csrr	a0,mepc
    1b0e:	00450513          	addi	a0,a0,4
    1b12:	34151073          	csrw	mepc,a0
    1b16:	30200073          	mret

00001b1a <verification_irq_handler>:
    1b1a:	30200073          	mret

00001b1e <save_current_environment>:
    1b1e:	fe212c23          	sw	sp,-8(sp)
    1b22:	fe312a23          	sw	gp,-12(sp)
    1b26:	fe412823          	sw	tp,-16(sp)
    1b2a:	fe512623          	sw	t0,-20(sp)
    1b2e:	fe612423          	sw	t1,-24(sp)
    1b32:	fe712223          	sw	t2,-28(sp)
    1b36:	fe812023          	sw	s0,-32(sp)
    1b3a:	fc912e23          	sw	s1,-36(sp)
    1b3e:	fca12c23          	sw	a0,-40(sp)
    1b42:	fcb12a23          	sw	a1,-44(sp)
    1b46:	fcc12823          	sw	a2,-48(sp)
    1b4a:	fcd12623          	sw	a3,-52(sp)
    1b4e:	fce12423          	sw	a4,-56(sp)
    1b52:	fcf12223          	sw	a5,-60(sp)
    1b56:	fd012023          	sw	a6,-64(sp)
    1b5a:	fb112e23          	sw	a7,-68(sp)
    1b5e:	fb212c23          	sw	s2,-72(sp)
    1b62:	fb312a23          	sw	s3,-76(sp)
    1b66:	fb412823          	sw	s4,-80(sp)
    1b6a:	fb512623          	sw	s5,-84(sp)
    1b6e:	fb612423          	sw	s6,-88(sp)
    1b72:	fb712223          	sw	s7,-92(sp)
    1b76:	fb812023          	sw	s8,-96(sp)
    1b7a:	f9912e23          	sw	s9,-100(sp)
    1b7e:	f9a12c23          	sw	s10,-104(sp)
    1b82:	f9b12a23          	sw	s11,-108(sp)
    1b86:	f9c12823          	sw	t3,-112(sp)
    1b8a:	f9d12623          	sw	t4,-116(sp)
    1b8e:	f9e12423          	sw	t5,-120(sp)
    1b92:	f9f12223          	sw	t6,-124(sp)
    1b96:	00008067          	ret

00001b9a <load_previous_environment>:
    1b9a:	ff412183          	lw	gp,-12(sp)
    1b9e:	ff012203          	lw	tp,-16(sp)
    1ba2:	fec12283          	lw	t0,-20(sp)
    1ba6:	fe812303          	lw	t1,-24(sp)
    1baa:	fe412383          	lw	t2,-28(sp)
    1bae:	fe012403          	lw	s0,-32(sp)
    1bb2:	fdc12483          	lw	s1,-36(sp)
    1bb6:	fd812503          	lw	a0,-40(sp)
    1bba:	fd412583          	lw	a1,-44(sp)
    1bbe:	fd012603          	lw	a2,-48(sp)
    1bc2:	fcc12683          	lw	a3,-52(sp)
    1bc6:	fc812703          	lw	a4,-56(sp)
    1bca:	fc412783          	lw	a5,-60(sp)
    1bce:	fc012803          	lw	a6,-64(sp)
    1bd2:	fbc12883          	lw	a7,-68(sp)
    1bd6:	fb812903          	lw	s2,-72(sp)
    1bda:	fb412983          	lw	s3,-76(sp)
    1bde:	fb012a03          	lw	s4,-80(sp)
    1be2:	fac12a83          	lw	s5,-84(sp)
    1be6:	fa812b03          	lw	s6,-88(sp)
    1bea:	fa412b83          	lw	s7,-92(sp)
    1bee:	fa012c03          	lw	s8,-96(sp)
    1bf2:	f9c12c83          	lw	s9,-100(sp)
    1bf6:	f9812d03          	lw	s10,-104(sp)
    1bfa:	f9412d83          	lw	s11,-108(sp)
    1bfe:	f9012e03          	lw	t3,-112(sp)
    1c02:	f8c12e83          	lw	t4,-116(sp)
    1c06:	f8812f03          	lw	t5,-120(sp)
    1c0a:	f8412f83          	lw	t6,-124(sp)
    1c0e:	00008067          	ret
