
obj/firmware.elf:     file format elf32-littleriscv

Contents of section .vectors:
 0000 6f80d003 6f809002 6f805002 6f801002  o...o...o.P.o...
 0010 6f80d001 6f809001 6f805001 6f809008  o...o...o.P.o...
 0020 6f80d000 6f809000 6f805000 6f801000  o...o...o.P.o...
 0030 6f80c07f 6f80807f 6f80407f 6f80007f  o...o...o.@.o...
 0040 6f805002 6f80807e 6f80407e 6f80007e  o.P.o..~o.@~o..~
 0050 6f80c07d 6f80807d 6f80d002 6f80007d  o..}o..}o...o..}
 0060 6f80c07c 6f80807c 6f80407c 6f80007c  o..|o..|o.@|o..|
 0070 6f80c07b 6f80807b 6f80407b 6f809009  o..{o..{o.@{o...
 0080 6f80c07a 6f80807a 6f80407a 6f80007a  o..zo..zo.@zo..z
 0090 6f80c079 6f808079 6f804079 6f800079  o..yo..yo.@yo..y
 00a0 6f80c078 6f808078 6f804078 6f800078  o..xo..xo.@xo..x
 00b0 6f80c077 6f808077 6f804077 6f800077  o..wo..wo.@wo..w
 00c0 6f80c076 6f808076 6f804076 6f800076  o..vo..vo.@vo..v
 00d0 6f80c075 6f808075 6f804075 6f800075  o..uo..uo.@uo..u
 00e0 6f80c074 6f808074 6f804074 6f800074  o..to..to.@to..t
 00f0 6f80c073 6f808073 6f804073 6f800073  o..so..so.@so..s
Contents of section .init:
 0180 97010100 9381c179 17110100 13018115  .......y........
 0190 17050000 130505e7 13651500 73105530  .........e..s.U0
 01a0 02454c00 01460920                    .EL..F.         
Contents of section .text:
 01a8 411106c6 ef808060 37050100 13050500  A......`7.......
 01b8 23a8019a ef80e028 0928892a 37050100  #......(.(.*7...
 01c8 13058501 ef80e027 01a00111 232e11fe  .......'....#...
 01d8 ef006019 05619300 803e6f50 50379300  ..`..a...>oPP7..
 01e8 803e6f30 601b9300 803e6f60 30039300  .>o0`....>o`0...
 01f8 803e6f50 d0429300 803e6f30 006a9300  .>oP.B...>o0.j..
 0208 803e6f20 d0739300 803e6f60 a05b9300  .>o .s...>o`.[..
 0218 803e6f50 c0259300 803e6f10 f0709300  .>oP.%...>o..p..
 0228 803e6f20 60479300 803e6f30 d0009300  .>o `G...>o0....
 0238 803e6f10 50219300 803e6f10 50469300  .>o.P!...>o.PF..
 0248 803e6f30 70529300 803e6f40 504d9300  .>o0pR...>o@PM..
 0258 803e6f40 50729300 803e6f50 d0729300  .>o@Pr...>oP.r..
 0268 803e6f00 b0309300 803e6f30 201f9300  .>o..0...>o0 ...
 0278 803e6f50 104a9300 803e6f60 50049300  .>oP.J...>o`P...
 0288 803e6f30 f02c9300 803e6f50 500b9300  .>o0.,...>oPP...
 0298 803e6f00 b0739300 803e6f60 e02a9300  .>o..s...>o`.*..
 02a8 803e6f20 103d9300 803e6f20 00129300  .>o .=...>o ....
 02b8 803e6f40 e0489300 803e6f10 c00f9300  .>o@.H...>o.....
 02c8 803e6f10 004e9300 803e6f40 d0079300  .>o..N...>o@....
 02d8 803e6f00 20619300 803e6f30 90739300  .>o. a...>o0.s..
 02e8 803e6f20 e0679300 803e6f00 c0169300  .>o .g...>o.....
 02f8 803e6f50 003d9300 803e6f50 a0110111  .>oP.=...>oP....
 0308 ef00000e 8320c1ff 05618280 0111232e  ..... ...a....#.
 0318 11feef00 40050561 9300803e 6f70a01a  ....@..a...>op..
 0328 9300803e 6f705033 9300803e 6f60b01d  ...>opP3...>o`..
 0338 9300803e 6f70005f 9300803e 6f60d062  ...>op._...>o`.b
 0348 9300803e 6f603074 9300803e 6f70101f  ...>o`0t...>op..
 0358 9300803e 6f704005 0111ef00 60088320  ...>op@.....`.. 
 0368 c1ff0561 8280232c 21fe232a 31fe2328  ...a..#,!.#*1.#(
 0378 41fe2326 51fe2324 61fe2322 71fe2320  A.#&Q.#$a.#"q.# 
 0388 81fe232e 91fc232c a1fc232a b1fc2328  ..#...#,..#*..#(
 0398 c1fc2326 d1fc2324 e1fc2322 f1fc2320  ..#&..#$..#"..# 
 03a8 01fd232e 11fb232c 21fb232a 31fb2328  ..#...#,!.#*1.#(
 03b8 41fb2326 51fb2324 61fb2322 71fb2320  A.#&Q.#$a.#"q.# 
 03c8 81fb232e 91f9232c a1f9232a b1f92328  ..#...#,..#*..#(
 03d8 c1f92326 d1f92324 e1f92322 f1f98280  ..#&..#$..#"....
 03e8 832141ff 032201ff 8322c1fe 032381fe  .!A.."..."...#..
 03f8 832341fe 032401fe 8324c1fd 032581fd  .#A..$...$...%..
 0408 832541fd 032601fd 8326c1fc 032781fc  .%A..&...&...'..
 0418 832741fc 032801fc 8328c1fb 032981fb  .'A..(...(...)..
 0428 832941fb 032a01fb 832ac1fa 032b81fa  .)A..*...*...+..
 0438 832b41fa 032c01fa 832cc1f9 032d81f9  .+A..,...,...-..
 0448 832d41f9 032e01f9 832ec1f8 032f81f8  .-A........../..
 0458 832f41f8 8280130f 0100232e 31fe232c  ./A.......#.1.#,
 0468 11fe4165 1305c511 37060110 13064600  ..Ae....7.....F.
 0478 83050500 63860500 0cc20505 6ff05fff  ....c.......o._.
 0488 9305e002 0cc20cc2 b70001ff 938000f0  ................
 0498 37110f0f 1301f1f0 b3e12000 b70e10ff  7......... .....
 04a8 938efef0 094e6397 d13fb710 f00f9380  .....Nc..?......
 04b8 00ff37f1 f0f01301 010fb3e1 2000b70e  ..7......... ...
 04c8 f1ff938e 0eff0d4e 6396d13d b700ff00  .......Nc..=....
 04d8 9380f00f 37110f0f 1301f1f0 b3e12000  ....7......... .
 04e8 b71eff0f 938efeff 114e6395 d13bb7f0  .........Nc..;..
 04f8 0ff09380 f00037f1 f0f01301 010fb3e1  ......7.........
 0508 2000b7fe fff0938e fe0f154e 6394d139   ..........Nc..9
 0518 b70001ff 938000f0 37110f0f 1301f1f0  ........7.......
 0528 b3e02000 b70e10ff 938efef0 194e6393  .. ..........Nc.
 0538 d037b700 01ff9380 00f03711 0f0f1301  .7........7.....
 0548 f1f033e1 2000b70e 10ff938e fef01d4e  ..3. ..........N
 0558 6312d135 b70001ff 938000f0 b3e01000  c..5............
 0568 b70e01ff 938e0ef0 214e6395 d0330142  ........!Nc..3.B
 0578 b70001ff 938000f0 37110f0f 1301f1f0  ........7.......
 0588 b3e12000 13830100 05028942 e31252fe  .. ........B..R.
 0598 b70e10ff 938efef0 254e631d d32f0142  ........%Nc../.B
 05a8 b710f00f 938000ff 37f1f0f0 1301010f  ........7.......
 05b8 b3e12000 01001383 01000502 8942e311  .. ..........B..
 05c8 52feb70e f1ff938e 0eff294e 6314d32d  R.........)Nc..-
 05d8 0142b700 ff009380 f00f3711 0f0f1301  .B........7.....
 05e8 f1f0b3e1 20000100 01001383 01000502  .... ...........
 05f8 8942e310 52feb71e ff0f938e feff2d4e  .B..R.........-N
 0608 631ad329 0142b700 01ff9380 00f03711  c..).B........7.
 0618 0f0f1301 f1f0b3e1 20000502 8942e314  ........ ....B..
 0628 52feb70e 10ff938e fef0314e 6394d127  R.........1Nc..'
 0638 0142b710 f00f9380 00ff37f1 f0f01301  .B........7.....
 0648 010f0100 b3e12000 05028942 e31352fe  ...... ....B..R.
 0658 b70ef1ff 938e0eff 354e639d d1230142  ........5Nc..#.B
 0668 b700ff00 9380f00f 37110f0f 1301f1f0  ........7.......
 0678 01000100 b3e12000 05028942 e31252fe  ...... ....B..R.
 0688 b71eff0f 938efeff 394e6395 d1210142  ........9Nc..!.B
 0698 b70001ff 938000f0 01003711 0f0f1301  ..........7.....
 06a8 f1f0b3e1 20000502 8942e313 52feb70e  .... ....B..R...
 06b8 10ff938e fef03d4e 639ed11d 0142b710  ......=Nc....B..
 06c8 f00f9380 00ff0100 37f1f0f0 1301010f  ........7.......
 06d8 0100b3e1 20000502 8942e312 52feb70e  .... ....B..R...
 06e8 f1ff938e 0eff414e 6396d11b 0142b700  ......ANc....B..
 06f8 ff009380 f00f0100 01003711 0f0f1301  ..........7.....
 0708 f1f0b3e1 20000502 8942e312 52feb71e  .... ....B..R...
 0718 ff0f938e feff454e 639ed117 01423711  ......ENc....B7.
 0728 0f0f1301 f1f0b700 01ff9380 00f0b3e1  ................
 0738 20000502 8942e314 52feb70e 10ff938e   ....B..R.......
 0748 fef0494e 6398d115 014237f1 f0f01301  ..INc....B7.....
 0758 010fb710 f00f9380 00ff0100 b3e12000  .............. .
 0768 05028942 e31352fe b70ef1ff 938e0eff  ...B..R.........
 0778 4d4e6391 d1130142 37110f0f 1301f1f0  MNc....B7.......
 0788 b700ff00 9380f00f 01000100 b3e12000  .............. .
 0798 05028942 e31252fe b71eff0f 938efeff  ...B..R.........
 07a8 514e6399 d10f0142 37110f0f 1301f1f0  QNc....B7.......
 07b8 0100b700 01ff9380 00f0b3e1 20000502  ............ ...
 07c8 8942e313 52feb70e 10ff938e fef0554e  .B..R.........UN
 07d8 6392d10d 014237f1 f0f01301 010f0100  c....B7.........
 07e8 b710f00f 938000ff 0100b3e1 20000502  ............ ...
 07f8 8942e312 52feb70e f1ff938e 0eff594e  .B..R.........YN
 0808 639ad109 01423711 0f0f1301 f1f00100  c....B7.........
 0818 0100b700 ff009380 f00fb3e1 20000502  ............ ...
 0828 8942e312 52feb71e ff0f938e feff5d4e  .B..R.........]N
 0838 6392d107 b70001ff 938000f0 33611000  c...........3a..
 0848 b70e01ff 938e0ef0 614e6315 d105b700  ........aNc.....
 0858 ff009380 f00f33e1 0000b70e ff00938e  ......3.........
 0868 fe0f654e 6318d103 b3600000 814e694e  ..eNc....`...NiN
 0878 6392d003 b7101111 93801011 37212222  c...........7!""
 0888 13012122 33e02000 814e6d4e 6314d001  ..!"3. ..NmNc...
 0898 6315c003 37050110 13054500 93055004  c...7.....E...P.
 08a8 13062005 9306f004 1307a000 0cc110c1  .. .............
 08b8 10c114c1 10c118c1 02903705 01101305  ..........7.....
 08c8 45009305 f0041306 b0049306 a0000cc1  E...............
 08d8 10c114c1 13010f00 8321c1ff 832081ff  .........!... ..
 08e8 6ff0ffa0 130f0100 232e31fe 232c11fe  o.......#.1.#,..
 08f8 41651305 05123706 01101306 46008305  Ae....7.....F...
 0908 05006386 05000cc2 05056ff0 5fff9305  ..c.......o._...
 0918 e0020cc2 0cc2b700 01ff9380 00f03711  ..............7.
 0928 0f0f1301 f1f0b3c1 2000b7fe 0ff0938e  ........ .......
 0938 fe00094e 6394d13f b710f00f 938000ff  ...Nc..?........
 0948 37f1f0f0 1301010f b3c12000 b70e01ff  7......... .....
 0958 938e0ef0 0d4e6393 d13db700 ff009380  .....Nc..=......
 0968 f00f3711 0f0f1301 f1f0b3c1 2000b71e  ..7......... ...
 0978 f00f938e 0eff114e 6392d13b b7f00ff0  .......Nc..;....
 0988 9380f000 37f1f0f0 1301010f b3c12000  ....7......... .
 0998 b70eff00 938efe0f 154e6391 d139b700  .........Nc..9..
 09a8 01ff9380 00f03711 0f0f1301 f1f0b3c0  ......7.........
 09b8 2000b7fe 0ff0938e fe00194e 6390d037   ..........Nc..7
 09c8 b70001ff 938000f0 37110f0f 1301f1f0  ........7.......
 09d8 33c12000 b7fe0ff0 938efe00 1d4e631f  3. ..........Nc.
 09e8 d133b700 01ff9380 00f0b3c0 1000814e  .3.............N
 09f8 214e6395 d0330142 b70001ff 938000f0  !Nc..3.B........
 0a08 37110f0f 1301f1f0 b3c12000 13830100  7......... .....
 0a18 05028942 e31252fe b7fe0ff0 938efe00  ...B..R.........
 0a28 254e631d d32f0142 b710f00f 938000ff  %Nc../.B........
 0a38 37f1f0f0 1301010f b3c12000 01001383  7......... .....
 0a48 01000502 8942e311 52feb70e 01ff938e  .....B..R.......
 0a58 0ef0294e 6314d32d 0142b700 ff009380  ..)Nc..-.B......
 0a68 f00f3711 0f0f1301 f1f0b3c1 20000100  ..7......... ...
 0a78 01001383 01000502 8942e310 52feb71e  .........B..R...
 0a88 f00f938e 0eff2d4e 631ad329 0142b700  ......-Nc..).B..
 0a98 01ff9380 00f03711 0f0f1301 f1f0b3c1  ......7.........
 0aa8 20000502 8942e314 52feb7fe 0ff0938e   ....B..R.......
 0ab8 fe00314e 6394d127 0142b710 f00f9380  ..1Nc..'.B......
 0ac8 00ff37f1 f0f01301 010f0100 b3c12000  ..7........... .
 0ad8 05028942 e31352fe b70e01ff 938e0ef0  ...B..R.........
 0ae8 354e639d d1230142 b700ff00 9380f00f  5Nc..#.B........
 0af8 37110f0f 1301f1f0 01000100 b3c12000  7............. .
 0b08 05028942 e31252fe b71ef00f 938e0eff  ...B..R.........
 0b18 394e6395 d1210142 b70001ff 938000f0  9Nc..!.B........
 0b28 01003711 0f0f1301 f1f0b3c1 20000502  ..7......... ...
 0b38 8942e313 52feb7fe 0ff0938e fe003d4e  .B..R.........=N
 0b48 639ed11d 0142b710 f00f9380 00ff0100  c....B..........
 0b58 37f1f0f0 1301010f 0100b3c1 20000502  7........... ...
 0b68 8942e312 52feb70e 01ff938e 0ef0414e  .B..R.........AN
 0b78 6396d11b 0142b700 ff009380 f00f0100  c....B..........
 0b88 01003711 0f0f1301 f1f0b3c1 20000502  ..7......... ...
 0b98 8942e312 52feb71e f00f938e 0eff454e  .B..R.........EN
 0ba8 639ed117 01423711 0f0f1301 f1f0b700  c....B7.........
 0bb8 01ff9380 00f0b3c1 20000502 8942e314  ........ ....B..
 0bc8 52feb7fe 0ff0938e fe00494e 6398d115  R.........INc...
 0bd8 014237f1 f0f01301 010fb710 f00f9380  .B7.............
 0be8 00ff0100 b3c12000 05028942 e31352fe  ...... ....B..R.
 0bf8 b70e01ff 938e0ef0 4d4e6391 d1130142  ........MNc....B
 0c08 37110f0f 1301f1f0 b700ff00 9380f00f  7...............
 0c18 01000100 b3c12000 05028942 e31252fe  ...... ....B..R.
 0c28 b71ef00f 938e0eff 514e6399 d10f0142  ........QNc....B
 0c38 37110f0f 1301f1f0 0100b700 01ff9380  7...............
 0c48 00f0b3c1 20000502 8942e313 52feb7fe  .... ....B..R...
 0c58 0ff0938e fe00554e 6392d10d 014237f1  ......UNc....B7.
 0c68 f0f01301 010f0100 b710f00f 938000ff  ................
 0c78 0100b3c1 20000502 8942e312 52feb70e  .... ....B..R...
 0c88 01ff938e 0ef0594e 639ad109 01423711  ......YNc....B7.
 0c98 0f0f1301 f1f00100 0100b700 ff009380  ................
 0ca8 f00fb3c1 20000502 8942e312 52feb71e  .... ....B..R...
 0cb8 f00f938e 0eff5d4e 6392d107 b70001ff  ......]Nc.......
 0cc8 938000f0 33411000 b70e01ff 938e0ef0  ....3A..........
 0cd8 614e6315 d105b700 ff009380 f00f33c1  aNc...........3.
 0ce8 0000b70e ff00938e fe0f654e 6318d103  ..........eNc...
 0cf8 b3400000 814e694e 6392d003 b7101111  .@...NiNc.......
 0d08 93801011 37212222 13012122 33c02000  ....7!""..!"3. .
 0d18 814e6d4e 6314d001 6315c003 37050110  .NmNc...c...7...
 0d28 13054500 93055004 13062005 9306f004  ..E...P... .....
 0d38 1307a000 0cc110c1 10c114c1 10c118c1  ................
 0d48 02903705 01101305 45009305 f0041306  ..7.....E.......
 0d58 b0049306 a0000cc1 10c114c1 13010f00  ................
 0d68 8321c1ff 832081ff 6ff0efd6 130f0100  .!... ..o.......
 0d78 232e31fe 232c11fe 41651305 45123706  #.1.#,..Ae..E.7.
 0d88 01101306 46008305 05006386 05000cc2  ....F.....c.....
 0d98 05056ff0 5fff9305 e0020cc2 0cc297f0  ..o._...........
 0da8 00009380 20381301 a00a2390 20008391  .... 8....#. ...
 0db8 0000930e a00a094e 6392d13d 97f00000  .......Nc..=....
 0dc8 93804036 37b1ffff 130101a0 23912000  ..@67.......#. .
 0dd8 83912000 b7beffff 938e0ea0 0d4e639f  .. ..........Nc.
 0de8 d13997f0 00009380 e0333711 efbe1301  .9.......37.....
 0df8 01aa2392 200083a1 4000b71e efbe938e  ..#. ...@.......
 0e08 0eaa114e 639cd137 97f00000 93808031  ...Nc..7.......1
 0e18 37a1ffff 1301a100 23932000 83916000  7.......#. ...`.
 0e28 b7aeffff 938eae00 154e6399 d13597f0  .........Nc..5..
 0e38 00009380 00301301 a00a239d 20fe8391  .....0....#. ...
 0e48 a0ff930e a00a194e 639ad133 97f00000  .......Nc..3....
 0e58 9380202e 37b1ffff 130101a0 239e20fe  .. .7.......#. .
 0e68 8391c0ff b7beffff 938e0ea0 1d4e6397  .............Nc.
 0e78 d13197f0 00009380 c02b3711 00001301  .1.......+7.....
 0e88 01aa239f 20fe8391 e0ffb71e 0000938e  ..#. ...........
 0e98 0eaa214e 6394d12f 97f00000 93806029  ..!Nc../......`)
 0ea8 37a1ffff 1301a100 23902000 83910000  7.......#. .....
 0eb8 b7aeffff 938eae00 254e6391 d12d97f0  ........%Nc..-..
 0ec8 00009380 20273751 34121301 81671382  .... '7Q4....g..
 0ed8 00fe2310 22028391 0000b75e 0000938e  ..#."......^....
 0ee8 8e67294e 639cd129 97f00000 93808024  .g)Nc..).......$
 0ef8 37310000 13018109 ed10a393 200017f2  71.......... ...
 0f08 00001302 42238311 0200b73e 0000938e  ....B#.....>....
 0f18 8e092d4e 6394d127 314e0142 b7d0ffff  ..-Nc..'1N.B....
 0f28 9380d0cd 17f10000 1301c11f 23101100  ............#...
 0f38 83110100 b7deffff 938edecd 6390d125  ............c..%
 0f48 05028942 e31c52fc 354e0142 b7c0ffff  ...B..R.5N.B....
 0f58 9380d0cc 17f10000 1301c11c 01002311  ..............#.
 0f68 11008311 2100b7ce ffff938e decc6397  ....!.........c.
 0f78 d1210502 8942e31b 52fc394e 0142b7c0  .!...B..R.9N.B..
 0f88 ffff9380 c0bc17f1 00001301 a1190100  ................
 0f98 01002312 11008311 4100b7ce ffff938e  ..#.....A.......
 0fa8 cebc639d d11d0502 8942e31a 52fc3d4e  ..c......B..R.=N
 0fb8 0142b7b0 ffff9380 c0bb0100 17f10000  .B..............
 0fc8 13014116 23131100 83116100 b7beffff  ..A.#.....a.....
 0fd8 938ecebb 6394d11b 05028942 e31b52fc  ....c......B..R.
 0fe8 414e0142 b7b0ffff 9380b0ab 010017f1  AN.B............
 0ff8 00001301 21130100 23141100 83118100  ....!...#.......
 1008 b7beffff 938ebeab 639ad117 05028942  ........c......B
 1018 e31a52fc 454e0142 b7e0ffff 9380b0aa  ..R.EN.B........
 1028 01000100 17f10000 1301c10f 23151100  ............#...
 1038 8311a100 b7eeffff 938ebeaa 6390d115  ............c...
 1048 05028942 e31a52fc 494e0142 17f10000  ...B..R.IN.B....
 1058 1301410d b7200000 93803023 23101100  ..A.. ....0##...
 1068 83110100 b72e0000 938e3e23 6398d111  ..........>#c...
 1078 05028942 e31c52fc 4d4e0142 17f10000  ...B..R.MN.B....
 1088 1301410a b7100000 93803022 01002311  ..A.......0"..#.
 1098 11008311 2100b71e 0000938e 3e22639f  ....!.......>"c.
 10a8 d10d0502 8942e31b 52fc514e 014217f1  .....B..R.QN.B..
 10b8 00001301 2107b710 00009380 20120100  ....!....... ...
 10c8 01002312 11008311 4100b71e 0000938e  ..#.....A.......
 10d8 2e126395 d10b0502 8942e31a 52fc554e  ..c......B..R.UN
 10e8 014217f1 00001301 e1030100 93002011  .B............ .
 10f8 23131100 83116100 930e2011 6390d109  #.....a... .c...
 1108 05028942 e31f52fc 594e0142 17f10000  ...B..R.YN.B....
 1118 13014101 0100c540 01002314 11008311  ..A....@..#.....
 1128 8100c54e 639cd105 05028942 e31052fe  ...Nc......B..R.
 1138 5d4e0142 17f10000 1301c1fe 01000100  ]N.B............
 1148 b7300000 93801000 23151100 8311a100  .0......#.......
 1158 b73e0000 938e1e00 6392d103 05028942  .>......c......B
 1168 e31a52fc 37c50000 1305f5ee 97f50000  ..R.7...........
 1178 938545fb 2393a500 6315c003 37050110  ..E.#...c...7...
 1188 13054500 93055004 13062005 9306f004  ..E...P... .....
 1198 1307a000 0cc110c1 10c114c1 10c118c1  ................
 11a8 02903705 01101305 45009305 f0041306  ..7.....E.......
 11b8 b0049306 a0000cc1 10c114c1 13010f00  ................
 11c8 8321c1ff 832081ff 6ff0ef89 130f0100  .!... ..o.......
 11d8 232e31fe 232c11fe 13850182 37060110  #.1.#,......7...
 11e8 13064600 83050500 63860500 0cc20505  ..F.....c.......
 11f8 6ff05fff 9305e002 0cc20cc2 b70001ff  o._.............
 1208 938000f0 93f1f0f0 b70e01ff 938e0ef0  ................
 1218 094e639a d115b710 f00f9380 00ff93f1  .Nc.............
 1228 000f930e 000f0d4e 639fd113 b700ff00  .......Nc.......
 1238 9380f00f 93f1f070 bd4e114e 6395d113  .......p.N.Nc...
 1248 b7f00ff0 9380f000 93f1000f 814e154e  .............N.N
 1258 639bd111 b70001ff 938000f0 93f0000f  c...............
 1268 814e194e 6391d011 0142b710 f00f9380  .N.Nc....B......
 1278 00ff93f1 f0701383 01000502 8942e316  .....p.......B..
 1288 52fe930e 00701d4e 631fd30d 0142b700  R....p.Nc....B..
 1298 ff009380 f00f93f1 000f0100 13830100  ................
 12a8 05028942 e31552fe 930e000f 214e631c  ...B..R.....!Nc.
 12b8 d30b0142 b7f00ff0 9380f000 93f1f0f0  ...B............
 12c8 01000100 13830100 05028942 e31452fe  ...........B..R.
 12d8 b7fe0ff0 938efe00 254e6316 d3090142  ........%Nc....B
 12e8 b710f00f 938000ff 93f1f070 05028942  ...........p...B
 12f8 e31852fe 930e0070 294e6396 d1070142  ..R....p)Nc....B
 1308 b700ff00 9380f00f 010093f1 000f0502  ................
 1318 8942e317 52fe930e 000f2d4e 6395d105  .B..R.....-Nc...
 1328 0142b7f0 0ff09380 f0000100 010093f1  .B..............
 1338 f0700502 8942e316 52febd4e 314e6394  .p...B..R..N1Nc.
 1348 d1039370 000f814e 354e639e d001b700  ...p...N5Nc.....
 1358 ff009380 f00f13f0 f070814e 394e6314  .........p.N9Nc.
 1368 d0016315 c0033705 01101305 45009305  ..c...7.....E...
 1378 50041306 20059306 f0041307 a0000cc1  P... ...........
 1388 10c110c1 14c110c1 18c10290 37050110  ............7...
 1398 13054500 9305f004 1306b004 9306a000  ..E.............
 13a8 0cc110c1 14c11301 0f008321 c1ff8320  ...........!... 
 13b8 81ff6fe0 5fee130f 0100232e 31fe232c  ..o._.....#.1.#,
 13c8 11fe1385 81823706 01101306 46008305  ......7.....F...
 13d8 05006386 05000cc2 05056ff0 5fff9305  ..c.......o._...
 13e8 e0020cc2 0cc28140 0141b381 2040814e  .......@.A.. @.N
 13f8 094e6390 d1378540 0541b381 2040814e  .Nc..7.@.A.. @.N
 1408 0d4e6398 d1358d40 1d41b381 2040930e  .Nc..5.@.A.. @..
 1418 c0ff114e 639fd133 81403781 ffffb381  ...Nc..3.@7.....
 1428 2040a16e 154e6396 d133b700 00800141   @.n.Nc..3.....A
 1438 b3812040 b70e0080 194e639c d131b700  .. @.....Nc..1..
 1448 00803781 ffffb381 2040b78e 00801d4e  ..7..... @.....N
 1458 6391d131 81403781 00001301 f1ffb381  c..1.@7.........
 1468 2040b78e ffff938e 1e00214e 6393d12f   @........!Nc../
 1478 b7000080 9380f0ff 0141b381 2040b70e  .........A.. @..
 1488 0080938e feff254e 6395d12d b7000080  ......%Nc..-....
 1498 9380f0ff 37810000 1301f1ff b3812040  ....7......... @
 14a8 b78eff7f 294e6396 d12bb700 00803781  ....)Nc..+....7.
 14b8 00001301 f1ffb381 2040b78e ff7f938e  ........ @......
 14c8 1e002d4e 6397d129 b7000080 9380f0ff  ..-Nc..)........
 14d8 3781ffff b3812040 b78e0080 938efeff  7..... @........
 14e8 314e6398 d1278140 1301f0ff b3812040  1Nc..'.@...... @
 14f8 854e354e 639fd125 9300f0ff 0541b381  .N5Nc..%.....A..
 1508 2040930e e0ff394e 6395d125 9300f0ff   @....9Nc..%....
 1518 1301f0ff b3812040 814e3d4e 639bd123  ...... @.N=Nc..#
 1528 b5402d41 b3802040 894e414e 6393d023  .@-A.. @.NANc..#
 1538 b9402d41 33812040 8d4e454e 631bd121  .@-A3. @.NENc..!
 1548 b540b380 1040814e 494e6394 d0210142  .@...@.NINc..!.B
 1558 b5402d41 b3812040 13830100 05028942  .@-A.. @.......B
 1568 e31852fe 894e4d4e 6315d31f 0142b940  ..R..NMNc....B.@
 1578 2d41b381 20400100 13830100 05028942  -A.. @.........B
 1588 e31752fe 8d4e514e 6315d31d 0142bd40  ..R..NQNc....B.@
 1598 2d41b381 20400100 01001383 01000502  -A.. @..........
 15a8 8942e316 52fe914e 554e6314 d31b0142  .B..R..NUNc....B
 15b8 b5402d41 b3812040 05028942 e31a52fe  .@-A.. @...B..R.
 15c8 894e594e 6397d119 0142b940 2d410100  .NYNc....B.@-A..
 15d8 b3812040 05028942 e31952fe 8d4e5d4e  .. @...B..R..N]N
 15e8 6399d117 0142bd40 2d410100 0100b381  c....B.@-A......
 15f8 20400502 8942e318 52fe914e 614e639a   @...B..R..NaNc.
 1608 d1150142 b5400100 2d41b381 20400502  ...B.@..-A.. @..
 1618 8942e319 52fe894e 654e639c d1130142  .B..R..NeNc....B
 1628 b9400100 2d410100 b3812040 05028942  .@..-A.... @...B
 1638 e31852fe 8d4e694e 639dd111 0142bd40  ..R..NiNc....B.@
 1648 01000100 2d41b381 20400502 8942e318  ....-A.. @...B..
 1658 52fe914e 6d4e639e d10f0142 2d41b540  R..NmNc....B-A.@
 1668 b3812040 05028942 e31a52fe 894e714e  .. @...B..R..NqN
 1678 6391d10f 01422d41 b9400100 b3812040  c....B-A.@.... @
 1688 05028942 e31952fe 8d4e754e 6393d10d  ...B..R..NuNc...
 1698 01422d41 bd400100 0100b381 20400502  .B-A.@...... @..
 16a8 8942e318 52fe914e 794e6394 d10b0142  .B..R..NyNc....B
 16b8 2d410100 b540b381 20400502 8942e319  -A...@.. @...B..
 16c8 52fe894e 7d4e6396 d1090142 2d410100  R..N}Nc....B-A..
 16d8 b9400100 b3812040 05028942 e31852fe  .@.... @...B..R.
 16e8 8d4e130e 00026396 d1070142 2d410100  .N....c....B-A..
 16f8 0100bd40 b3812040 05028942 e31852fe  ...@.. @...B..R.
 1708 914e130e 10026396 d105c550 33011040  .N....c....P3..@
 1718 bd4e130e 2002631e d1039300 00023381  .N.. .c.......3.
 1728 0040930e 0002130e 30026314 d103b300  .@......0.c.....
 1738 0040814e 130e4002 639dd001 c1407941  .@.N..@.c....@yA
 1748 33802040 814e130e 50026314 d0016315  3. @.N..P.c...c.
 1758 c0033705 01101305 45009305 50041306  ..7.....E...P...
 1768 20059306 f0041307 a0000cc1 10c110c1   ...............
 1778 14c110c1 18c10290 37050110 13054500  ........7.....E.
 1788 9305f004 1306b004 9306a000 0cc110c1  ................
 1798 14c11301 0f008321 c1ff8320 81ff6fe0  .......!... ..o.
 17a8 1fb2130f 0100232e 31fe232c 11fe1385  ......#.1.#,....
 17b8 c1823706 01101306 46008305 05006386  ..7.....F.....c.
 17c8 05000cc2 05056ff0 5fff9305 e0020cc2  ......o._.......
 17d8 0cc28540 0141b391 2000854e 094e639c  ...@.A.. ..N.Nc.
 17e8 d1418540 0541b391 2000894e 0d4e6394  .A.@.A.. ..N.Nc.
 17f8 d1418540 1d41b391 2000930e 0008114e  .A.@.A.. ......N
 1808 639bd13f 85403941 b3912000 916e154e  c..?.@9A.. ..n.N
 1818 6393d13f 85407d41 b3912000 b70e0080  c..?.@}A.. .....
 1828 194e639a d13d9300 f0ff0141 b3912000  .Nc..=.....A.. .
 1838 930ef0ff 1d4e6390 d13d9300 f0ff0541  .....Nc..=.....A
 1848 b3912000 930ee0ff 214e6396 d13b9300  .. .....!Nc..;..
 1858 f0ff1d41 b3912000 930e00f8 254e639c  ...A.. .....%Nc.
 1868 d1399300 f0ff3941 b3912000 b7ceffff  .9....9A.. .....
 1878 294e6392 d1399300 f0ff7d41 b3912000  )Nc..9....}A.. .
 1888 b70e0080 2d4e6398 d137b720 21219380  ....-Nc..7. !!..
 1898 10120141 b3912000 b72e2121 938e1e12  ...A.. ...!!....
 18a8 314e639a d135b720 21219380 10120541  1Nc..5. !!.....A
 18b8 b3912000 b74e4242 938e2e24 354e639c  .. ..NBB...$5Nc.
 18c8 d133b720 21219380 10121d41 b3912000  .3. !!.....A.. .
 18d8 b79e9090 938e0e08 394e639e d131b720  ........9Nc..1. 
 18e8 21219380 10123941 b3912000 b74e4848  !!....9A.. ..NHH
 18f8 3d4e6392 d131b720 21219380 10127d41  =Nc..1. !!....}A
 1908 b3912000 b70e0080 414e6396 d12fb720  .. .....ANc../. 
 1918 21219380 10121301 00feb391 2000b72e  !!.......... ...
 1928 2121938e 1e12454e 6397d12d b7202121  !!....ENc..-. !!
 1938 93801012 130110fe b3912000 b74e4242  .......... ..NBB
 1948 938e2e24 494e6398 d12bb720 21219380  ...$INc..+. !!..
 1958 10121301 70feb391 2000b79e 9090938e  ....p... .......
 1968 0e084d4e 6399d129 b7202121 93801012  ..MNc..). !!....
 1978 1301e0fe b3912000 b74e4848 514e639c  ...... ..NHHQNc.
 1988 d127b720 21219380 00121301 f0ffb391  .'. !!..........
 1998 2000814e 554e6390 d1278540 1d41b390   ..NUNc..'.@.A..
 19a8 2000930e 0008594e 6397d025 85403941   .....YNc..%.@9A
 19b8 33912000 916e5d4e 631fd123 8d40b390  3. ..n]Nc..#.@..
 19c8 1000e14e 614e6398 d0230142 85401d41  ...NaNc..#.B.@.A
 19d8 b3912000 13830100 05028942 e31852fe  .. ........B..R.
 19e8 930e0008 654e6318 d3210142 85403941  ....eNc..!.B.@9A
 19f8 b3912000 01001383 01000502 8942e317  .. ..........B..
 1a08 52fe916e 694e6318 d31f0142 85407d41  R..niNc....B.@}A
 1a18 b3912000 01000100 13830100 05028942  .. ............B
 1a28 e31652fe b70e0080 6d4e6316 d31d0142  ..R.....mNc....B
 1a38 85401d41 b3912000 05028942 e31a52fe  .@.A.. ....B..R.
 1a48 930e0008 714e6398 d11b0142 85403941  ....qNc....B.@9A
 1a58 0100b391 20000502 8942e319 52fe916e  .... ....B..R..n
 1a68 754e639a d1190142 85407d41 01000100  uNc....B.@}A....
 1a78 b3912000 05028942 e31852fe b70e0080  .. ....B..R.....
 1a88 794e639a d1170142 85400100 1d41b391  yNc....B.@...A..
 1a98 20000502 8942e319 52fe930e 00087d4e   ....B..R.....}N
 1aa8 639bd115 01428540 01003941 0100b391  c....B.@..9A....
 1ab8 20000502 8942e318 52fe916e 130e0002   ....B..R..n....
 1ac8 639bd113 01428540 01000100 7d41b391  c....B.@....}A..
 1ad8 20000502 8942e318 52feb70e 0080130e   ....B..R.......
 1ae8 1002639a d1110142 1d418540 b3912000  ..c....B.A.@.. .
 1af8 05028942 e31a52fe 930e0008 130e2002  ...B..R....... .
 1b08 639bd10f 01423941 85400100 b3912000  c....B9A.@.... .
 1b18 05028942 e31952fe 916e130e 3002639c  ...B..R..n..0.c.
 1b28 d10d0142 7d418540 01000100 b3912000  ...B}A.@...... .
 1b38 05028942 e31852fe b70e0080 130e4002  ...B..R.......@.
 1b48 639bd10b 01421d41 01008540 b3912000  c....B.A...@.. .
 1b58 05028942 e31952fe 930e0008 130e5002  ...B..R.......P.
 1b68 639bd109 01423941 01008540 0100b391  c....B9A...@....
 1b78 20000502 8942e318 52fe916e 130e6002   ....B..R..n..`.
 1b88 639bd107 01427d41 01000100 8540b391  c....B}A.....@..
 1b98 20000502 8942e318 52feb70e 0080130e   ....B..R.......
 1ba8 7002639a d105bd40 33111000 814e130e  p.c....@3....N..
 1bb8 80026312 d1059300 00023391 0000930e  ..c.......3.....
 1bc8 0002130e 90026318 d103b310 0000814e  ......c........N
 1bd8 130ea002 6391d003 93000040 37110000  ....c......@7...
 1be8 13010180 33902000 814e130e b0026314  ....3. ..N....c.
 1bf8 d0016315 c0033705 01101305 45009305  ..c...7.....E...
 1c08 50041306 20059306 f0041307 a0000cc1  P... ...........
 1c18 10c110c1 14c110c1 18c10290 37050110  ............7...
 1c28 13054500 9305f004 1306b004 9306a000  ..E.............
 1c38 0cc110c1 14c11301 0f008321 c1ff8320  ...........!... 
 1c48 81ff6fe0 4fe8130f 0100232e 31fe232c  ..o.O.....#.1.#,
 1c58 11fe1385 01833706 01101306 46008305  ......7.....F...
 1c68 05006386 05000cc2 05056ff0 5fff9305  ..c.......o._...
 1c78 e0020cc2 0cc297e0 00009380 204d8381  ............ M..
 1c88 0000930e f0ff094e 6393d11d 97e00000  .......Nc.......
 1c98 9380c04b 83811000 814e0d4e 6399d11b  ...K.....N.Nc...
 1ca8 97e00000 9380804a 83812000 930e00ff  .......J.. .....
 1cb8 114e639e d11997e0 00009380 20498381  .Nc......... I..
 1cc8 3000bd4e 154e6394 d11997e0 00009380  0..N.Nc.........
 1cd8 10488381 d0ff930e f0ff194e 6399d117  .H.........Nc...
 1ce8 97e00000 9380b046 8381e0ff 814e1d4e  .......F.....N.N
 1cf8 639fd115 97e00000 93807045 8381f0ff  c.........pE....
 1d08 930e00ff 214e6394 d11597e0 00009380  ....!Nc.........
 1d18 10448381 0000bd4e 254e639a d11397e0  .D.....N%Nc.....
 1d28 00009380 a0428110 83810002 930ef0ff  .....B..........
 1d38 294e639e d11197e0 00009380 2041e910  )Nc......... A..
 1d48 83817000 814e2d4e 6393d111 314e0142  ..p..N-Nc...1N.B
 1d58 97e00000 9380903f 83811000 13830100  .......?........
 1d68 930e00ff 6315d30f 05028942 e31252fe  ....c......B..R.
 1d78 354e0142 97e00000 9380603d 83811000  5N.B......`=....
 1d88 01001383 0100bd4e 6313d30d 05028942  .......Nc......B
 1d98 e31252fe 394e0142 97e00000 9380003b  ..R.9N.B.......;
 1da8 83811000 01000100 13830100 814e6310  .............Nc.
 1db8 d30b0502 8942e311 52fe3d4e 014297e0  .....B..R.=N.B..
 1dc8 00009380 b0388381 1000930e 00ff6390  .....8........c.
 1dd8 d1090502 8942e314 52fe414e 014297e0  .....B..R.AN.B..
 1de8 00009380 c0360100 83811000 bd4e6390  .....6.......Nc.
 1df8 d1070502 8942e314 52fe454e 014297e0  .....B..R.EN.B..
 1e08 00009380 a0340100 01008381 1000814e  .....4.........N
 1e18 639fd103 05028942 e31352fe 97e10000  c......B..R.....
 1e28 9381c132 03810100 0941894e 494e6310  ...2.....A.NINc.
 1e38 d10397e1 00009381 61310381 01000100  ........a1......
 1e48 0941894e 4d4e6314 d1016315 c0033705  .A.NMNc...c...7.
 1e58 01101305 45009305 50041306 20059306  ....E...P... ...
 1e68 f0041307 a0000cc1 10c110c1 14c110c1  ................
 1e78 18c10290 37050110 13054500 9305f004  ....7.....E.....
 1e88 1306b004 9306a000 0cc110c1 14c11301  ................
 1e98 0f008321 c1ff8320 81ff6fe0 cfb9130f  ...!... ..o.....
 1ea8 0100232e 31fe232c 11fe1385 81833706  ..#.1.#,......7.
 1eb8 01101306 46008305 05006386 05000cc2  ....F.....c.....
 1ec8 05056ff0 5fff9305 e0020cc2 0cc297e0  ..o._...........
 1ed8 00009380 20288391 0000930e f00f094e  .... (.........N
 1ee8 639cd11f 97e00000 9380c026 83912000  c..........&.. .
 1ef8 930e00f0 0d4e6391 d11f97e0 00009380  .....Nc.........
 1f08 60258391 4000b71e 0000938e 0eff114e  `%..@..........N
 1f18 6394d11d 97e00000 9380c023 83916000  c..........#..`.
 1f28 b7feffff 938efe00 154e6397 d11b97e0  .........Nc.....
 1f38 00009380 80228391 a0ff930e f00f194e  .....".........N
 1f48 639cd119 97e00000 93802021 8391c0ff  c......... !....
 1f58 930e00f0 1d4e6391 d11997e0 00009380  .....Nc.........
 1f68 c01f8391 e0ffb71e 0000938e 0eff214e  ..............!N
 1f78 6394d117 97e00000 9380201e 83910000  c......... .....
 1f88 b7feffff 938efe00 254e6397 d11597e0  ........%Nc.....
 1f98 00009380 201c8110 83910002 930ef00f  .... ...........
 1fa8 294e639b d11397e0 00009380 a01aed10  )Nc.............
 1fb8 83917000 930e00f0 2d4e639f d111314e  ..p.....-Nc...1N
 1fc8 014297e0 00009380 00198391 20001383  .B.......... ...
 1fd8 0100b71e 0000938e 0eff631f d30f0502  ..........c.....
 1fe8 8942e310 52fe354e 014297e0 00009380  .B..R.5N.B......
 1ff8 a0168391 20000100 13830100 b7feffff  .... ...........
 2008 938efe00 631ad30d 05028942 e31f52fc  ....c......B..R.
 2018 394e0142 97e00000 9380c013 83912000  9N.B.......... .
 2028 01000100 13830100 930e00f0 6316d30b  ............c...
 2038 05028942 e31052fe 3d4e0142 97e00000  ...B..R.=N.B....
 2048 93806011 83912000 b71e0000 938e0eff  ..`... .........
 2058 6394d109 05028942 e31252fe 414e0142  c......B..R.AN.B
 2068 97e00000 9380400f 01008391 2000b7fe  ......@..... ...
 2078 ffff938e fe006391 d1070502 8942e311  ......c......B..
 2088 52fe454e 014297e0 00009380 a00c0100  R.EN.B..........
 2098 01008391 2000930e 00f0639f d1030502  .... .....c.....
 20a8 8942e312 52fe97e1 00009381 a10a0391  .B..R...........
 20b8 01000941 894e494e 6310d103 97e10000  ...A.NINc.......
 20c8 93814109 03910100 01000941 894e4d4e  ..A........A.NMN
 20d8 6314d101 6315c003 37050110 13054500  c...c...7.....E.
 20e8 93055004 13062005 9306f004 1307a000  ..P... .........
 20f8 0cc110c1 10c114c1 10c118c1 02903705  ..............7.
 2108 01101305 45009305 f0041306 b0049306  ....E...........
 2118 a0000cc1 10c114c1 13010f00 8321c1ff  .............!..
 2128 832081ff 6fe0af91 130f0100 232e31fe  . ..o.......#.1.
 2138 232c11fe 13854184 37060110 13064600  #,....A.7.....F.
 2148 83050500 63860500 0cc20505 6ff05fff  ....c.......o._.
 2158 9305e002 0cc20cc2 094e8140 014163d6  .........N.@.Ac.
 2168 2000631c c0216316 c001e3de 20fe6316   .c..!c..... .c.
 2178 c0210d4e 85400541 63d62000 631fc01f  .!.N.@.Ac. .c...
 2188 6316c001 e3de20fe 6319c01f 114efd50  c..... .c....N.P
 2198 7d5163d6 20006312 c01f6316 c001e3de  }Qc. .c...c.....
 21a8 20fe631c c01d154e 85400141 63d62000   .c....N.@.Ac. .
 21b8 6315c01d 6316c001 e3de20fe 631fc01b  c...c..... .c...
 21c8 194e8540 7d5163d6 20006318 c01b6316  .N.@}Qc. .c...c.
 21d8 c001e3de 20fe6312 c01b1d4e fd507951  .... .c....N.PyQ
 21e8 63d62000 631bc019 6316c001 e3de20fe  c. .c...c..... .
 21f8 6315c019 214e8140 054163d4 20006314  c...!N.@.Ac. .c.
 2208 c001631c c017e3de 20fe254e fd500541  ..c..... .%N.P.A
 2218 63d42000 6314c001 6311c017 e3de20fe  c. .c...c..... .
 2228 294ef950 7d5163d4 20006314 c0016316  )N.P}Qc. .c...c.
 2238 c015e3de 20fe2d4e f9500541 63d42000  .... .-N.P.Ac. .
 2248 6314c001 631bc013 e3de20fe 314e0142  c...c..... .1N.B
 2258 fd500141 63d32012 05028942 e31a52fe  .P.Ac. ....B..R.
 2268 354e0142 fd500141 010063d8 20100502  5N.B.P.A..c. ...
 2278 8942e319 52fe394e 0142fd50 01410100  .B..R.9N.B.P.A..
 2288 010063dc 200e0502 8942e318 52fe3d4e  ..c. ....B..R.=N
 2298 0142fd50 01000141 63d1200e 05028942  .B.P...Ac. ....B
 22a8 e31952fe 414e0142 fd500100 01410100  ..R.AN.B.P...A..
 22b8 63d5200c 05028942 e31852fe 454e0142  c. ....B..R.EN.B
 22c8 fd500100 01000141 63d9200a 05028942  .P.....Ac. ....B
 22d8 e31852fe 494e0142 fd500141 63df2008  ..R.IN.B.P.Ac. .
 22e8 05028942 e31a52fe 4d4e0142 fd500141  ...B..R.MN.B.P.A
 22f8 010063d4 20080502 8942e319 52fe514e  ..c. ....B..R.QN
 2308 0142fd50 01410100 010063d8 20060502  .B.P.A....c. ...
 2318 8942e318 52fe554e 0142fd50 01000141  .B..R.UN.B.P...A
 2328 63dd2004 05028942 e31952fe 594e0142  c. ....B..R.YN.B
 2338 fd500100 01410100 63d12004 05028942  .P...A..c. ....B
 2348 e31852fe 5d4e0142 fd500100 01000141  ..R.]N.B.P.....A
 2358 63d52002 05028942 e31852fe 854063d6  c. ....B..R..@c.
 2368 00008500 85008500 85008500 85008d4e  ...............N
 2378 614e6394 d0016315 c0033705 01101305  aNc...c...7.....
 2388 45009305 50041306 20059306 f0041307  E...P... .......
 2398 a0000cc1 10c110c1 14c110c1 18c10290  ................
 23a8 37050110 13054500 9305f004 1306b004  7.....E.........
 23b8 9306a000 0cc110c1 14c11301 0f008321  ...............!
 23c8 c1ff8320 81ff6fd0 9fe5130f 0100232e  ... ..o.......#.
 23d8 31fe232c 11fe1385 81843706 01101306  1.#,......7.....
 23e8 46008305 05006386 05000cc2 05056ff0  F.....c.......o.
 23f8 5fff9305 e0020cc2 0cc28140 93d10040  _..........@...@
 2408 814e094e 6392d125 b7000080 93d11040  .N.Nc..%.......@
 2418 b70e00c0 0d4e6399 d123b700 008093d1  .....Nc..#......
 2428 7040b70e 00ff114e 6390d123 b7000080  p@.....Nc..#....
 2438 93d1e040 b70efeff 154e6397 d121b700  ...@.....Nc..!..
 2448 00809380 100093d1 f041930e f0ff194e  .........A.....N
 2458 639cd11f b7000080 9380f0ff 93d10040  c..............@
 2468 b70e0080 938efeff 1d4e639f d11db700  .........Nc.....
 2478 00809380 f0ff93d1 1040b70e 0040938e  .........@...@..
 2488 feff214e 6392d11d b7000080 9380f0ff  ..!Nc...........
 2498 93d17040 b70e0001 938efeff 254e6395  ..p@........%Nc.
 24a8 d11bb700 00809380 f0ff93d1 e040b70e  .............@..
 24b8 0200938e feff294e 6398d119 b7000080  ......)Nc.......
 24c8 9380f0ff 93d1f041 814e2d4e 639ed117  .......A.N-Nc...
 24d8 b7808181 93801018 93d10040 b78e8181  ...........@....
 24e8 938e1e18 314e6391 d117b780 81819380  ....1Nc.........
 24f8 101893d1 1040b7ce c0c0938e 0e0c354e  .....@........5N
 2508 6394d115 b7808181 93801018 93d17040  c.............p@
 2518 b70e03ff 938e3e30 394e6397 d113b780  ......>09Nc.....
 2528 81819380 101893d1 e040b70e feff938e  .........@......
 2538 6e603d4e 639ad111 b7808181 93801018  n`=Nc...........
 2548 93d1f041 930ef0ff 414e639f d10fb700  ...A....ANc.....
 2558 008093d0 7040b70e 00ff454e 6396d00f  ....p@....ENc...
 2568 0142b700 008093d1 70401383 01000502  .B......p@......
 2578 8942e318 52feb70e 00ff494e 6316d30d  .B..R.....INc...
 2588 0142b700 008093d1 e0400100 13830100  .B.......@......
 2598 05028942 e31752fe b70efeff 4d4e6315  ...B..R.....MNc.
 25a8 d30b0142 b7000080 93801000 93d1f041  ...B...........A
 25b8 01000100 13830100 05028942 e31452fe  ...........B..R.
 25c8 930ef0ff 514e6311 d3090142 b7000080  ....QNc....B....
 25d8 93d17040 05028942 e31a52fe b70e00ff  ..p@...B..R.....
 25e8 554e6393 d1070142 b7000080 010093d1  UNc....B........
 25f8 e0400502 8942e319 52feb70e feff594e  .@...B..R.....YN
 2608 6394d105 0142b700 00809380 10000100  c....B..........
 2618 010093d1 f0410502 8942e316 52fe930e  .....A...B..R...
 2628 f0ff5d4e 6392d103 9350f041 814e614e  ..]Nc....P.A.NaN
 2638 639cd001 93001002 13d04041 814e654e  c.........@A.NeN
 2648 6314d001 6315c003 37050110 13054500  c...c...7.....E.
 2658 93055004 13062005 9306f004 1307a000  ..P... .........
 2668 0cc110c1 10c114c1 10c118c1 02903705  ..............7.
 2678 01101305 45009305 f0041306 b0049306  ....E...........
 2688 a0000cc1 10c114c1 13010f00 8321c1ff  .............!..
 2698 832081ff 6fd0bfc1 130f0100 232e31fe  . ..o.......#.1.
 26a8 232c11fe 13850185 37060110 13064600  #,......7.....F.
 26b8 83050500 63860500 0cc20505 6ff05fff  ....c.......o._.
 26c8 9305e002 0cc20cc2 094e8140 054163e6  .........N.@.Ac.
 26d8 2000631f c0236316 c001e3ee 20fe6319   .c..#c..... .c.
 26e8 c0230d4e 9300e0ff 1301f0ff 63e62000  .#.N........c. .
 26f8 6310c023 6316c001 e3ee20fe 631ac021  c..#c..... .c..!
 2708 114e8140 1301f0ff 63e62000 6312c021  .N.@....c. .c..!
 2718 6316c001 e3ee20fe 631cc01f 154e8540  c..... .c....N.@
 2728 014163e4 20006314 c0016313 c01fe3ee  .Ac. .c...c.....
 2738 20fe194e 9300f0ff 1301e0ff 63e42000   ..N........c. .
 2748 6314c001 6316c01d e3ee20fe 1d4e9300  c...c..... ..N..
 2758 f0ff0141 63e42000 6314c001 631ac01b  ...Ac. .c...c...
 2768 e3ee20fe 214eb700 00803701 00801301  .. .!N....7.....
 2778 f1ff63e4 20006314 c001631b c019e3ee  ..c. .c...c.....
 2788 20fe254e 0142b700 00f03701 00f01301   .%N.B....7.....
 2798 f1ff63ef 20160502 8942e316 52fe294e  ..c. ....B..R.)N
 27a8 0142b700 00f03701 00f01301 f1ff0100  .B....7.........
 27b8 63e02016 05028942 e31552fe 2d4e0142  c. ....B..R.-N.B
 27c8 b70000f0 370100f0 1301f1ff 01000100  ....7...........
 27d8 63e02014 05028942 e31452fe 314e0142  c. ....B..R.1N.B
 27e8 b70000f0 01003701 00f01301 f1ff63e1  ......7.......c.
 27f8 20120502 8942e315 52fe354e 0142b700   ....B..R.5N.B..
 2808 00f00100 370100f0 1301f1ff 010063e1  ....7.........c.
 2818 20100502 8942e314 52fe394e 0142b700   ....B..R.9N.B..
 2828 00f00100 01003701 00f01301 f1ff63e1  ......7.......c.
 2838 200e0502 8942e314 52fe3d4e 0142b700   ....B..R.=N.B..
 2848 00f03701 00f01301 f1ff63e3 200c0502  ..7.......c. ...
 2858 8942e316 52fe414e 0142b700 00f03701  .B..R.AN.B....7.
 2868 00f01301 f1ff0100 63e4200a 05028942  ........c. ....B
 2878 e31552fe 454e0142 b70000f0 370100f0  ..R.EN.B....7...
 2888 1301f1ff 01000100 63e42008 05028942  ........c. ....B
 2898 e31452fe 494e0142 b70000f0 01003701  ..R.IN.B......7.
 28a8 00f01301 f1ff63e5 20060502 8942e315  ......c. ....B..
 28b8 52fe4d4e 0142b700 00f00100 370100f0  R.MN.B......7...
 28c8 1301f1ff 010063e5 20040502 8942e314  ......c. ....B..
 28d8 52fe514e 0142b700 00f00100 01003701  R.QN.B........7.
 28e8 00f01301 f1ff63e5 20020502 8942e314  ......c. ....B..
 28f8 52fe8540 63661000 85008500 85008500  R..@cf..........
 2908 85008500 8d4e554e 6394d001 6315c003  .....NUNc...c...
 2918 37050110 13054500 93055004 13062005  7.....E...P... .
 2928 9306f004 1307a000 0cc110c1 10c114c1  ................
 2938 10c118c1 02903705 01101305 45009305  ......7.....E...
 2948 f0041306 b0049306 a0000cc1 10c114c1  ................
 2958 13010f00 8321c1ff 832081ff 6fd0bf8c  .....!... ..o...
 2968 130f0100 232e31fe 232c11fe 13858185  ....#.1.#,......
 2978 37060110 13064600 83050500 63860500  7.....F.....c...
 2988 0cc20505 6ff05fff 9305e002 0cc20cc2  ....o._.........
 2998 b7000080 0141b3d1 2040b70e 0080094e  .....A.. @.....N
 29a8 6391d149 b7000080 0541b3d1 2040b70e  c..I.....A.. @..
 29b8 00c00d4e 6397d147 b7000080 1d41b3d1  ...Nc..G.....A..
 29c8 2040b70e 00ff114e 639dd145 b7000080   @.....Nc..E....
 29d8 3941b3d1 2040b70e feff154e 6393d145  9A.. @.....Nc..E
 29e8 b7000080 93801000 7d41b3d1 2040930e  ........}A.. @..
 29f8 f0ff194e 6397d143 b7000080 9380f0ff  ...Nc..C........
 2a08 0141b3d1 2040b70e 0080938e feff1d4e  .A.. @.........N
 2a18 6399d141 b7000080 9380f0ff 0541b3d1  c..A.........A..
 2a28 2040b70e 0040938e feff214e 639bd13f   @...@....!Nc..?
 2a38 b7000080 9380f0ff 1d41b3d1 2040b70e  .........A.. @..
 2a48 0001938e feff254e 639dd13d b7000080  ......%Nc..=....
 2a58 9380f0ff 3941b3d1 2040b70e 0200938e  ....9A.. @......
 2a68 feff294e 639fd13b b7000080 9380f0ff  ..)Nc..;........
 2a78 7d41b3d1 2040814e 2d4e6394 d13bb780  }A.. @.N-Nc..;..
 2a88 81819380 10180141 b3d12040 b78e8181  .......A.. @....
 2a98 938e1e18 314e6396 d139b780 81819380  ....1Nc..9......
 2aa8 10180541 b3d12040 b7cec0c0 938e0e0c  ...A.. @........
 2ab8 354e6398 d137b780 81819380 10181d41  5Nc..7.........A
 2ac8 b3d12040 b70e03ff 938e3e30 394e639a  .. @......>09Nc.
 2ad8 d135b780 81819380 10183941 b3d12040  .5........9A.. @
 2ae8 b70efeff 938e6e60 3d4e639c d133b780  ......n`=Nc..3..
 2af8 81819380 10187d41 b3d12040 930ef0ff  ......}A.. @....
 2b08 414e6390 d133b780 81819380 10181301  ANc..3..........
 2b18 00fcb3d1 2040b78e 8181938e 1e18454e  .... @........EN
 2b28 6391d131 b7808181 93801018 130110fc  c..1............
 2b38 b3d12040 b7cec0c0 938e0e0c 494e6392  .. @........INc.
 2b48 d12fb780 81819380 10181301 70fcb3d1  ./..........p...
 2b58 2040b70e 03ff938e 3e304d4e 6393d12d   @......>0MNc..-
 2b68 b7808181 93801018 1301e0fc b3d12040  .............. @
 2b78 b70efeff 938e6e60 514e6394 d12bb780  ......n`QNc..+..
 2b88 81819380 10181301 f0ffb3d1 2040930e  ............ @..
 2b98 f0ff554e 6397d129 b7000080 1d41b3d0  ..UNc..).....A..
 2ba8 2040b70e 00ff594e 639dd027 b7000080   @....YNc..'....
 2bb8 394133d1 2040b70e feff5d4e 6313d127  9A3. @....]Nc..'
 2bc8 9d40b3d0 1040814e 614e639c d0250142  .@...@.NaNc..%.B
 2bd8 b7000080 1d41b3d1 20401383 01000502  .....A.. @......
 2be8 8942e317 52feb70e 00ff654e 631bd323  .B..R.....eNc..#
 2bf8 0142b700 00803941 b3d12040 01001383  .B....9A.. @....
 2c08 01000502 8942e316 52feb70e feff694e  .....B..R.....iN
 2c18 6319d321 0142b700 00807d41 b3d12040  c..!.B....}A.. @
 2c28 01000100 13830100 05028942 e31552fe  ...........B..R.
 2c38 930ef0ff 6d4e6316 d31f0142 b7000080  ....mNc....B....
 2c48 1d41b3d1 20400502 8942e319 52feb70e  .A.. @...B..R...
 2c58 00ff714e 6397d11d 0142b700 00803941  ..qNc....B....9A
 2c68 0100b3d1 20400502 8942e318 52feb70e  .... @...B..R...
 2c78 feff754e 6397d11b 0142b700 00807d41  ..uNc....B....}A
 2c88 01000100 b3d12040 05028942 e31752fe  ...... @...B..R.
 2c98 930ef0ff 794e6396 d1190142 b7000080  ....yNc....B....
 2ca8 01001d41 b3d12040 05028942 e31852fe  ...A.. @...B..R.
 2cb8 b70e00ff 7d4e6396 d1170142 b7000080  ....}Nc....B....
 2cc8 01003941 0100b3d1 20400502 8942e317  ..9A.... @...B..
 2cd8 52feb70e feff130e 00026394 d1150142  R.........c....B
 2ce8 b7000080 01000100 7d41b3d1 20400502  ........}A.. @..
 2cf8 8942e317 52fe930e f0ff130e 10026392  .B..R.........c.
 2d08 d1130142 1d41b700 0080b3d1 20400502  ...B.A...... @..
 2d18 8942e319 52feb70e 00ff130e 20026392  .B..R....... .c.
 2d28 d1110142 3941b700 00800100 b3d12040  ...B9A........ @
 2d38 05028942 e31852fe b70efeff 130e3002  ...B..R.......0.
 2d48 6391d10f 01427d41 b7000080 01000100  c....B}A........
 2d58 b3d12040 05028942 e31752fe 930ef0ff  .. @...B..R.....
 2d68 130e4002 639fd10b 01421d41 0100b700  ..@.c....B.A....
 2d78 0080b3d1 20400502 8942e318 52feb70e  .... @...B..R...
 2d88 00ff130e 5002639e d1090142 39410100  ....P.c....B9A..
 2d98 b7000080 0100b3d1 20400502 8942e317  ........ @...B..
 2da8 52feb70e feff130e 6002639c d1070142  R.......`.c....B
 2db8 7d410100 0100b700 0080b3d1 20400502  }A.......... @..
 2dc8 8942e317 52fe930e f0ff130e 7002639a  .B..R.......p.c.
 2dd8 d105bd40 33511040 814e130e 80026312  ...@3Q.@.N....c.
 2de8 d1059300 000233d1 0040930e 0002130e  ......3..@......
 2df8 90026318 d103b350 0040814e 130ea002  ..c....P.@.N....
 2e08 6391d003 93000040 37110000 13010180  c......@7.......
 2e18 33d02040 814e130e b0026314 d0016315  3. @.N....c...c.
 2e28 c0033705 01101305 45009305 50041306  ..7.....E...P...
 2e38 20059306 f0041307 a0000cc1 10c110c1   ...............
 2e48 14c110c1 18c10290 37050110 13054500  ........7.....E.
 2e58 9305f004 1306b004 9306a000 0cc110c1  ................
 2e68 14c11301 0f008321 c1ff8320 81ff6fd0  .......!... ..o.
 2e78 8fc7130f 0100232e 31fe232c 11fe1385  ......#.1.#,....
 2e88 c1853706 01101306 46008305 05006386  ..7.....F.....c.
 2e98 05000cc2 05056ff0 5fff9305 e0020cc2  ......o._.......
 2ea8 0cc2b780 ffff93d1 0000b78e ffff094e  ...............N
 2eb8 639fd123 b780ffff 93d11000 b7ceff7f  c..#............
 2ec8 0d4e6396 d123b780 ffff93d1 7000b70e  .Nc..#......p...
 2ed8 0002938e 0ef0114e 639bd121 b780ffff  .......Nc..!....
 2ee8 93d1e000 b70e0400 938eeeff 154e6390  .............Nc.
 2ef8 d121b780 ffff9380 100093d1 f000b70e  .!..............
 2f08 0200938e feff194e 6393d11f 9300f0ff  .......Nc.......
 2f18 93d10000 930ef0ff 1d4e639a d11d9300  .........Nc.....
 2f28 f0ff93d1 1000b70e 0080938e feff214e  ..............!N
 2f38 639fd11b 9300f0ff 93d17000 b70e0002  c.........p.....
 2f48 938efeff 254e6394 d11b9300 f0ff93d1  ....%Nc.........
 2f58 e000b70e 0400938e feff294e 6399d119  ..........)Nc...
 2f68 9300f0ff 93d1f001 854e2d4e 6391d119  .........N-Nc...
 2f78 b7202121 93801012 93d10000 b72e2121  . !!..........!!
 2f88 938e1e12 314e6394 d117b720 21219380  ....1Nc.... !!..
 2f98 101293d1 1000b79e 9010938e 0e09354e  ..............5N
 2fa8 6397d115 b7202121 93801012 93d17000  c.... !!......p.
 2fb8 b74e4200 938e2e24 394e639a d113b720  .NB....$9Nc.... 
 2fc8 21219380 101293d1 e000b78e 0000938e  !!..............
 2fd8 4e483d4e 639dd111 b7202121 93801012  NH=Nc.... !!....
 2fe8 93d1f001 814e414e 6393d111 b780ffff  .....NANc.......
 2ff8 93d01000 b7ceff7f 554e639a d00f0142  ........UNc....B
 3008 b780ffff 93d11000 13830100 05028942  ...............B
 3018 e31852fe b7ceff7f 594e631a d30d0142  ..R.....YNc....B
 3028 b780ffff 93d1e000 01001383 01000502  ................
 3038 8942e317 52feb70e 0400938e eeff5d4e  .B..R.........]N
 3048 6317d30b 0142b780 ffff93d1 f0000100  c....B..........
 3058 01001383 01000502 8942e316 52feb70e  .........B..R...
 3068 0200938e feff614e 6313d309 0142b780  ......aNc....B..
 3078 ffff93d1 10000502 8942e31a 52feb7ce  .........B..R...
 3088 ff7f654e 6395d107 0142b780 ffff0100  ..eNc....B......
 3098 93d1e000 05028942 e31952fe b70e0400  .......B..R.....
 30a8 938eeeff 694e6394 d1050142 b780ffff  ....iNc....B....
 30b8 01000100 93d1f000 05028942 e31852fe  ...........B..R.
 30c8 b70e0200 938efeff 6d4e6392 d1039350  ........mNc....P
 30d8 f001814e 714e639c d0019300 100213d0  ...NqNc.........
 30e8 4001814e 754e6314 d0016315 c0033705  @..NuNc...c...7.
 30f8 01101305 45009305 50041306 20059306  ....E...P... ...
 3108 f0041307 a0000cc1 10c110c1 14c110c1  ................
 3118 18c10290 37050110 13054500 9305f004  ....7.....E.....
 3128 1306b004 9306a000 0cc110c1 14c11301  ................
 3138 0f008321 c1ff8320 81ff6fd0 cf96130f  ...!... ..o.....
 3148 0100232e 31fe232c 11fe1385 41863706  ..#.1.#,....A.7.
 3158 01101306 46008305 05006386 05000cc2  ....F.....c.....
 3168 05056ff0 5fff9305 e0020cc2 0cc2094e  ..o._..........N
 3178 81400141 63862000 6315c01d 6316c001  .@.Ac. .c...c...
 3188 e38e20fe 631fc01b 0d4e8540 05416386  .. .c....N.@.Ac.
 3198 20006318 c01b6316 c001e38e 20fe6312   .c...c..... .c.
 31a8 c01b114e fd507d51 63862000 631bc019  ...N.P}Qc. .c...
 31b8 6316c001 e38e20fe 6315c019 154e8140  c..... .c....N.@
 31c8 05416384 20006314 c001631c c017e38e  .Ac. .c...c.....
 31d8 20fe194e 85400141 63842000 6314c001   ..N.@.Ac. .c...
 31e8 6311c017 e38e20fe 1d4efd50 05416384  c..... ..N.P.Ac.
 31f8 20006314 c0016316 c015e38e 20fe214e   .c...c..... .!N
 3208 85407d51 63842000 6314c001 631bc013  .@}Qc. .c...c...
 3218 e38e20fe 254e0142 81407d51 63832012  .. .%N.B.@}Qc. .
 3228 05028942 e31a52fe 294e0142 81407d51  ...B..R.)N.B.@}Q
 3238 01006388 20100502 8942e319 52fe2d4e  ..c. ....B..R.-N
 3248 01428140 7d510100 0100638c 200e0502  .B.@}Q....c. ...
 3258 8942e318 52fe314e 01428140 01007d51  .B..R.1N.B.@..}Q
 3268 6381200e 05028942 e31952fe 354e0142  c. ....B..R.5N.B
 3278 81400100 7d510100 6385200c 05028942  .@..}Q..c. ....B
 3288 e31852fe 394e0142 81400100 01007d51  ..R.9N.B.@....}Q
 3298 6389200a 05028942 e31852fe 3d4e0142  c. ....B..R.=N.B
 32a8 81407d51 638f2008 05028942 e31a52fe  .@}Qc. ....B..R.
 32b8 414e0142 81407d51 01006384 20080502  AN.B.@}Q..c. ...
 32c8 8942e319 52fe454e 01428140 7d510100  .B..R.EN.B.@}Q..
 32d8 01006388 20060502 8942e318 52fe494e  ..c. ....B..R.IN
 32e8 01428140 01007d51 638d2004 05028942  .B.@..}Qc. ....B
 32f8 e31952fe 4d4e0142 81400100 7d510100  ..R.MN.B.@..}Q..
 3308 63812004 05028942 e31852fe 514e0142  c. ....B..R.QN.B
 3318 81400100 01007d51 63852002 05028942  .@....}Qc. ....B
 3328 e31852fe 85406306 00008500 85008500  ..R..@c.........
 3338 85008500 85008d4e 554e6394 d0016315  .......NUNc...c.
 3348 c0033705 01101305 45009305 50041306  ..7.....E...P...
 3358 20059306 f0041307 a0000cc1 10c110c1   ...............
 3368 14c110c1 18c10290 37050110 13054500  ........7.....E.
 3378 9305f004 1306b004 9306a000 0cc110c1  ................
 3388 14c11301 0f008321 c1ff8320 81ff6fc0  .......!... ..o.
 3398 9fe70000 00000000 130f0100 232e31fe  ............#.1.
 33a8 232c11fe 13858186 37060110 13064600  #,......7.....F.
 33b8 83050500 63860500 0cc20505 6ff05fff  ....c.......o._.
 33c8 9305e002 0cc20cc2 17250000 1305c571  .........%.....q
 33d8 ef054000 0d8db72e 0000938e 0e71094e  ..@..........q.N
 33e8 6314d503 13000000 17e5ffff 1305c58f  c...............
 33f8 ef054000 0d8db7ee ffff938e 0e8f0d4e  ..@............N
 3408 6314d501 6315c003 37050110 13054500  c...c...7.....E.
 3418 93055004 13062005 9306f004 1307a000  ..P... .........
 3428 0cc110c1 10c114c1 10c118c1 02903705  ..............7.
 3438 01101305 45009305 f0041306 b0049306  ....E...........
 3448 a0000cc1 10c114c1 13010f00 8321c1ff  .............!..
 3458 832081ff 6fc03fd9 00000000 130f0100  . ..o.?.........
 3468 232e31fe 232c11fe 13850187 37060110  #.1.#,......7...
 3478 13064600 83050500 63860500 0cc20505  ..F.....c.......
 3488 6ff05fff 9305e002 0cc20cc2 97d00000  o._.............
 3498 9380c0cf 3701aa00 1301a10a 23a02000  ....7.......#. .
 34a8 83a10000 b70eaa00 938eae0a 094e639e  .............Nc.
 34b8 d13997d0 00009380 60cd37b1 00aa1301  .9......`.7.....
 34c8 01a023a2 200083a1 4000b7be 00aa938e  ..#. ...@.......
 34d8 0ea00d4e 639bd137 97d00000 938000cb  ...Nc..7........
 34e8 3711a00a 130101aa 23a42000 83a18000  7.......#. .....
 34f8 b71ea00a 938e0eaa 114e6398 d13597d0  .........Nc..5..
 3508 00009380 a0c837a1 0aa01301 a10023a6  ......7.......#.
 3518 200083a1 c000b7ae 0aa0938e ae00154e   ..............N
 3528 6395d133 97d00000 938000c8 3701aa00  c..3........7...
 3538 1301a10a 23aa20fe 83a140ff b70eaa00  ....#. ...@.....
 3548 938eae0a 194e6392 d13197d0 00009380  .....Nc..1......
 3558 a0c537b1 00aa1301 01a023ac 20fe83a1  ..7.......#. ...
 3568 80ffb7be 00aa938e 0ea01d4e 639fd12d  ...........Nc..-
 3578 97d00000 938040c3 3711a00a 130101aa  ......@.7.......
 3588 23ae20fe 83a1c0ff b71ea00a 938e0eaa  #. .............
 3598 214e639c d12b97d0 00009380 e0c037a1  !Nc..+........7.
 35a8 0aa01301 a10023a0 200083a1 0000b7ae  ......#. .......
 35b8 0aa0938e ae00254e 6399d129 97d00000  ......%Nc..)....
 35c8 9380c0be 37513412 13018167 138200fe  ....7Q4....g....
 35d8 23202202 83a10000 b75e3412 938e8e67  # "......^4....g
 35e8 294e6394 d12797d0 00009380 20bc3731  )Nc..'...... .71
 35f8 21581301 8109f510 a3a32000 17d20000  !X........ .....
 3608 130202bb 83210200 b73e2158 938e8e09  .....!...>!X....
 3618 2d4e639c d123314e 0142b7d0 bbaa9380  -Nc..#1N.B......
 3628 d0cd17d1 00001301 61b606c0 8241b7de  ........a....A..
 3638 bbaa938e decd639a d1210502 8942e31e  ......c..!...B..
 3648 52fc354e 0142b7c0 abda9380 d0cc17d1  R.5N.B..........
 3658 00001301 a1b30100 06c29241 b7ceabda  ...........A....
 3668 938edecc 6393d11f 05028942 e31d52fc  ....c......B..R.
 3678 394e0142 b7c0aadd 9380c0bc 17d10000  9N.B............
 3688 1301c1b0 01000100 06c4a241 b7ceaadd  ...........A....
 3698 938ecebc 639bd11b 05028942 e31c52fc  ....c......B..R.
 36a8 3d4e0142 b7b0dacd 9380c0bb 010017d1  =N.B............
 36b8 00001301 a1ad06c6 b241b7be dacd938e  .........A......
 36c8 cebb6394 d1190502 8942e31d 52fc414e  ..c......B..R.AN
 36d8 0142b7b0 ddcc9380 b0ab0100 17d10000  .B..............
 36e8 1301c1aa 010006c8 c241b7be ddcc938e  .........A......
 36f8 beab639c d1150502 8942e31c 52fc454e  ..c......B..R.EN
 3708 0142b7e0 cdbc9380 b0aa0100 010017d1  .B..............
 3718 00001301 a1a706ca d241b7ee cdbc938e  .........A......
 3728 beaa6394 d1130502 8942e31c 52fc494e  ..c......B..R.IN
 3738 014217d1 00001301 61a5b720 11009380  .B......a.. ....
 3748 302306c0 8241b72e 1100938e 3e23639e  0#...A......>#c.
 3758 d10f0502 8942e31e 52fc4d4e 014217d1  .....B..R.MN.B..
 3768 00001301 a1a2b710 01309380 30220100  .........0..0"..
 3778 06c29241 b71e0130 938e3e22 6397d10d  ...A...0..>"c...
 3788 05028942 e31d52fc 514e0142 17d10000  ...B..R.QN.B....
 3798 1301c19f b7100033 93802012 01000100  .......3.. .....
 37a8 06c4a241 b71e0033 938e2e12 639fd109  ...A...3....c...
 37b8 05028942 e31c52fc 554e0142 17d10000  ...B..R.UN.B....
 37c8 1301c19c 0100b700 30239380 201106c6  ........0#.. ...
 37d8 b241b70e 3023938e 2e116398 d1070502  .A..0#....c.....
 37e8 8942e31d 52fc594e 014217d1 00001301  .B..R.YN.B......
 37f8 e1990100 b7003322 93801001 010006c8  ......3"........
 3808 c241b70e 3322938e 1e016390 d1050502  .A..3"....c.....
 3818 8942e31c 52fc5d4e 014217d1 00001301  .B..R.]N.B......
 3828 e1960100 0100b730 23129380 100006ca  .......0#.......
 3838 d241b73e 2312938e 1e006398 d1010502  .A.>#.....c.....
 3848 8942e31c 52fc6315 c0033705 01101305  .B..R.c...7.....
 3858 45009305 50041306 20059306 f0041307  E...P... .......
 3868 a0000cc1 10c110c1 14c110c1 18c10290  ................
 3878 37050110 13054500 9305f004 1306b004  7.....E.........
 3888 9306a000 0cc110c1 14c11301 0f008321  ...............!
 3898 c1ff8320 81ff6fc0 9f9d130f 0100232e  ... ..o.......#.
 38a8 31fe232c 11fe1385 c1893706 01101306  1.#,......7.....
 38b8 46008305 05006388 05002320 b6001305  F.....c...# ....
 38c8 15006ff0 1fff9305 e0022320 b6002320  ..o.......# ..# 
 38d8 b600130e 2000930f 00001701 00001301  .... ...........
 38e8 8101e709 01001300 00001300 00006f00  ..............o.
 38f8 400e9700 00009380 00ff9380 4000639a  @...........@.c.
 3908 300d130e 3000930f 00009701 00009381  0...0...........
 3918 41016780 01001300 00006f00 800b639a  A.g.......o...c.
 3928 0f0a130e 40001302 00001703 00001303  ....@...........
 3938 0301e709 0300631e c0091302 12009302  ......c.........
 3948 2000e314 52fe130e 50001302 00001703   ...R...P.......
 3958 00001303 43011300 0000e709 0300631a  ....C.........c.
 3968 c0071302 12009302 2000e312 52fe130e  ........ ...R...
 3978 60001302 00001703 00001303 83011300  `...............
 3988 00001300 0000e709 03006314 c0051302  ..........c.....
 3998 12009302 2000e310 52fe9300 10001701  .... ...R.......
 39a8 00001301 c101e709 c1ff9380 10009380  ................
 39b8 10009380 10009380 10009380 10009380  ................
 39c8 1000930e 4000130e 70006394 d001631c  ....@...p.c...c.
 39d8 c0033705 01101305 45009305 50041306  ..7.....E...P...
 39e8 20059306 f0041307 a0002320 b5002320   .........# ..# 
 39f8 c5002320 c5002320 d5002320 c5002320  ..# ..# ..# ..# 
 3a08 e5007300 10003705 01101305 45009305  ..s...7.....E...
 3a18 f0041306 b0049306 a0002320 b5002320  ..........# ..# 
 3a28 c5002320 d5001301 0f008321 c1ff8320  ..# .......!... 
 3a38 81ff6fc0 cffc130f 0100232e 31fe232c  ..o.......#.1.#,
 3a48 11fe1385 418a3706 01101306 46008305  ....A.7.....F...
 3a58 05006386 05000cc2 05056ff0 5fff9305  ..c.......o._...
 3a68 e0020cc2 0cc2094e 81400141 63f62000  .......N.@.Ac. .
 3a78 6318c029 6316c001 e3fe20fe 6312c029  c..)c..... .c..)
 3a88 0d4e8540 054163f6 2000631b c0276316  .N.@.Ac. .c..'c.
 3a98 c001e3fe 20fe6315 c027114e 9300f0ff  .... .c..'.N....
 3aa8 1301f0ff 63f62000 631cc025 6316c001  ....c. .c..%c...
 3ab8 e3fe20fe 6316c025 154e8540 014163f6  .. .c..%.N.@.Ac.
 3ac8 2000631f c0236316 c001e3fe 20fe6319   .c..#c..... .c.
 3ad8 c023194e 9300f0ff 1301e0ff 63f62000  .#.N........c. .
 3ae8 6310c023 6316c001 e3fe20fe 631ac021  c..#c..... .c..!
 3af8 1d4e9300 f0ff0141 63f62000 6312c021  .N.....Ac. .c..!
 3b08 6316c001 e3fe20fe 631cc01f 214e8140  c..... .c...!N.@
 3b18 054163f4 20006314 c0016313 c01fe3fe  .Ac. .c...c.....
 3b28 20fe254e 9300e0ff 1301f0ff 63f42000   .%N........c. .
 3b38 6314c001 6316c01d e3fe20fe 294e8140  c...c..... .)N.@
 3b48 1301f0ff 63f42000 6314c001 631ac01b  ....c. .c...c...
 3b58 e3fe20fe 2d4eb700 00809380 f0ff3701  .. .-N........7.
 3b68 008063f4 20006314 c001631b c019e3fe  ..c. .c...c.....
 3b78 20fe314e 0142b700 00f09380 f0ff3701   .1N.B........7.
 3b88 00f063ff 20160502 8942e316 52fe354e  ..c. ....B..R.5N
 3b98 0142b700 00f09380 f0ff3701 00f00100  .B........7.....
 3ba8 63f02016 05028942 e31552fe 394e0142  c. ....B..R.9N.B
 3bb8 b70000f0 9380f0ff 370100f0 01000100  ........7.......
 3bc8 63f02014 05028942 e31452fe 3d4e0142  c. ....B..R.=N.B
 3bd8 b70000f0 9380f0ff 01003701 00f063f1  ..........7...c.
 3be8 20120502 8942e315 52fe414e 0142b700   ....B..R.AN.B..
 3bf8 00f09380 f0ff0100 370100f0 010063f1  ........7.....c.
 3c08 20100502 8942e314 52fe454e 0142b700   ....B..R.EN.B..
 3c18 00f09380 f0ff0100 01003701 00f063f1  ..........7...c.
 3c28 200e0502 8942e314 52fe494e 0142b700   ....B..R.IN.B..
 3c38 00f09380 f0ff3701 00f063f3 200c0502  ......7...c. ...
 3c48 8942e316 52fe4d4e 0142b700 00f09380  .B..R.MN.B......
 3c58 f0ff3701 00f00100 63f4200a 05028942  ..7.....c. ....B
 3c68 e31552fe 514e0142 b70000f0 9380f0ff  ..R.QN.B........
 3c78 370100f0 01000100 63f42008 05028942  7.......c. ....B
 3c88 e31452fe 554e0142 b70000f0 9380f0ff  ..R.UN.B........
 3c98 01003701 00f063f5 20060502 8942e315  ..7...c. ....B..
 3ca8 52fe594e 0142b700 00f09380 f0ff0100  R.YN.B..........
 3cb8 370100f0 010063f5 20040502 8942e314  7.....c. ....B..
 3cc8 52fe5d4e 0142b700 00f09380 f0ff0100  R.]N.B..........
 3cd8 01003701 00f063f5 20020502 8942e314  ..7...c. ....B..
 3ce8 52fe8540 63f60000 85008500 85008500  R..@c...........
 3cf8 85008500 8d4e614e 6394d001 6315c003  .....NaNc...c...
 3d08 37050110 13054500 93055004 13062005  7.....E...P... .
 3d18 9306f004 1307a000 0cc110c1 10c114c1  ................
 3d28 10c118c1 02903705 01101305 45009305  ......7.....E...
 3d38 f0041306 b0049306 a0000cc1 10c114c1  ................
 3d48 13010f00 8321c1ff 832081ff 6fc02fce  .....!... ..o./.
 3d58 130f0100 232e31fe 232c11fe 1385c18a  ....#.1.#,......
 3d68 37060110 13064600 83050500 63860500  7.....F.....c...
 3d78 0cc20505 6ff05fff 9305e002 0cc20cc2  ....o._.........
 3d88 b710ff00 938000f0 93c1f0f0 b7fe00ff  ................
 3d98 938efe00 094e6391 d119b710 f00f9380  .....Nc.........
 3da8 00ff93c1 000fb71e f00f938e 0ef00d4e  ...............N
 3db8 6394d117 b710ff00 9380f08f 93c1f070  c..............p
 3dc8 b71eff00 938e0eff 114e6397 d115b7f0  .........Nc.....
 3dd8 0ff09380 f00093c1 000fb7fe 0ff0938e  ................
 3de8 fe0f154e 639ad113 b7f000ff 93800070  ...Nc..........p
 3df8 93c0f070 b7fe00ff 938efe00 194e639d  ...p.........Nc.
 3e08 d0110142 b710f00f 938000ff 93c1000f  ...B............
 3e18 13830100 05028942 e31652fe b71ef00f  .......B..R.....
 3e28 938e0ef0 1d4e6319 d30f0142 b710ff00  .....Nc....B....
 3e38 9380f08f 93c1f070 01001383 01000502  .......p........
 3e48 8942e315 52feb71e ff00938e 0eff214e  .B..R.........!N
 3e58 6314d30d 0142b7f0 0ff09380 f00093c1  c....B..........
 3e68 000f0100 01001383 01000502 8942e314  .............B..
 3e78 52feb7fe 0ff0938e fe0f254e 631ed309  R.........%Nc...
 3e88 0142b710 f00f9380 00ff93c1 000f0502  .B..............
 3e98 8942e318 52feb71e f00f938e 0ef0294e  .B..R.........)N
 3ea8 639cd107 0142b710 ff009380 f0ff0100  c....B..........
 3eb8 93c1f000 05028942 e31752fe b71eff00  .......B..R.....
 3ec8 938e0eff 2d4e6399 d1050142 b7f00ff0  ....-Nc....B....
 3ed8 9380f000 01000100 93c1000f 05028942  ...............B
 3ee8 e31652fe b7fe0ff0 938efe0f 314e6395  ..R.........1Nc.
 3ef8 d1039340 000f930e 000f354e 639ed001  ...@......5Nc...
 3f08 b700ff00 9380f00f 13c0f070 814e394e  ...........p.N9N
 3f18 6314d001 6315c003 37050110 13054500  c...c...7.....E.
 3f28 93055004 13062005 9306f004 1307a000  ..P... .........
 3f38 0cc110c1 10c114c1 10c118c1 02903705  ..............7.
 3f48 01101305 45009305 f0041306 b0049306  ....E...........
 3f58 a0000cc1 10c114c1 13010f00 8321c1ff  .............!..
 3f68 832081ff 6fc02fb2 130f0100 232e31fe  . ..o./.....#.1.
 3f78 232c11fe 1385418b 37060110 13064600  #,....A.7.....F.
 3f88 83050500 63860500 0cc20505 6ff05fff  ....c.......o._.
 3f98 9305e002 0cc20cc2 97c00000 93804023  ..............@#
 3fa8 83a10000 b70eff00 938efe0f 094e639a  .............Nc.
 3fb8 d12197c0 00009380 a02183a1 4000b70e  .!.......!..@...
 3fc8 01ff938e 0ef00d4e 639dd11f 97c00000  .......Nc.......
 3fd8 93800020 83a18000 b71ef00f 938e0eff  ... ............
 3fe8 114e6390 d11f97c0 00009380 601e83a1  .Nc.........`...
 3ff8 c000b7fe 0ff0938e fe00154e 6393d11d  ...........Nc...
 4008 97c00000 9380801d 83a140ff b70eff00  ..........@.....
 4018 938efe0f 194e6396 d11b97c0 00009380  .....Nc.........
 4028 e01b83a1 80ffb70e 01ff938e 0ef01d4e  ...............N
 4038 6399d119 97c00000 9380401a 83a1c0ff  c.........@.....
 4048 b71ef00f 938e0eff 214e639c d11797c0  ........!Nc.....
 4058 00009380 a01883a1 0000b7fe 0ff0938e  ................
 4068 fe00254e 639fd115 97c00000 93804016  ..%Nc.........@.
 4078 811083a1 0002b70e ff00938e fe0f294e  ..............)N
 4088 6391d115 97c00000 93808014 f51083a1  c...............
 4098 7000b70e 01ff938e 0ef02d4e 6393d113  p.........-Nc...
 40a8 314e0142 97c00000 9380c012 83a14000  1N.B..........@.
 40b8 13830100 b71ef00f 938e0eff 6313d311  ............c...
 40c8 05028942 e31052fe 354e0142 97c00000  ...B..R.5N.B....
 40d8 93808010 83a14000 01001383 0100b7fe  ......@.........
 40e8 0ff0938e fe00631e d30d0502 8942e31f  ......c......B..
 40f8 52fc394e 014297c0 00009380 600d83a1  R.9N.B......`...
 4108 40000100 01001383 0100b70e 01ff938e  @...............
 4118 0ef06318 d30b0502 8942e31e 52fc3d4e  ..c......B..R.=N
 4128 014297c0 00009380 e00a83a1 4000b71e  .B..........@...
 4138 f00f938e 0eff6396 d1090502 8942e312  ......c......B..
 4148 52fe414e 014297c0 00009380 e0080100  R.AN.B..........
 4158 83a14000 b7fe0ff0 938efe00 6393d107  ..@.........c...
 4168 05028942 e31152fe 454e0142 97c00000  ...B..R.EN.B....
 4178 93800006 01000100 83a14000 b70e01ff  ..........@.....
 4188 938e0ef0 639fd103 05028942 e31052fe  ....c......B..R.
 4198 97c10000 9381c103 03a10100 0941894e  .............A.N
 41a8 494e6310 d10397c1 00009381 610203a1  INc.........a...
 41b8 01000100 0941894e 4d4e6314 d1016315  .....A.NMNc...c.
 41c8 c0033705 01101305 45009305 50041306  ..7.....E...P...
 41d8 20059306 f0041307 a0000cc1 10c110c1   ...............
 41e8 14c110c1 18c10290 37050110 13054500  ........7.....E.
 41f8 9305f004 1306b004 9306a000 0cc110c1  ................
 4208 14c11301 0f008321 c1ff8320 81ff6fc0  .......!... ..o.
 4218 8f83130f 0100232e 31fe232c 11fe1385  ......#.1.#,....
 4228 818c3706 01101306 46008305 05006386  ..7.....F.....c.
 4238 05000cc2 05056ff0 5fff9305 e0020cc2  ......o._.......
 4248 0cc2b780 ffff0141 b3d12000 b78effff  .......A.. .....
 4258 094e639f d149b780 ffff0541 b3d12000  .Nc..I.....A.. .
 4268 b7ceff7f 0d4e6395 d149b780 ffff1d41  .....Nc..I.....A
 4278 b3d12000 b70e0002 938e0ef0 114e6399  .. ..........Nc.
 4288 d147b780 ffff3941 b3d12000 b70e0400  .G....9A.. .....
 4298 938eeeff 154e639d d145b780 ffff9380  .....Nc..E......
 42a8 10003d41 b3d12000 b70e0200 938efeff  ..=A.. .........
 42b8 194e639f d1439300 f0ff0141 b3d12000  .Nc..C.....A.. .
 42c8 930ef0ff 1d4e6395 d1439300 f0ff0541  .....Nc..C.....A
 42d8 b3d12000 b70e0080 938efeff 214e6399  .. .........!Nc.
 42e8 d1419300 f0ff1d41 b3d12000 b70e0002  .A.....A.. .....
 42f8 938efeff 254e639d d13f9300 f0ff3941  ....%Nc..?....9A
 4308 b3d12000 b70e0400 938efeff 294e6391  .. .........)Nc.
 4318 d13f9300 f0ff7d41 b3d12000 854e2d4e  .?....}A.. ..N-N
 4328 6398d13d b7202121 93801012 0141b3d1  c..=. !!.....A..
 4338 2000b72e 2121938e 1e12314e 639ad13b   ...!!....1Nc..;
 4348 b7202121 93801012 0541b3d1 2000b79e  . !!.....A.. ...
 4358 9010938e 0e09354e 639cd139 b7202121  ......5Nc..9. !!
 4368 93801012 1d41b3d1 2000b74e 4200938e  .....A.. ..NB...
 4378 2e24394e 639ed137 b7202121 93801012  .$9Nc..7. !!....
 4388 3941b3d1 2000b78e 0000938e 4e483d4e  9A.. .......NH=N
 4398 6390d137 b7202121 93801012 7d41b3d1  c..7. !!....}A..
 43a8 2000814e 414e6395 d135b720 21219380   ..NANc..5. !!..
 43b8 10121301 00feb3d1 2000b72e 2121938e  ........ ...!!..
 43c8 1e12454e 6396d133 b7202121 93801012  ..ENc..3. !!....
 43d8 130110fe b3d12000 b79e9010 938e0e09  ...... .........
 43e8 494e6397 d131b720 21219380 10121301  INc..1. !!......
 43f8 70feb3d1 2000b74e 4200938e 2e244d4e  p... ..NB....$MN
 4408 6398d12f b7202121 93801012 1301e0fe  c../. !!........
 4418 b3d12000 b78e0000 938e4e48 514e6399  .. .......NHQNc.
 4428 d12db720 21219380 10121301 f0ffb3d1  .-. !!..........
 4438 2000814e 554e639d d12bb780 ffff0541   ..NUNc..+.....A
 4448 b3d02000 b7ceff7f 594e6393 d02bb780  .. .....YNc..+..
 4458 ffff3941 33d12000 b70e0400 938eeeff  ..9A3. .........
 4468 5d4e6317 d1299d40 b3d01000 814e614e  ]Nc..).@.....NaN
 4478 6390d029 0142b780 ffff0541 b3d12000  c..).B.....A.. .
 4488 13830100 05028942 e31752fe b7ceff7f  .......B..R.....
 4498 654e631f d3250142 b780ffff 3941b3d1  eNc..%.B....9A..
 44a8 20000100 13830100 05028942 e31652fe   ..........B..R.
 44b8 b70e0400 938eeeff 694e631b d3230142  ........iNc..#.B
 44c8 b780ffff 3d41b3d1 20000100 01001383  ....=A.. .......
 44d8 01000502 8942e315 52feb70e 0200938e  .....B..R.......
 44e8 feff6d4e 6316d321 0142b780 ffff0541  ..mNc..!.B.....A
 44f8 b3d12000 05028942 e31952fe b7ceff7f  .. ....B..R.....
 4508 714e6397 d11f0142 b780ffff 1d410100  qNc....B.....A..
 4518 b3d12000 05028942 e31852fe b70e0002  .. ....B..R.....
 4528 938e0ef0 754e6395 d11d0142 b780ffff  ....uNc....B....
 4538 3d410100 0100b3d1 20000502 8942e317  =A...... ....B..
 4548 52feb70e 0200938e feff794e 6392d11b  R.........yNc...
 4558 0142b780 ffff0100 0541b3d1 20000502  .B.......A.. ...
 4568 8942e318 52feb7ce ff7f7d4e 6392d119  .B..R.....}Nc...
 4578 0142b780 ffff0100 1d410100 b3d12000  .B.......A.... .
 4588 05028942 e31752fe b70e0002 938e0ef0  ...B..R.........
 4598 130e0002 639ed115 0142b780 ffff0100  ....c....B......
 45a8 01003d41 b3d12000 05028942 e31752fe  ..=A.. ....B..R.
 45b8 b70e0200 938efeff 130e1002 639ad113  ............c...
 45c8 01420541 b780ffff b3d12000 05028942  .B.A...... ....B
 45d8 e31952fe b7ceff7f 130e2002 639ad111  ..R....... .c...
 45e8 01421d41 b780ffff 0100b3d1 20000502  .B.A........ ...
 45f8 8942e318 52feb70e 0002938e 0ef0130e  .B..R...........
 4608 30026397 d10f0142 3d41b780 ffff0100  0.c....B=A......
 4618 0100b3d1 20000502 8942e317 52feb70e  .... ....B..R...
 4628 0200938e feff130e 40026393 d10d0142  ........@.c....B
 4638 05410100 b780ffff b3d12000 05028942  .A........ ....B
 4648 e31852fe b7ceff7f 130e5002 6392d10b  ..R.......P.c...
 4658 01421d41 0100b780 ffff0100 b3d12000  .B.A.......... .
 4668 05028942 e31752fe b70e0002 938e0ef0  ...B..R.........
 4678 130e6002 639ed107 01423d41 01000100  ..`.c....B=A....
 4688 b780ffff b3d12000 05028942 e31752fe  ...... ....B..R.
 4698 b70e0200 938efeff 130e7002 639ad105  ..........p.c...
 46a8 bd403351 1000814e 130e8002 6312d105  .@3Q...N....c...
 46b8 93000002 33d10000 930e0002 130e9002  ....3...........
 46c8 6318d103 b3500000 814e130e a0026391  c....P...N....c.
 46d8 d0039300 00403711 00001301 018033d0  .....@7.......3.
 46e8 2000814e 130eb002 6314d001 6315c003   ..N....c...c...
 46f8 37050110 13054500 93055004 13062005  7.....E...P... .
 4708 9306f004 1307a000 0cc110c1 10c114c1  ................
 4718 10c118c1 02903705 01101305 45009305  ......7.....E...
 4728 f0041306 b0049306 a0000cc1 10c114c1  ................
 4738 13010f00 8321c1ff 832081ff 6fb03fba  .....!... ..o.?.
 4748 130f0100 232e31fe 232c11fe 1385c18c  ....#.1.#,......
 4758 37060110 13064600 83050500 63860500  7.....F.....c...
 4768 0cc20505 6ff05fff 9305e002 0cc20cc2  ....o._.........
 4778 81400141 b3812000 814e094e 639dd137  .@.A.. ..N.Nc..7
 4788 85400541 b3812000 894e0d4e 6395d137  .@.A.. ..N.Nc..7
 4798 8d401d41 b3812000 a94e114e 639dd135  .@.A.. ..N.Nc..5
 47a8 81403781 ffffb381 2000b78e ffff154e  .@7..... ......N
 47b8 6393d135 b7000080 0141b381 2000b70e  c..5.....A.. ...
 47c8 0080194e 6399d133 b7000080 3781ffff  ...Nc..3....7...
 47d8 b3812000 b78eff7f 1d4e639e d1318140  .. ......Nc..1.@
 47e8 37810000 1301f1ff b3812000 b78e0000  7......... .....
 47f8 938efeff 214e6390 d131b700 00809380  ....!Nc..1......
 4808 f0ff0141 b3812000 b70e0080 938efeff  ...A.. .........
 4818 254e6392 d12fb700 00809380 f0ff3781  %Nc../........7.
 4828 00001301 f1ffb381 2000b78e 0080938e  ........ .......
 4838 eeff294e 6391d12d b7000080 37810000  ..)Nc..-....7...
 4848 1301f1ff b3812000 b78e0080 938efeff  ...... .........
 4858 2d4e6392 d12bb700 00809380 f0ff3781  -Nc..+........7.
 4868 ffffb381 2000b78e ff7f938e feff314e  .... .........1N
 4878 6393d129 81401301 f0ffb381 2000930e  c..).@...... ...
 4888 f0ff354e 6399d127 9300f0ff 0541b381  ..5Nc..'.....A..
 4898 2000814e 394e6390 d1279300 f0ff1301   ..N9Nc..'......
 48a8 f0ffb381 2000930e e0ff3d4e 6395d125  .... .....=Nc..%
 48b8 85403701 00801301 f1ffb381 2000b70e  .@7......... ...
 48c8 0080414e 6399d123 b5402d41 8a90e14e  ..ANc..#.@-A...N
 48d8 454e6392 d023b940 2d410691 e54e494e  ENc..#.@-A...NIN
 48e8 631bd121 b5408690 e94e4d4e 6395d021  c..!.@...NMNc..!
 48f8 0142b540 2d41b381 20001383 01000502  .B.@-A.. .......
 4908 8942e318 52fee14e 514e6316 d31f0142  .B..R..NQNc....B
 4918 b9402d41 b3812000 01001383 01000502  .@-A.. .........
 4928 8942e317 52fee54e 554e6316 d31d0142  .B..R..NUNc....B
 4938 bd402d41 b3812000 01000100 13830100  .@-A.. .........
 4948 05028942 e31652fe e94e594e 6315d31b  ...B..R..NYNc...
 4958 0142b540 2d41b381 20000502 8942e31a  .B.@-A.. ....B..
 4968 52fee14e 5d4e6398 d1190142 b9402d41  R..N]Nc....B.@-A
 4978 0100b381 20000502 8942e319 52fee54e  .... ....B..R..N
 4988 614e639a d1170142 bd402d41 01000100  aNc....B.@-A....
 4998 b3812000 05028942 e31852fe e94e654e  .. ....B..R..NeN
 49a8 639bd115 0142b540 01002d41 b3812000  c....B.@..-A.. .
 49b8 05028942 e31952fe e14e694e 639dd113  ...B..R..NiNc...
 49c8 0142b940 01002d41 0100b381 20000502  .B.@..-A.... ...
 49d8 8942e318 52fee54e 6d4e639e d1110142  .B..R..NmNc....B
 49e8 bd400100 01002d41 b3812000 05028942  .@....-A.. ....B
 49f8 e31852fe e94e714e 639fd10f 01422d41  ..R..NqNc....B-A
 4a08 b540b381 20000502 8942e31a 52fee14e  .@.. ....B..R..N
 4a18 754e6392 d10f0142 2d41b940 0100b381  uNc....B-A.@....
 4a28 20000502 8942e319 52fee54e 794e6394   ....B..R..NyNc.
 4a38 d10d0142 2d41bd40 01000100 b3812000  ...B-A.@...... .
 4a48 05028942 e31852fe e94e7d4e 6395d10b  ...B..R..N}Nc...
 4a58 01422d41 0100b540 b3812000 05028942  .B-A...@.. ....B
 4a68 e31952fe e14e130e 00026396 d1090142  ..R..N....c....B
 4a78 2d410100 b9400100 b3812000 05028942  -A...@.... ....B
 4a88 e31852fe e54e130e 10026396 d1070142  ..R..N....c....B
 4a98 2d410100 0100bd40 b3812000 05028942  -A.....@.. ....B
 4aa8 e31852fe e94e130e 20026396 d105bd40  ..R..N.. .c....@
 4ab8 33011000 bd4e130e 3002631e d1039300  3....N..0.c.....
 4ac8 00023381 0000930e 0002130e 40026314  ..3.........@.c.
 4ad8 d103b300 0000814e 130e5002 639dd001  .......N..P.c...
 4ae8 c1407941 33802000 814e130e 60026314  .@yA3. ..N..`.c.
 4af8 d0016315 c0033705 01101305 45009305  ..c...7.....E...
 4b08 50041306 20059306 f0041307 a0000cc1  P... ...........
 4b18 10c110c1 14c110c1 18c10290 37050110  ............7...
 4b28 13054500 9305f004 1306b004 9306a000  ..E.............
 4b38 0cc110c1 14c11301 0f008321 c1ff8320  ...........!... 
 4b48 81ff6fb0 4ff7130f 0100232e 31fe232c  ..o.O.....#.1.#,
 4b58 11fe1385 018d3706 01101306 46008305  ......7.....F...
 4b68 05006386 05000cc2 05056ff0 5fff9305  ..c.......o._...
 4b78 e0020cc2 0cc28140 0141b3a1 2000814e  .......@.A.. ..N
 4b88 094e6396 d1358540 0541b3a1 2000814e  .Nc..5.@.A.. ..N
 4b98 0d4e639e d1338d40 1d41b3a1 2000854e  .Nc..3.@.A.. ..N
 4ba8 114e6396 d1339d40 0d41b3a1 2000814e  .Nc..3.@.A.. ..N
 4bb8 154e639e d1318140 3781ffff b3a12000  .Nc..1.@7..... .
 4bc8 814e194e 6395d131 b7000080 0141b3a1  .N.Nc..1.....A..
 4bd8 2000854e 1d4e639c d12fb700 00803781   ..N.Nc../....7.
 4be8 ffffb3a1 2000854e 214e6392 d12f8140  .... ..N!Nc../.@
 4bf8 37810000 1301f1ff b3a12000 854e254e  7......... ..N%N
 4c08 6397d12d b7000080 9380f0ff 0141b3a1  c..-.........A..
 4c18 2000814e 294e639c d12bb700 00809380   ..N)Nc..+......
 4c28 f0ff3781 00001301 f1ffb3a1 2000814e  ..7......... ..N
 4c38 2d4e639e d129b700 00803781 00001301  -Nc..)....7.....
 4c48 f1ffb3a1 2000854e 314e6392 d129b700  .... ..N1Nc..)..
 4c58 00809380 f0ff3781 ffffb3a1 2000814e  ......7..... ..N
 4c68 354e6396 d1278140 1301f0ff b3a12000  5Nc..'.@...... .
 4c78 814e394e 639dd125 9300f0ff 0541b3a1  .N9Nc..%.....A..
 4c88 2000854e 3d4e6394 d1259300 f0ff1301   ..N=Nc..%......
 4c98 f0ffb3a1 2000814e 414e639a d123b940  .... ..NANc..#.@
 4ca8 3541b3a0 2000814e 454e6392 d023ad40  5A.. ..NENc..#.@
 4cb8 354133a1 2000854e 494e631a d121b540  5A3. ..NINc..!.@
 4cc8 b3a01000 814e4d4e 6393d021 0142ad40  .....NMNc..!.B.@
 4cd8 3541b3a1 20001383 01000502 8942e318  5A.. ........B..
 4ce8 52fe854e 514e6314 d31f0142 b9403541  R..NQNc....B.@5A
 4cf8 b3a12000 01001383 01000502 8942e317  .. ..........B..
 4d08 52fe814e 554e6314 d31d0142 b1403541  R..NUNc....B.@5A
 4d18 b3a12000 01000100 13830100 05028942  .. ............B
 4d28 e31652fe 854e594e 6313d31b 0142b940  ..R..NYNc....B.@
 4d38 3541b3a1 20000502 8942e31a 52fe814e  5A.. ....B..R..N
 4d48 5d4e6396 d1190142 ad403541 0100b3a1  ]Nc....B.@5A....
 4d58 20000502 8942e319 52fe854e 614e6398   ....B..R..NaNc.
 4d68 d1170142 bd403541 01000100 b3a12000  ...B.@5A...... .
 4d78 05028942 e31852fe 814e654e 6399d115  ...B..R..NeNc...
 4d88 0142a940 01003541 b3a12000 05028942  .B.@..5A.. ....B
 4d98 e31952fe 854e694e 639bd113 0142c140  ..R..NiNc....B.@
 4da8 01003541 0100b3a1 20000502 8942e318  ..5A.... ....B..
 4db8 52fe814e 6d4e639c d1110142 a5400100  R..NmNc....B.@..
 4dc8 01003541 b3a12000 05028942 e31852fe  ..5A.. ....B..R.
 4dd8 854e714e 639dd10f 01423541 c540b3a1  .NqNc....B5A.@..
 4de8 20000502 8942e31a 52fe814e 754e6390   ....B..R..NuNc.
 4df8 d10f0142 3541a140 0100b3a1 20000502  ...B5A.@.... ...
 4e08 8942e319 52fe854e 794e6392 d10d0142  .B..R..NyNc....B
 4e18 3541c940 01000100 b3a12000 05028942  5A.@...... ....B
 4e28 e31852fe 814e7d4e 6393d10b 01423541  ..R..N}Nc....B5A
 4e38 01009d40 b3a12000 05028942 e31952fe  ...@.. ....B..R.
 4e48 854e130e 00026394 d1090142 35410100  .N....c....B5A..
 4e58 cd400100 b3a12000 05028942 e31852fe  .@.... ....B..R.
 4e68 814e130e 10026394 d1070142 35410100  .N....c....B5A..
 4e78 01009940 b3a12000 05028942 e31852fe  ...@.. ....B..R.
 4e88 854e130e 20026394 d105fd50 33211000  .N.. .c....P3!..
 4e98 814e130e 3002631c d103fd50 33a10000  .N..0.c....P3...
 4ea8 854e130e 40026314 d103b320 0000814e  .N..@.c.... ...N
 4eb8 130e5002 639dd001 c1407941 33a02000  ..P.c....@yA3. .
 4ec8 814e130e 60026314 d0016315 c0033705  .N..`.c...c...7.
 4ed8 01101305 45009305 50041306 20059306  ....E...P... ...
 4ee8 f0041307 a0000cc1 10c110c1 14c110c1  ................
 4ef8 18c10290 37050110 13054500 9305f004  ....7.....E.....
 4f08 1306b004 9306a000 0cc110c1 14c11301  ................
 4f18 0f008321 c1ff8320 81ff6fb0 4fbb130f  ...!... ..o.O...
 4f28 0100232e 31fe232c 11fe1385 418d3706  ..#.1.#,....A.7.
 4f38 01101306 46008305 05006386 05000cc2  ....F.....c.....
 4f48 05056ff0 5fff9305 e0020cc2 0cc297b0  ..o._...........
 4f58 00009380 e02983c1 0000930e f00f094e  .....).........N
 4f68 6393d11d 97b00000 93808028 83c11000  c..........(....
 4f78 814e0d4e 6399d11b 97b00000 93804027  .N.Nc.........@'
 4f88 83c12000 930e000f 114e639e d11997b0  .. ......Nc.....
 4f98 00009380 e02583c1 3000bd4e 154e6394  .....%..0..N.Nc.
 4fa8 d11997b0 00009380 d02483c1 d0ff930e  .........$......
 4fb8 f00f194e 6399d117 97b00000 93807023  ...Nc.........p#
 4fc8 83c1e0ff 814e1d4e 639fd115 97b00000  .....N.Nc.......
 4fd8 93803022 83c1f0ff 930e000f 214e6394  ..0"........!Nc.
 4fe8 d11597b0 00009380 d02083c1 0000bd4e  ......... .....N
 4ff8 254e639a d11397b0 00009380 601f8110  %Nc.........`...
 5008 83c10002 930ef00f 294e639e d11197b0  ........)Nc.....
 5018 00009380 e01de910 83c17000 814e2d4e  ..........p..N-N
 5028 6393d111 314e0142 97b00000 9380501c  c...1N.B......P.
 5038 83c11000 13830100 930e000f 6315d30f  ............c...
 5048 05028942 e31252fe 354e0142 97b00000  ...B..R.5N.B....
 5058 9380201a 83c11000 01001383 0100bd4e  .. ............N
 5068 6313d30d 05028942 e31252fe 394e0142  c......B..R.9N.B
 5078 97b00000 9380c017 83c11000 01000100  ................
 5088 13830100 814e6310 d30b0502 8942e311  .....Nc......B..
 5098 52fe3d4e 014297b0 00009380 701583c1  R.=N.B......p...
 50a8 1000930e 000f6390 d1090502 8942e314  ......c......B..
 50b8 52fe414e 014297b0 00009380 80130100  R.AN.B..........
 50c8 83c11000 bd4e6390 d1070502 8942e314  .....Nc......B..
 50d8 52fe454e 014297b0 00009380 60110100  R.EN.B......`...
 50e8 010083c1 1000814e 639fd103 05028942  .......Nc......B
 50f8 e31352fe 97b10000 9381810f 03c10100  ..R.............
 5108 0941894e 494e6310 d10397b1 00009381  .A.NINc.........
 5118 210e03c1 01000100 0941894e 4d4e6314  !........A.NMNc.
 5128 d1016315 c0033705 01101305 45009305  ..c...7.....E...
 5138 50041306 20059306 f0041307 a0000cc1  P... ...........
 5148 10c110c1 14c110c1 18c10290 37050110  ............7...
 5158 13054500 9305f004 1306b004 9306a000  ..E.............
 5168 0cc110c1 14c11301 0f008321 c1ff8320  ...........!... 
 5178 81ff6fb0 cf8d130f 0100232e 31fe232c  ..o.......#.1.#,
 5188 11fe1385 c18d3706 01101306 46008305  ......7.....F...
 5198 05006386 05000cc2 05056ff0 5fff9305  ..c.......o._...
 51a8 e0020cc2 0cc297b0 00009380 e00483d1  ................
 51b8 0000930e f00f094e 6396d121 97b00000  .......Nc..!....
 51c8 93808003 83d12000 b70e0100 938e0ef0  ...... .........
 51d8 0d4e6399 d11f97b0 00009380 e00183d1  .Nc.............
 51e8 4000b71e 0000938e 0eff114e 639cd11d  @..........Nc...
 51f8 97b00000 93804000 83d16000 b7fe0000  ......@...`.....
 5208 938efe00 154e639f d11b97b0 00009380  .....Nc.........
 5218 00ff83d1 a0ff930e f00f194e 6394d11b  ...........Nc...
 5228 97b00000 9380a0fd 83d1c0ff b70e0100  ................
 5238 938e0ef0 1d4e6397 d11997b0 00009380  .....Nc.........
 5248 00fc83d1 e0ffb71e 0000938e 0eff214e  ..............!N
 5258 639ad117 97b00000 938060fa 83d10000  c.........`.....
 5268 b7fe0000 938efe00 254e639d d11597b0  ........%Nc.....
 5278 00009380 60f88110 83d10002 930ef00f  ....`...........
 5288 294e6391 d11597b0 00009380 e0f6ed10  )Nc.............
 5298 83d17000 b70e0100 938e0ef0 2d4e6393  ..p.........-Nc.
 52a8 d113314e 014297b0 00009380 00f583d1  ..1N.B..........
 52b8 20001383 0100b71e 0000938e 0eff6313   .............c.
 52c8 d3110502 8942e310 52fe354e 014297b0  .....B..R.5N.B..
 52d8 00009380 a0f283d1 20000100 13830100  ........ .......
 52e8 b7fe0000 938efe00 631ed30d 05028942  ........c......B
 52f8 e31f52fc 394e0142 97b00000 9380c0ef  ..R.9N.B........
 5308 83d12000 01000100 13830100 b70e0100  .. .............
 5318 938e0ef0 6318d30b 05028942 e31e52fc  ....c......B..R.
 5328 3d4e0142 97b00000 938020ed 83d12000  =N.B...... ... .
 5338 b71e0000 938e0eff 6396d109 05028942  ........c......B
 5348 e31252fe 414e0142 97b00000 938000eb  ..R.AN.B........
 5358 010083d1 2000b7fe 0000938e fe006393  .... .........c.
 5368 d1070502 8942e311 52fe454e 014297b0  .....B..R.EN.B..
 5378 00009380 60e80100 010083d1 2000b70e  ....`....... ...
 5388 0100938e 0ef0639f d1030502 8942e310  ......c......B..
 5398 52fe97b1 00009381 21e603d1 01000941  R.......!......A
 53a8 894e494e 6310d103 97b10000 9381c1e4  .NINc...........
 53b8 03d10100 01000941 894e4d4e 6314d101  .......A.NMNc...
 53c8 6315c003 37050110 13054500 93055004  c...7.....E...P.
 53d8 13062005 9306f004 1307a000 0cc110c1  .. .............
 53e8 10c114c1 10c118c1 02903705 01101305  ..........7.....
 53f8 45009305 f0041306 b0049306 a0000cc1  E...............
 5408 10c114c1 13010f00 8321c1ff 832081ff  .........!... ..
 5418 6fa07fe4 130f0100 232e31fe 232c11fe  o.......#.1.#,..
 5428 1385818e 37060110 13064600 83050500  ....7.....F.....
 5438 63860500 0cc20505 6ff05fff 9305e002  c.......o._.....
 5448 0cc20cc2 37050110 13054500 9305f004  ....7.....E.....
 5458 1306b004 9306a000 0cc110c1 14c11301  ................
 5468 0f008321 c1ff8320 81ff6fa0 5fe9130f  ...!... ..o._...
 5478 0100232e 31fe232c 11fe1385 018f3706  ..#.1.#,......7.
 5488 01101306 46008305 05006386 05000cc2  ....F.....c.....
 5498 05056ff0 5fff9305 e0020cc2 0cc2094e  ..o._..........N
 54a8 81400541 63c62000 6315c01d 6316c001  .@.Ac. .c...c...
 54b8 e3ce20fe 631fc01b 0d4efd50 054163c6  .. .c....N.P.Ac.
 54c8 20006318 c01b6316 c001e3ce 20fe6312   .c...c..... .c.
 54d8 c01b114e f9507d51 63c62000 631bc019  ...N.P}Qc. .c...
 54e8 6316c001 e3ce20fe 6315c019 154e8540  c..... .c....N.@
 54f8 014163c4 20006314 c001631c c017e3ce  .Ac. .c...c.....
 5508 20fe194e 85407d51 63c42000 6314c001   ..N.@}Qc. .c...
 5518 6311c017 e3ce20fe 1d4efd50 795163c4  c..... ..N.PyQc.
 5528 20006314 c0016316 c015e3ce 20fe214e   .c...c..... .!N
 5538 85407951 63c42000 6314c001 631bc013  .@yQc. .c...c...
 5548 e3ce20fe 254e0142 81407d51 63c32012  .. .%N.B.@}Qc. .
 5558 05028942 e31a52fe 294e0142 81407d51  ...B..R.)N.B.@}Q
 5568 010063c8 20100502 8942e319 52fe2d4e  ..c. ....B..R.-N
 5578 01428140 7d510100 010063cc 200e0502  .B.@}Q....c. ...
 5588 8942e318 52fe314e 01428140 01007d51  .B..R.1N.B.@..}Q
 5598 63c1200e 05028942 e31952fe 354e0142  c. ....B..R.5N.B
 55a8 81400100 7d510100 63c5200c 05028942  .@..}Q..c. ....B
 55b8 e31852fe 394e0142 81400100 01007d51  ..R.9N.B.@....}Q
 55c8 63c9200a 05028942 e31852fe 3d4e0142  c. ....B..R.=N.B
 55d8 81407d51 63cf2008 05028942 e31a52fe  .@}Qc. ....B..R.
 55e8 414e0142 81407d51 010063c4 20080502  AN.B.@}Q..c. ...
 55f8 8942e319 52fe454e 01428140 7d510100  .B..R.EN.B.@}Q..
 5608 010063c8 20060502 8942e318 52fe494e  ..c. ....B..R.IN
 5618 01428140 01007d51 63cd2004 05028942  .B.@..}Qc. ....B
 5628 e31952fe 4d4e0142 81400100 7d510100  ..R.MN.B.@..}Q..
 5638 63c12004 05028942 e31852fe 514e0142  c. ....B..R.QN.B
 5648 81400100 01007d51 63c52002 05028942  .@....}Qc. ....B
 5658 e31852fe 85406346 10008500 85008500  ..R..@cF........
 5668 85008500 85008d4e 554e6394 d0016315  .......NUNc...c.
 5678 c0033705 01101305 45009305 50041306  ..7.....E...P...
 5688 20059306 f0041307 a0000cc1 10c110c1   ...............
 5698 14c110c1 18c10290 37050110 13054500  ........7.....E.
 56a8 9305f004 1306b004 9306a000 0cc110c1  ................
 56b8 14c11301 0f008321 c1ff8320 81ff6fa0  .......!... ..o.
 56c8 9fb5130f 0100232e 31fe232c 11fe1385  ......#.1.#,....
 56d8 418f3706 01101306 46008305 05006386  A.7.....F.....c.
 56e8 05000cc2 05056ff0 5fff9305 e0020cc2  ......o._.......
 56f8 0cc2b700 01ff9380 00f03711 0f0f1301  ..........7.....
 5708 f1f0b3f1 2000b71e 000f938e 0ef0094e  .... ..........N
 5718 639fd13d b710f00f 938000ff 37f1f0f0  c..=........7...
 5728 1301010f b3f12000 b70ef000 938e0e0f  ...... .........
 5738 0d4e639e d13bb700 ff009380 f00f3711  .Nc..;........7.
 5748 0f0f1301 f1f0b3f1 2000b70e 0f00938e  ........ .......
 5758 fe00114e 639dd139 b7f00ff0 9380f000  ...Nc..9........
 5768 37f1f0f0 1301010f b3f12000 b7fe00f0  7......... .....
 5778 154e639e d137b700 01ff9380 00f03711  .Nc..7........7.
 5788 0f0f1301 f1f0b3f0 2000b71e 000f938e  ........ .......
 5798 0ef0194e 639dd035 b710f00f 938000ff  ...Nc..5........
 57a8 37f1f0f0 1301010f 33f12000 b70ef000  7.......3. .....
 57b8 938e0e0f 1d4e631c d133b700 01ff9380  .....Nc..3......
 57c8 00f0b3f0 1000b70e 01ff938e 0ef0214e  ..............!N
 57d8 639fd031 0142b700 01ff9380 00f03711  c..1.B........7.
 57e8 0f0f1301 f1f0b3f1 20001383 01000502  ........ .......
 57f8 8942e312 52feb71e 000f938e 0ef0254e  .B..R.........%N
 5808 6317d32f 0142b710 f00f9380 00ff37f1  c../.B........7.
 5818 f0f01301 010fb3f1 20000100 13830100  ........ .......
 5828 05028942 e31152fe b70ef000 938e0e0f  ...B..R.........
 5838 294e631e d32b0142 b700ff00 9380f00f  )Nc..+.B........
 5848 37110f0f 1301f1f0 b3f12000 01000100  7......... .....
 5858 13830100 05028942 e31052fe b70e0f00  .......B..R.....
 5868 938efe00 2d4e6314 d3290142 b70001ff  ....-Nc..).B....
 5878 938000f0 37110f0f 1301f1f0 b3f12000  ....7......... .
 5888 05028942 e31452fe b71e000f 938e0ef0  ...B..R.........
 5898 314e639e d1250142 b710f00f 938000ff  1Nc..%.B........
 58a8 37f1f0f0 1301010f 0100b3f1 20000502  7........... ...
 58b8 8942e313 52feb70e f000938e 0e0f354e  .B..R.........5N
 58c8 6397d123 0142b700 ff009380 f00f3711  c..#.B........7.
 58d8 0f0f1301 f1f00100 0100b3f1 20000502  ............ ...
 58e8 8942e312 52feb70e 0f00938e fe00394e  .B..R.........9N
 58f8 639fd11f 0142b700 01ff9380 00f00100  c....B..........
 5908 37110f0f 1301f1f0 b3f12000 05028942  7......... ....B
 5918 e31352fe b71e000f 938e0ef0 3d4e6398  ..R.........=Nc.
 5928 d11d0142 b710f00f 938000ff 010037f1  ...B..........7.
 5938 f0f01301 010f0100 b3f12000 05028942  .......... ....B
 5948 e31252fe b70ef000 938e0e0f 414e6390  ..R.........ANc.
 5958 d11b0142 b700ff00 9380f00f 01000100  ...B............
 5968 37110f0f 1301f1f0 b3f12000 05028942  7......... ....B
 5978 e31252fe b70e0f00 938efe00 454e6398  ..R.........ENc.
 5988 d1170142 37110f0f 1301f1f0 b70001ff  ...B7...........
 5998 938000f0 b3f12000 05028942 e31452fe  ...... ....B..R.
 59a8 b71e000f 938e0ef0 494e6392 d1150142  ........INc....B
 59b8 37f1f0f0 1301010f b710f00f 938000ff  7...............
 59c8 0100b3f1 20000502 8942e313 52feb70e  .... ....B..R...
 59d8 f000938e 0e0f4d4e 639bd111 01423711  ......MNc....B7.
 59e8 0f0f1301 f1f0b700 ff009380 f00f0100  ................
 59f8 0100b3f1 20000502 8942e312 52feb70e  .... ....B..R...
 5a08 0f00938e fe00514e 6393d10f 01423711  ......QNc....B7.
 5a18 0f0f1301 f1f00100 b70001ff 938000f0  ................
 5a28 b3f12000 05028942 e31352fe b71e000f  .. ....B..R.....
 5a38 938e0ef0 554e639c d10b0142 37f1f0f0  ....UNc....B7...
 5a48 1301010f 0100b710 f00f9380 00ff0100  ................
 5a58 b3f12000 05028942 e31252fe b70ef000  .. ....B..R.....
 5a68 938e0e0f 594e6394 d1090142 37110f0f  ....YNc....B7...
 5a78 1301f1f0 01000100 b700ff00 9380f00f  ................
 5a88 b3f12000 05028942 e31252fe b70e0f00  .. ....B..R.....
 5a98 938efe00 5d4e639c d105b700 01ff9380  ....]Nc.........
 5aa8 00f03371 1000814e 614e6312 d105b700  ..3q...NaNc.....
 5ab8 ff009380 f00f33f1 0000814e 654e6318  ......3....NeNc.
 5ac8 d103b370 0000814e 694e6392 d003b710  ...p...NiNc.....
 5ad8 11119380 10113721 22221301 212233f0  ......7!""..!"3.
 5ae8 2000814e 6d4e6314 d0016315 c0033705   ..NmNc...c...7.
 5af8 01101305 45009305 50041306 20059306  ....E...P... ...
 5b08 f0041307 a0000cc1 10c110c1 14c110c1  ................
 5b18 18c10290 37050110 13054500 9305f004  ....7.....E.....
 5b28 1306b004 9306a000 0cc110c1 14c11301  ................
 5b38 0f008321 c1ff8320 81ff6fa0 cffb130f  ...!... ..o.....
 5b48 0100232e 31fe232c 11fe1385 818f3706  ..#.1.#,......7.
 5b58 01101306 46008305 05006386 05000cc2  ....F.....c.....
 5b68 05056ff0 5fff9305 e0020cc2 0cc2b700  ..o._...........
 5b78 01ff9380 00f093e1 f0f0930e f0f0094e  ...............N
 5b88 639fd117 b710f00f 938000ff 93e1000f  c...............
 5b98 b71ef00f 938e0eff 0d4e6392 d117b700  .........Nc.....
 5ba8 ff009380 f00f93e1 f070b70e ff00938e  .........p......
 5bb8 fe7f114e 6395d115 b7f00ff0 9380f000  ...Nc...........
 5bc8 93e1000f b7fe0ff0 938efe0f 154e6398  .............Nc.
 5bd8 d113b700 01ff9380 00f093e0 000fb70e  ................
 5be8 01ff938e 0eff194e 639bd011 0142b710  .......Nc....B..
 5bf8 f00f9380 00ff93e1 000f1383 01000502  ................
 5c08 8942e316 52feb71e f00f938e 0eff1d4e  .B..R..........N
 5c18 6317d30f 0142b700 ff009380 f00f93e1  c....B..........
 5c28 f0700100 13830100 05028942 e31552fe  .p.........B..R.
 5c38 b70eff00 938efe7f 214e6312 d30d0142  ........!Nc....B
 5c48 b7f00ff0 9380f000 93e1000f 01000100  ................
 5c58 13830100 05028942 e31452fe b7fe0ff0  .......B..R.....
 5c68 938efe0f 254e631c d3090142 b710f00f  ....%Nc....B....
 5c78 938000ff 93e1000f 05028942 e31852fe  ...........B..R.
 5c88 b71ef00f 938e0eff 294e639a d1070142  ........)Nc....B
 5c98 b700ff00 9380f00f 010093e1 f0f00502  ................
 5ca8 8942e317 52fe930e f0ff2d4e 6399d105  .B..R.....-Nc...
 5cb8 0142b7f0 0ff09380 f0000100 010093e1  .B..............
 5cc8 000f0502 8942e316 52feb7fe 0ff0938e  .....B..R.......
 5cd8 fe0f314e 6395d103 9360000f 930e000f  ..1Nc....`......
 5ce8 354e639e d001b700 ff009380 f00f13e0  5Nc.............
 5cf8 f070814e 394e6314 d0016315 c0033705  .p.N9Nc...c...7.
 5d08 01101305 45009305 50041306 20059306  ....E...P... ...
 5d18 f0041307 a0000cc1 10c110c1 14c110c1  ................
 5d28 18c10290 37050110 13054500 9305f004  ....7.....E.....
 5d38 1306b004 9306a000 0cc110c1 14c11301  ................
 5d48 0f008321 c1ff8320 81ff6fa0 4fd4130f  ...!... ..o.O...
 5d58 0100232e 31fe232c 11fe1385 c18f3706  ..#.1.#,......7.
 5d68 01101306 46008305 05006386 05000cc2  ....F.....c.....
 5d78 05056ff0 5fff9305 e0020cc2 0cc2b700  ..o._...........
 5d88 0000814e 094e6394 d005fd70 93d01040  ...N.Nc....p...@
 5d98 930e0080 0d4e639c d003b7f0 ff7f93d0  .....Nc.........
 5da8 4041930e f07f114e 6393d003 b7000080  @A.....Nc.......
 5db8 93d04041 930e0080 154e639a d0013700  ..@A.....Nc...7.
 5dc8 0080814e 194e6314 d0016315 c0033705  ...N.Nc...c...7.
 5dd8 01101305 45009305 50041306 20059306  ....E...P... ...
 5de8 f0041307 a0000cc1 10c110c1 14c110c1  ................
 5df8 18c10290 37050110 13054500 9305f004  ....7.....E.....
 5e08 1306b004 9306a000 0cc110c1 14c11301  ................
 5e18 0f008321 c1ff8320 81ff6fa0 4fbc130f  ...!... ..o.O...
 5e28 0100232e 31fe232c 11fe1385 01903706  ..#.1.#,......7.
 5e38 01101306 46008305 05006388 05002320  ....F.....c...# 
 5e48 b6001305 15006ff0 1fff9305 e0022320  ......o.......# 
 5e58 b6002320 b600130e 20009300 0000ef00  ..# .... .......
 5e68 00011300 00001300 00006f00 40041701  ..........o.@...
 5e78 00001301 01ff1301 4100631a 11021301  ........A.c.....
 5e88 1000ef00 40011301 11001301 11001301  ....@...........
 5e98 11001301 11001301 11001301 1100930e  ................
 5ea8 3000130e 30006314 d101631c c0033705  0...0.c...c...7.
 5eb8 01101305 45009305 50041306 20059306  ....E...P... ...
 5ec8 f0041307 a0002320 b5002320 c5002320  ......# ..# ..# 
 5ed8 c5002320 d5002320 c5002320 e5007300  ..# ..# ..# ..s.
 5ee8 10003705 01101305 45009305 f0041306  ..7.....E.......
 5ef8 b0049306 a0002320 b5002320 c5002320  ......# ..# ..# 
 5f08 d5001301 0f008321 c1ff8320 81ff6fa0  .......!... ..o.
 5f18 8fae130f 0100232e 31fe232c 11fe1385  ......#.1.#,....
 5f28 41903706 01101306 46008305 05006386  A.7.....F.....c.
 5f38 05000cc2 05056ff0 5fff9305 e0020cc2  ......o._.......
 5f48 0cc28140 93810000 814e094e 6395d11f  ...@.....N.Nc...
 5f58 85409381 1000894e 0d4e639e d11d8d40  .@.....N.Nc....@
 5f68 93817000 a94e114e 6397d11d 81409381  ..p..N.Nc....@..
 5f78 0080930e 0080154e 639fd11b b7000080  .......Nc.......
 5f88 93810000 b70e0080 194e6396 d11bb700  .........Nc.....
 5f98 00809381 0080b70e 0080938e 0e801d4e  ...............N
 5fa8 639bd119 81409381 f07f930e f07f214e  c....@........!N
 5fb8 6393d119 b7000080 9380f0ff 93810000  c...............
 5fc8 b70e0080 938efeff 254e6396 d117b700  ........%Nc.....
 5fd8 00809380 f0ff9381 f07fb70e 0080938e  ................
 5fe8 ee7f294e 6399d115 b7000080 9381f07f  ..)Nc...........
 5ff8 b70e0080 938efe7f 2d4e639e d113b700  ........-Nc.....
 6008 00809380 f0ff9381 0080b7fe ff7f938e  ................
 6018 fe7f314e 6391d113 81409381 f0ff930e  ..1Nc....@......
 6028 f0ff354e 6399d111 9300f0ff 93811000  ..5Nc...........
 6038 814e394e 6391d111 9300f0ff 9381f0ff  .N9Nc...........
 6048 930ee0ff 3d4e6398 d10fb700 00809380  ....=Nc.........
 6058 f0ff9381 1000b70e 0080414e 639dd10d  ..........ANc...
 6068 b540ad00 e14e454e 6397d00d 0142b540  .@...NENc....B.@
 6078 9381b000 13830100 05028942 e31952fe  ...........B..R.
 6088 e14e494e 6319d30b 0142b540 9381a000  .NINc....B.@....
 6098 01001383 01000502 8942e318 52fedd4e  .........B..R..N
 60a8 4d4e631a d3090142 b5409381 90000100  MNc....B.@......
 60b8 01001383 01000502 8942e317 52fed94e  .........B..R..N
 60c8 514e631a d3070142 b5409381 b0000502  QNc....B.@......
 60d8 8942e31b 52fee14e 554e639e d1050142  .B..R..NUNc....B
 60e8 b5400100 9381a000 05028942 e31a52fe  .@.........B..R.
 60f8 dd4e594e 6391d105 0142b540 01000100  .NYNc....B.@....
 6108 93819000 05028942 e31952fe d94e5d4e  .......B..R..N]N
 6118 6393d103 93000002 930e0002 614e639c  c...........aNc.
 6128 d0019300 10021380 2003814e 654e6314  ........ ..NeNc.
 6138 d0016315 c0033705 01101305 45009305  ..c...7.....E...
 6148 50041306 20059306 f0041307 a0000cc1  P... ...........
 6158 10c110c1 14c110c1 18c10290 37050110  ............7...
 6168 13054500 9305f004 1306b004 9306a000  ..E.............
 6178 0cc110c1 14c11301 0f008321 c1ff8320  ...........!... 
 6188 81ff6fa0 4f8f130f 0100232e 31fe232c  ..o.O.....#.1.#,
 6198 11fe1385 c1903706 01101306 46008305  ......7.....F...
 61a8 05006386 05000cc2 05056ff0 5fff9305  ..c.......o._...
 61b8 e0020cc2 0cc297a0 00009380 e0061301  ................
 61c8 a0fa2380 20008381 0000930e a0fa094e  ..#. ..........N
 61d8 6394d133 97a00000 93800005 0141a380  c..3.........A..
 61e8 20008381 1000814e 0d4e6397 d13197a0   ......N.Nc..1..
 61f8 00009380 600337f1 ffff1301 01fa2381  ....`.7.......#.
 6208 20008391 2000b7fe ffff938e 0efa114e   ... ..........N
 6218 6394d12f 97a00000 93800001 2941a381  c../........)A..
 6228 20008381 3000a94e 154e6397 d12d97a0   ...0..N.Nc..-..
 6238 00009380 d0ff1301 a0faa38e 20fe8381  ............ ...
 6248 d0ff930e a0fa194e 6398d12b 97a00000  .......Nc..+....
 6258 9380f0fd 0141238f 20fe8381 e0ff814e  .....A#. ......N
 6268 1d4e639b d12997a0 00009380 50fc1301  .Nc..)......P...
 6278 00faa38f 20fe8381 f0ff930e 00fa214e  .... .........!N
 6288 639cd127 97a00000 938070fa 29412380  c..'......p.)A#.
 6298 20008381 0000a94e 254e639f d12597a0   ......N%Nc..%..
 62a8 00009380 e0f83751 34121301 81671382  ......7Q4....g..
 62b8 00fe2300 22028381 0000930e 8007294e  ..#.".........)N
 62c8 639cd123 97a00000 938080f6 37310000  c..#........71..
 62d8 13018109 e910a383 200017a2 00001302  ........ .......
 62e8 32f58301 0200930e 80f92d4e 6396d121  2.........-Nc..!
 62f8 314e0142 9300d0fd 17a10000 1301c1f2  1N.B............
 6308 23001100 83010100 930ed0fd 6396d11f  #...........c...
 6318 05028942 e31052fe 354e0142 9300d0fc  ...B..R.5N.B....
 6328 17a10000 130141f0 0100a300 11008301  ......A.........
 6338 1100930e d0fc6391 d11d0502 8942e31f  ......c......B..
 6348 52fc394e 01429300 c0fc17a1 00001301  R.9N.B..........
 6358 a1ed0100 01002301 11008301 2100930e  ......#.....!...
 6368 c0fc639b d1190502 8942e31e 52fc3d4e  ..c......B..R.=N
 6378 01429300 c0fb0100 17a10000 1301c1ea  .B..............
 6388 a3011100 83013100 930ec0fb 6396d117  ......1.....c...
 6398 05028942 e31f52fc 414e0142 9300b0fb  ...B..R.AN.B....
 63a8 010017a1 00001301 21e80100 23021100  ........!...#...
 63b8 83014100 930eb0fb 6390d115 05028942  ..A.....c......B
 63c8 e31e52fc 454e0142 9300b0fa 01000100  ..R.EN.B........
 63d8 17a10000 130141e5 a3021100 83015100  ......A.......Q.
 63e8 930eb0fa 639ad111 05028942 e31e52fc  ....c......B..R.
 63f8 494e0142 17a10000 130101e3 93003003  IN.B..........0.
 6408 23001100 83010100 930e3003 6396d10f  #.........0.c...
 6418 05028942 e31052fe 4d4e0142 17a10000  ...B..R.MN.B....
 6428 130181e0 93003002 0100a300 11008301  ......0.........
 6438 1100930e 30026391 d10d0502 8942e31f  ....0.c......B..
 6448 52fc514e 014217a1 00001301 e1dd9300  R.QN.B..........
 6458 20020100 01002301 11008301 2100930e   .....#.....!...
 6468 2002639b d1090502 8942e31e 52fc554e   .c......B..R.UN
 6478 014217a1 00001301 21db0100 c940a301  .B......!....@..
 6488 11008301 3100c94e 6398d107 05028942  ....1..Nc......B
 6498 e31152fe 594e0142 17a10000 1301c1d8  ..R.YN.B........
 64a8 0100c540 01002302 11008301 4100c54e  ...@..#.....A..N
 64b8 6394d105 05028942 e31052fe 5d4e0142  c......B..R.]N.B
 64c8 17a10000 130141d6 01000100 8540a302  ......A......@..
 64d8 11008301 5100854e 6390d103 05028942  ....Q..Nc......B
 64e8 e31052fe 1305f00e 97a50000 9385c5d3  ..R.............
 64f8 a381a500 6315c003 37050110 13054500  ....c...7.....E.
 6508 93055004 13062005 9306f004 1307a000  ..P... .........
 6518 0cc110c1 10c114c1 10c118c1 02903705  ..............7.
 6528 01101305 45009305 f0041306 b0049306  ....E...........
 6538 a0000cc1 10c114c1 13010f00 8321c1ff  .............!..
 6548 832081ff 6f90bfd1 130f0100 232e31fe  . ..o.......#.1.
 6558 232c11fe 1385c191 37060110 13064600  #,......7.....F.
 6568 83050500 63860500 0cc20505 6ff05fff  ....c.......o._.
 6578 9305e002 0cc20cc2 85409391 0000854e  .........@.....N
 6588 094e6399 d11f8540 93911000 894e0d4e  .Nc....@.....N.N
 6598 6392d11f 85409391 7000930e 0008114e  c....@..p......N
 65a8 639ad11d 85409391 e000916e 154e6393  c....@.....n.Nc.
 65b8 d11d8540 9391f001 b70e0080 194e639b  ...@.........Nc.
 65c8 d11b9300 f0ff9391 0000930e f0ff1d4e  ...............N
 65d8 6392d11b 9300f0ff 93911000 930ee0ff  c...............
 65e8 214e6399 d1199300 f0ff9391 7000930e  !Nc.........p...
 65f8 00f8254e 6390d119 9300f0ff 9391e000  ..%Nc...........
 6608 b7ceffff 294e6397 d1179300 f0ff9391  ....)Nc.........
 6618 f001b70e 00802d4e 639ed115 b7202121  ......-Nc.... !!
 6628 93801012 93910000 b72e2121 938e1e12  ..........!!....
 6638 314e6391 d115b720 21219380 10129391  1Nc.... !!......
 6648 1000b74e 4242938e 2e24354e 6394d113  ...NBB...$5Nc...
 6658 b7202121 93801012 93917000 b79e9090  . !!......p.....
 6668 938e0e08 394e6397 d111b720 21219380  ....9Nc.... !!..
 6678 10129391 e000b74e 48483d4e 639cd10f  .......NHH=Nc...
 6688 b7202121 93801012 9391f001 b70e0080  . !!............
 6698 414e6391 d10f8540 9e00930e 0008454e  ANc....@......EN
 66a8 639ad00d 01428540 93917000 13830100  c....B.@..p.....
 66b8 05028942 e31952fe 930e0008 494e631b  ...B..R.....INc.
 66c8 d30b0142 85409391 e0000100 13830100  ...B.@..........
 66d8 05028942 e31852fe 916e4d4e 631cd309  ...B..R..nMNc...
 66e8 01428540 9391f001 01000100 13830100  .B.@............
 66f8 05028942 e31752fe b70e0080 514e631b  ...B..R.....QNc.
 6708 d3070142 85409391 70000502 8942e31b  ...B.@..p....B..
 6718 52fe930e 0008554e 639ed105 01428540  R.....UNc....B.@
 6728 01009391 e0000502 8942e31a 52fe916e  .........B..R..n
 6738 594e6391 d1050142 85400100 01009391  YNc....B.@......
 6748 f0010502 8942e319 52feb70e 00805d4e  .....B..R.....]N
 6758 6392d103 9310f001 814e614e 639cd001  c........NaNc...
 6768 93001002 13904001 814e654e 6314d001  ......@..NeNc...
 6778 6315c003 37050110 13054500 93055004  c...7.....E...P.
 6788 13062005 9306f004 1307a000 0cc110c1  .. .............
 6798 10c114c1 10c118c1 02903705 01101305  ..........7.....
 67a8 45009305 f0041306 b0049306 a0000cc1  E...............
 67b8 10c114c1 13010f00 8321c1ff 832081ff  .........!... ..
 67c8 6f90ffad 130f0100 232e31fe 232c11fe  o.......#.1.#,..
 67d8 13854192 37060110 13064600 83050500  ..A.7.....F.....
 67e8 63860500 0cc20505 6ff05fff 9305e002  c.......o._.....
 67f8 0cc20cc2 094e8140 05416396 20006317  .....N.@.Ac. .c.
 6808 c01d6316 c001e39e 20fe6311 c01d0d4e  ..c..... .c....N
 6818 85400141 63962000 631ac01b 6316c001  .@.Ac. .c...c...
 6828 e39e20fe 6314c01b 114efd50 05416396  .. .c....N.P.Ac.
 6838 2000631d c0196316 c001e39e 20fe6317   .c...c..... .c.
 6848 c019154e 85407d51 63962000 6310c019  ...N.@}Qc. .c...
 6858 6316c001 e39e20fe 631ac017 194e8140  c..... .c....N.@
 6868 01416394 20006314 c0016311 c017e39e  .Ac. .c...c.....
 6878 20fe1d4e 85400541 63942000 6314c001   ..N.@.Ac. .c...
 6888 6316c015 e39e20fe 214efd50 7d516394  c..... .!N.P}Qc.
 6898 20006314 c001631b c013e39e 20fe254e   .c...c..... .%N
 68a8 01428140 01416393 20120502 8942e31a  .B.@.Ac. ....B..
 68b8 52fe294e 01428140 01410100 63982010  R.)N.B.@.A..c. .
 68c8 05028942 e31952fe 2d4e0142 81400141  ...B..R.-N.B.@.A
 68d8 01000100 639c200e 05028942 e31852fe  ....c. ....B..R.
 68e8 314e0142 81400100 01416391 200e0502  1N.B.@...Ac. ...
 68f8 8942e319 52fe354e 01428140 01000141  .B..R.5N.B.@...A
 6908 01006395 200c0502 8942e318 52fe394e  ..c. ....B..R.9N
 6918 01428140 01000100 01416399 200a0502  .B.@.....Ac. ...
 6928 8942e318 52fe3d4e 01428140 0141639f  .B..R.=N.B.@.Ac.
 6938 20080502 8942e31a 52fe414e 01428140   ....B..R.AN.B.@
 6948 01410100 63942008 05028942 e31952fe  .A..c. ....B..R.
 6958 454e0142 81400141 01000100 63982006  EN.B.@.A....c. .
 6968 05028942 e31852fe 494e0142 81400100  ...B..R.IN.B.@..
 6978 0141639d 20040502 8942e319 52fe4d4e  .Ac. ....B..R.MN
 6988 01428140 01000141 01006391 20040502  .B.@...A..c. ...
 6998 8942e318 52fe514e 01428140 01000100  .B..R.QN.B.@....
 69a8 01416395 20020502 8942e318 52fe8540  .Ac. ....B..R..@
 69b8 63960000 85008500 85008500 85008500  c...............
 69c8 8d4e554e 6394d001 6315c003 37050110  .NUNc...c...7...
 69d8 13054500 93055004 13062005 9306f004  ..E...P... .....
 69e8 1307a000 0cc110c1 10c114c1 10c118c1  ................
 69f8 02903705 01101305 45009305 f0041306  ..7.....E.......
 6a08 b0049306 a0000cc1 10c114c1 13010f00  ................
 6a18 8321c1ff 832081ff 6f906fff 130f0100  .!... ..o.o.....
 6a28 232e31fe 232c11fe 13858192 37060110  #.1.#,......7...
 6a38 13064600 83050500 63860500 0cc20505  ..F.....c.......
 6a48 6ff05fff 9305e002 0cc20cc2 094e11a0  o._..........N..
 6a58 39a88540 29a08500 85008500 85008500  9..@)...........
 6a68 85008d4e 0d4e6394 d0016315 c0033705  ...N.Nc...c...7.
 6a78 01101305 45009305 50041306 20059306  ....E...P... ...
 6a88 f0041307 a0000cc1 10c110c1 14c110c1  ................
 6a98 18c10290 37050110 13054500 9305f004  ....7.....E.....
 6aa8 1306b004 9306a000 0cc110c1 14c11301  ................
 6ab8 0f008321 c1ff8320 81ff6f90 4ff3130f  ...!... ..o.O...
 6ac8 0100232e 31fe232c 11fe1385 c1923706  ..#.1.#,......7.
 6ad8 01101306 46008305 05006386 05000cc2  ....F.....c.....
 6ae8 05056ff0 5fff9305 e0020cc2 0cc28140  ..o._..........@
 6af8 93a10000 814e094e 639fd11b 854093a1  .....N.Nc....@..
 6b08 1000814e 0d4e6398 d11b8d40 93a17000  ...N.Nc....@..p.
 6b18 854e114e 6391d11b 9d4093a1 3000814e  .N.Nc....@..0..N
 6b28 154e639a d1198140 93a10080 814e194e  .Nc....@.....N.N
 6b38 6393d119 b7000080 93a10000 854e1d4e  c............N.N
 6b48 639bd117 b7000080 93a10080 854e214e  c............N!N
 6b58 6393d117 814093a1 f07f854e 254e639c  c....@.....N%Nc.
 6b68 d115b700 00809380 f0ff93a1 0000814e  ...............N
 6b78 294e6392 d115b700 00809380 f0ff93a1  )Nc.............
 6b88 f07f814e 2d4e6398 d113b700 008093a1  ...N-Nc.........
 6b98 f07f854e 314e6390 d113b700 00809380  ...N1Nc.........
 6ba8 f0ff93a1 0080814e 354e6396 d1118140  .......N5Nc....@
 6bb8 93a1f0ff 814e394e 639fd10f 9300f0ff  .....N9Nc.......
 6bc8 93a11000 854e3d4e 6397d10f 9300f0ff  .....N=Nc.......
 6bd8 93a1f0ff 814e414e 639fd10d ad4093b0  .....NANc....@..
 6be8 d000854e 454e6398 d00d0142 bd4093a1  ...NENc....B.@..
 6bf8 a0001383 01000502 8942e319 52fe814e  .........B..R..N
 6c08 494e631a d30b0142 a94093a1 00010100  INc....B.@......
 6c18 13830100 05028942 e31852fe 854e4d4e  .......B..R..NMN
 6c28 631bd309 0142c140 93a19000 01000100  c....B.@........
 6c38 13830100 05028942 e31752fe 814e514e  .......B..R..NQN
 6c48 631bd307 0142ad40 93a1f000 05028942  c....B.@.......B
 6c58 e31b52fe 854e554e 639fd105 0142c540  ..R..NUNc....B.@
 6c68 010093a1 80000502 8942e31a 52fe814e  .........B..R..N
 6c78 594e6392 d1050142 b1400100 010093a1  YNc....B.@......
 6c88 e0000502 8942e319 52fe854e 5d4e6394  .....B..R..N]Nc.
 6c98 d1039320 f0ff814e 614e639e d001b700  ... ...NaNc.....
 6ca8 ff009380 f00f13a0 f0ff814e 654e6314  ...........NeNc.
 6cb8 d0016315 c0033705 01101305 45009305  ..c...7.....E...
 6cc8 50041306 20059306 f0041307 a0000cc1  P... ...........
 6cd8 10c110c1 14c110c1 18c10290 37050110  ............7...
 6ce8 13054500 9305f004 1306b004 9306a000  ..E.............
 6cf8 0cc110c1 14c11301 0f008321 c1ff8320  ...........!... 
 6d08 81ff6f90 cfd7130f 0100232e 31fe232c  ..o.......#.1.#,
 6d18 11fe1385 41933706 01101306 46008305  ....A.7.....F...
 6d28 05006386 05000cc2 05056ff0 5fff9305  ..c.......o._...
 6d38 e0020cc2 0cc28140 0141b3b1 2002814e  .......@.A.. ..N
 6d48 094e639b d13d8540 0541b3b1 2002814e  .Nc..=.@.A.. ..N
 6d58 0d4e6393 d13d8d40 1d41b3b1 2002814e  .Nc..=.@.A.. ..N
 6d68 114e639b d13b8140 3781ffff b3b12002  .Nc..;.@7..... .
 6d78 814e154e 6392d13b b7000080 0141b3b1  .N.Nc..;.....A..
 6d88 2002814e 194e6399 d139b700 00803781   ..N.Nc..9....7.
 6d98 ffffb3b1 2002b7ce ff7f1d4e 639ed137  .... ......Nc..7
 6da8 b7b0aaaa 9380b0aa 37010300 1301d1e7  ........7.......
 6db8 b3b12002 b70e0200 938eeeef 794e639d  .. .........yNc.
 6dc8 d135b700 03009380 d0e737b1 aaaa1301  .5........7.....
 6dd8 b1aab3b1 2002b70e 0200938e eeef7d4e  .... .........}N
 6de8 639cd133 b70000ff 370100ff b3b12002  c..3....7..... .
 6df8 b70e01fe 130e0002 6390d133 9300f0ff  ........c..3....
 6e08 1301f0ff b3b12002 930ee0ff 130e1002  ...... .........
 6e18 6394d131 9300f0ff 0541b3b1 2002814e  c..1.....A.. ..N
 6e28 130e2002 639ad12f 85401301 f0ffb3b1  .. .c../.@......
 6e38 2002814e 130e3002 6390d12f b700d000   ..N..0.c../....
 6e48 3701b000 b3b02002 b79e0000 938e0ef0  7..... .........
 6e58 214e6393 d02db700 e0003701 b00033b1  !Nc..-....7...3.
 6e68 2002b7ae 0000938e 0ea0254e 6316d12b   .........%Nc..+
 6e78 b700d000 b3b01002 b7be0000 938e0e90  ................
 6e88 294e639b d0290142 b700d000 3701b000  )Nc..).B....7...
 6e98 b3b12002 13830100 05028942 e31652fe  .. ........B..R.
 6ea8 b79e0000 938e0ef0 2d4e6317 d3270142  ........-Nc..'.B
 6eb8 b700e000 3701b000 b3b12002 01001383  ....7..... .....
 6ec8 01000502 8942e315 52feb7ae 0000938e  .....B..R.......
 6ed8 0ea0314e 6312d325 0142b700 f0003701  ..1Nc..%.B....7.
 6ee8 b000b3b1 20020100 01001383 01000502  .... ...........
 6ef8 8942e314 52feb7ae 0000938e 0e50354e  .B..R........P5N
 6f08 631cd321 0142b700 d0003701 b000b3b1  c..!.B....7.....
 6f18 20020502 8942e318 52feb79e 0000938e   ....B..R.......
 6f28 0ef0394e 639ad11f 0142b700 e0003701  ..9Nc....B....7.
 6f38 b0000100 b3b12002 05028942 e31752fe  ...... ....B..R.
 6f48 b7ae0000 938e0ea0 3d4e6397 d11d0142  ........=Nc....B
 6f58 b700f000 3701b000 01000100 b3b12002  ....7......... .
 6f68 05028942 e31652fe b7ae0000 938e0e50  ...B..R........P
 6f78 414e6393 d11b0142 b700d000 01003701  ANc....B......7.
 6f88 b000b3b1 20020502 8942e317 52feb79e  .... ....B..R...
 6f98 0000938e 0ef0454e 6390d119 0142b700  ......ENc....B..
 6fa8 e0000100 3701b000 0100b3b1 20020502  ....7....... ...
 6fb8 8942e316 52feb7ae 0000938e 0ea0494e  .B..R.........IN
 6fc8 639cd115 0142b700 f0000100 01003701  c....B........7.
 6fd8 b000b3b1 20020502 8942e316 52feb7ae  .... ....B..R...
 6fe8 0000938e 0e504d4e 6398d113 01423701  .....PMNc....B7.
 6ff8 b000b700 d000b3b1 20020502 8942e318  ........ ....B..
 7008 52feb79e 0000938e 0ef0514e 6396d111  R.........QNc...
 7018 01423701 b000b700 e0000100 b3b12002  .B7........... .
 7028 05028942 e31752fe b7ae0000 938e0ea0  ...B..R.........
 7038 554e6393 d10f0142 3701b000 b700f000  UNc....B7.......
 7048 01000100 b3b12002 05028942 e31652fe  ...... ....B..R.
 7058 b7ae0000 938e0e50 594e639f d10b0142  .......PYNc....B
 7068 3701b000 0100b700 d000b3b1 20020502  7........... ...
 7078 8942e317 52feb79e 0000938e 0ef05d4e  .B..R.........]N
 7088 639cd109 01423701 b0000100 b700e000  c....B7.........
 7098 0100b3b1 20020502 8942e316 52feb7ae  .... ....B..R...
 70a8 0000938e 0ea0614e 6398d107 01423701  ......aNc....B7.
 70b8 b0000100 0100b700 f000b3b1 20020502  ............ ...
 70c8 8942e316 52feb7ae 0000938e 0e50654e  .B..R........PeN
 70d8 6394d105 b700007c 33311002 814e694e  c......|31...NiN
 70e8 631cd103 b7000080 33b10002 814e6d4e  c.......3....NmN
 70f8 6314d103 b3300002 814e714e 639ed001  c....0...NqNc...
 7108 b7001002 37012002 33b02002 814e754e  ....7. .3. ..NuN
 7118 6314d001 6315c003 37050110 13054500  c...c...7.....E.
 7128 93055004 13062005 9306f004 1307a000  ..P... .........
 7138 0cc110c1 10c114c1 10c118c1 02903705  ..............7.
 7148 01101305 45009305 f0041306 b0049306  ....E...........
 7158 a0000cc1 10c114c1 13010f00 8321c1ff  .............!..
 7168 832081ff 6f90cf9c 130f0100 232e31fe  . ..o.......#.1.
 7178 232c11fe 1385c193 37060110 13064600  #,......7.....F.
 7188 83050500 63860500 0cc20505 6ff05fff  ....c.......o._.
 7198 9305e002 0cc20cc2 d1401941 b3c12002  .........@.A.. .
 71a8 8d4e094e 6399d109 b1501941 b3c12002  .N.Nc....P.A.. .
 71b8 f55e0d4e 6391d109 d1406951 b3c12002  .^.Nc....@iQ.. .
 71c8 f55e114e 6399d107 b1506951 b3c12002  .^.Nc....PiQ.. .
 71d8 8d4e154e 6391d107 b7000080 0541b3c1  .N.Nc........A..
 71e8 2002b70e 0080194e 6397d105 b7000080   ......Nc.......
 71f8 7d51b3c1 2002b70e 00801d4e 639dd103  }Q.. ......Nc...
 7208 b7000080 0141b3c1 2002fd5e 214e6394  .....A.. ..^!Nc.
 7218 d1038540 0141b3c1 2002fd5e 254e639c  ...@.A.. ..^%Nc.
 7228 d1018140 0141b3c1 2002fd5e 294e6394  ...@.A.. ..^)Nc.
 7238 d1016315 c0033705 01101305 45009305  ..c...7.....E...
 7248 50041306 20059306 f0041307 a0000cc1  P... ...........
 7258 10c110c1 14c110c1 18c10290 37050110  ............7...
 7268 13054500 9305f004 1306b004 9306a000  ..E.............
 7278 0cc110c1 14c11301 0f008321 c1ff8320  ...........!... 
 7288 81ff6f90 ef8b130f 0100232e 31fe232c  ..o.......#.1.#,
 7298 11fe1385 01943706 01101306 46008305  ......7.....F...
 72a8 05006386 05000cc2 05056ff0 5fff9305  ..c.......o._...
 72b8 e0020cc2 0cc2d140 1941b3d1 20028d4e  .......@.A.. ..N
 72c8 094e639b d109b150 1941b3d1 2002b7be  .Nc....P.A.. ...
 72d8 aa2a938e 7eaa0d4e 6390d109 d1406951  .*..~..Nc....@iQ
 72e8 b3d12002 814e114e 6398d107 b1506951  .. ..N.Nc....PiQ
 72f8 b3d12002 814e154e 6390d107 b7000080  .. ..N.Nc.......
 7308 0541b3d1 2002b70e 0080194e 6396d105  .A.. ......Nc...
 7318 b7000080 7d51b3d1 2002814e 1d4e639d  ....}Q.. ..N.Nc.
 7328 d103b700 00800141 b3d12002 fd5e214e  .......A.. ..^!N
 7338 6394d103 85400141 b3d12002 fd5e254e  c....@.A.. ..^%N
 7348 639cd101 81400141 b3d12002 fd5e294e  c....@.A.. ..^)N
 7358 6394d101 6315c003 37050110 13054500  c...c...7.....E.
 7368 93055004 13062005 9306f004 1307a000  ..P... .........
 7378 0cc110c1 10c114c1 10c118c1 02903705  ..............7.
 7388 01101305 45009305 f0041306 b0049306  ....E...........
 7398 a0000cc1 10c114c1 13010f00 8321c1ff  .............!..
 73a8 832081ff 6f805ffa 130f0100 232e31fe  . ..o._.....#.1.
 73b8 232c11fe 13858194 37060110 13064600  #,......7.....F.
 73c8 83050500 63860500 0cc20505 6ff05fff  ....c.......o._.
 73d8 9305e002 0cc20cc2 d1401941 b3f12002  .........@.A.. .
 73e8 894e094e 6399d109 b1501941 b3f12002  .N.Nc....P.A.. .
 73f8 894e0d4e 6391d109 d1406951 b3f12002  .N.Nc....@iQ.. .
 7408 d14e114e 6399d107 b1506951 b3f12002  .N.Nc....PiQ.. .
 7418 b15e154e 6391d107 b7000080 0541b3f1  .^.Nc........A..
 7428 2002814e 194e6398 d105b700 00807d51   ..N.Nc.......}Q
 7438 b3f12002 b70e0080 1d4e639e d103b700  .. ......Nc.....
 7448 00800141 b3f12002 b70e0080 214e6394  ...A.. .....!Nc.
 7458 d1038540 0141b3f1 2002854e 254e639c  ...@.A.. ..N%Nc.
 7468 d1018140 0141b3f1 2002814e 294e6394  ...@.A.. ..N)Nc.
 7478 d1016315 c0033705 01101305 45009305  ..c...7.....E...
 7488 50041306 20059306 f0041307 a0000cc1  P... ...........
 7498 10c110c1 14c110c1 18c10290 37050110  ............7...
 74a8 13054500 9305f004 1306b004 9306a000  ..E.............
 74b8 0cc110c1 14c11301 0f008321 c1ff8320  ...........!... 
 74c8 81ff6f80 7fe9130f 0100232e 31fe232c  ..o.......#.1.#,
 74d8 11fe1385 01953706 01101306 46008305  ......7.....F...
 74e8 05006386 05000cc2 05056ff0 5fff9305  ..c.......o._...
 74f8 e0020cc2 0cc28140 0141b391 2002814e  .......@.A.. ..N
 7508 094e6399 d13d8540 0541b391 2002814e  .Nc..=.@.A.. ..N
 7518 0d4e6391 d13d8d40 1d41b391 2002814e  .Nc..=.@.A.. ..N
 7528 114e6399 d13b8140 3781ffff b3912002  .Nc..;.@7..... .
 7538 814e154e 6390d13b b7000080 0141b391  .N.Nc..;.....A..
 7548 2002814e 194e6397 d139b700 00800141   ..N.Nc..9.....A
 7558 b3912002 814e1d4e 639ed137 b7b0aaaa  .. ..N.Nc..7....
 7568 9380b0aa 37010300 1301d1e7 b3912002  ....7......... .
 7578 b70effff 938e1e08 794e639d d135b700  ........yNc..5..
 7588 03009380 d0e737b1 aaaa1301 b1aab391  ......7.........
 7598 2002b70e ffff938e 1e087d4e 639cd133   .........}Nc..3
 75a8 b70000ff 370100ff b3912002 c16e130e  ....7..... ..n..
 75b8 00026391 d1339300 f0ff1301 f0ffb391  ..c..3..........
 75c8 2002814e 130e1002 6396d131 9300f0ff   ..N....c..1....
 75d8 0541b391 2002930e f0ff130e 2002639b  .A.. ....... .c.
 75e8 d12f8540 1301f0ff b3912002 930ef0ff  ./.@...... .....
 75f8 130e3002 6390d12f b700d000 3701b000  ..0.c../....7...
 7608 b3902002 b79e0000 938e0ef0 214e6393  .. .........!Nc.
 7618 d02db700 e0003701 b0003391 2002b7ae  .-....7...3. ...
 7628 0000938e 0ea0254e 6316d12b b700d000  ......%Nc..+....
 7638 b3901002 b7be0000 938e0e90 294e639b  ............)Nc.
 7648 d0290142 b700d000 3701b000 b3912002  .).B....7..... .
 7658 13830100 05028942 e31652fe b79e0000  .......B..R.....
 7668 938e0ef0 2d4e6317 d3270142 b700e000  ....-Nc..'.B....
 7678 3701b000 b3912002 01001383 01000502  7..... .........
 7688 8942e315 52feb7ae 0000938e 0ea0314e  .B..R.........1N
 7698 6312d325 0142b700 f0003701 b000b391  c..%.B....7.....
 76a8 20020100 01001383 01000502 8942e314   ............B..
 76b8 52feb7ae 0000938e 0e50354e 631cd321  R........P5Nc..!
 76c8 0142b700 d0003701 b000b391 20020502  .B....7..... ...
 76d8 8942e318 52feb79e 0000938e 0ef0394e  .B..R.........9N
 76e8 639ad11f 0142b700 e0003701 b0000100  c....B....7.....
 76f8 b3912002 05028942 e31752fe b7ae0000  .. ....B..R.....
 7708 938e0ea0 3d4e6397 d11d0142 b700f000  ....=Nc....B....
 7718 3701b000 01000100 b3912002 05028942  7......... ....B
 7728 e31652fe b7ae0000 938e0e50 414e6393  ..R........PANc.
 7738 d11b0142 b700d000 01003701 b000b391  ...B......7.....
 7748 20020502 8942e317 52feb79e 0000938e   ....B..R.......
 7758 0ef0454e 6390d119 0142b700 e0000100  ..ENc....B......
 7768 3701b000 0100b391 20020502 8942e316  7....... ....B..
 7778 52feb7ae 0000938e 0ea0494e 639cd115  R.........INc...
 7788 0142b700 f0000100 01003701 b000b391  .B........7.....
 7798 20020502 8942e316 52feb7ae 0000938e   ....B..R.......
 77a8 0e504d4e 6398d113 01423701 b000b700  .PMNc....B7.....
 77b8 d000b391 20020502 8942e318 52feb79e  .... ....B..R...
 77c8 0000938e 0ef0514e 6396d111 01423701  ......QNc....B7.
 77d8 b000b700 e0000100 b3912002 05028942  .......... ....B
 77e8 e31752fe b7ae0000 938e0ea0 554e6393  ..R.........UNc.
 77f8 d10f0142 3701b000 b700f000 01000100  ...B7...........
 7808 b3912002 05028942 e31652fe b7ae0000  .. ....B..R.....
 7818 938e0e50 594e639f d10b0142 3701b000  ...PYNc....B7...
 7828 0100b700 d000b391 20020502 8942e317  ........ ....B..
 7838 52feb79e 0000938e 0ef05d4e 639cd109  R.........]Nc...
 7848 01423701 b0000100 b700e000 0100b391  .B7.............
 7858 20020502 8942e316 52feb7ae 0000938e   ....B..R.......
 7868 0ea0614e 6398d107 01423701 b0000100  ..aNc....B7.....
 7878 0100b700 f000b391 20020502 8942e316  ........ ....B..
 7888 52feb7ae 0000938e 0e50654e 6394d105  R........PeNc...
 7898 b700007c 33111002 814e694e 631cd103  ...|3....NiNc...
 78a8 b7000080 33910002 814e6d4e 6314d103  ....3....NmNc...
 78b8 b3100002 814e714e 639ed001 b7001002  .....NqNc.......
 78c8 37012002 33902002 814e754e 6314d001  7. .3. ..NuNc...
 78d8 6315c003 37050110 13054500 93055004  c...7.....E...P.
 78e8 13062005 9306f004 1307a000 0cc110c1  .. .............
 78f8 10c114c1 10c118c1 02903705 01101305  ..........7.....
 7908 45009305 f0041306 b0049306 a0000cc1  E...............
 7918 10c114c1 13010f00 8321c1ff 832081ff  .........!... ..
 7928 6f801fa0 130f0100 232e31fe 232c11fe  o.......#.1.#,..
 7938 13858195 37060110 13064600 83050500  ....7.....F.....
 7948 63860500 0cc20505 6ff05fff 9305e002  c.......o._.....
 7958 0cc20cc2 b7800000 938000e0 3771dbb6  ............7q..
 7968 130171db b3812002 b71e0000 938e0e20  ..q... ........ 
 7978 130e0002 639cd137 b7800000 938000fc  ....c..7........
 7988 3771dbb6 130171db b3812002 b71e0000  7q....q... .....
 7998 938e0e24 130e1002 639ad135 81400141  ...$....c..5.@.A
 79a8 b3812002 814e094e 6392d135 85400541  .. ..N.Nc..5.@.A
 79b8 b3812002 854e0d4e 639ad133 8d401d41  .. ..N.Nc..3.@.A
 79c8 b3812002 d54e114e 6392d133 81403781  .. ..N.Nc..3.@7.
 79d8 ffffb381 2002814e 154e6399 d131b700  .... ..N.Nc..1..
 79e8 00800141 b3812002 814e194e 6390d131  ...A.. ..N.Nc..1
 79f8 b7000080 3781ffff b3812002 814e1d4e  ....7..... ..N.N
 7a08 6396d12f b7b0aaaa 9380b0aa 37010300  c../........7...
 7a18 1301d1e7 b3812002 b70e0100 938efef7  ...... .........
 7a28 794e6395 d12db700 03009380 d0e737b1  yNc..-........7.
 7a38 aaaa1301 b1aab381 2002b70e 0100938e  ........ .......
 7a48 fef77d4e 6394d12b b70000ff 370100ff  ..}Nc..+....7...
 7a58 b3812002 814e130e 20026399 d1299300  .. ..N.. .c..)..
 7a68 f0ff1301 f0ffb381 2002854e 130e3002  ........ ..N..0.
 7a78 639ed127 9300f0ff 0541b381 2002930e  c..'.....A.. ...
 7a88 f0ff130e 40026393 d1278540 1301f0ff  ....@.c..'.@....
 7a98 b3812002 930ef0ff 130e5002 6398d125  .. .......P.c..%
 7aa8 b5402d41 b3802002 930ef008 214e639f  .@-A.. .....!Nc.
 7ab8 d023b940 2d413381 2002930e a009254e  .#.@-A3. .....%N
 7ac8 6316d123 b540b380 1002930e 900a294e  c..#.@........)N
 7ad8 639ed021 0142b540 2d41b381 20021383  c..!.B.@-A.. ...
 7ae8 01000502 8942e318 52fe930e f0082d4e  .....B..R.....-N
 7af8 631ed31f 0142b940 2d41b381 20020100  c....B.@-A.. ...
 7b08 13830100 05028942 e31752fe 930ea009  .......B..R.....
 7b18 314e631d d31d0142 bd402d41 b3812002  1Nc....B.@-A.. .
 7b28 01000100 13830100 05028942 e31652fe  ...........B..R.
 7b38 930e500a 354e631b d31b0142 b5402d41  ..P.5Nc....B.@-A
 7b48 b3812002 05028942 e31a52fe 930ef008  .. ....B..R.....
 7b58 394e639d d1190142 b9402d41 0100b381  9Nc....B.@-A....
 7b68 20020502 8942e319 52fe930e a0093d4e   ....B..R.....=N
 7b78 639ed117 0142bd40 2d410100 0100b381  c....B.@-A......
 7b88 20020502 8942e318 52fe930e 500a414e   ....B..R...P.AN
 7b98 639ed115 0142b540 01002d41 b3812002  c....B.@..-A.. .
 7ba8 05028942 e31952fe 930ef008 454e639f  ...B..R.....ENc.
 7bb8 d1130142 b9400100 2d410100 b3812002  ...B.@..-A.... .
 7bc8 05028942 e31852fe 930ea009 494e639f  ...B..R.....INc.
 7bd8 d1110142 bd400100 01002d41 b3812002  ...B.@....-A.. .
 7be8 05028942 e31852fe 930e500a 4d4e639f  ...B..R...P.MNc.
 7bf8 d10f0142 2d41b540 b3812002 05028942  ...B-A.@.. ....B
 7c08 e31a52fe 930ef008 514e6391 d10f0142  ..R.....QNc....B
 7c18 2d41b940 0100b381 20020502 8942e319  -A.@.... ....B..
 7c28 52fe930e a009554e 6392d10d 01422d41  R.....UNc....B-A
 7c38 bd400100 0100b381 20020502 8942e318  .@...... ....B..
 7c48 52fe930e 500a594e 6392d10b 01422d41  R...P.YNc....B-A
 7c58 0100b540 b3812002 05028942 e31952fe  ...@.. ....B..R.
 7c68 930ef008 5d4e6393 d1090142 2d410100  ....]Nc....B-A..
 7c78 b9400100 b3812002 05028942 e31852fe  .@.... ....B..R.
 7c88 930ea009 614e6393 d1070142 2d410100  ....aNc....B-A..
 7c98 0100bd40 b3812002 05028942 e31852fe  ...@.. ....B..R.
 7ca8 930e500a 654e6393 d105fd40 33011002  ..P.eNc....@3...
 7cb8 814e694e 631cd103 93000002 33810002  .NiNc.......3...
 7cc8 814e6d4e 6314d103 b3000002 814e714e  .NmNc........NqN
 7cd8 639ed001 93001002 13012002 33802002  c......... .3. .
 7ce8 814e754e 6314d001 6315c003 37050110  .NuNc...c...7...
 7cf8 13054500 93055004 13062005 9306f004  ..E...P... .....
 7d08 1307a000 0cc110c1 10c114c1 10c118c1  ................
 7d18 02903705 01101305 45009305 f0041306  ..7.....E.......
 7d28 b0049306 a0000cc1 10c114c1 13010f00  ................
 7d38 8321c1ff 832081ff 6f800fe0 130f0100  .!... ..o.......
 7d48 232e31fe 232c11fe 1385c195 37060110  #.1.#,......7...
 7d58 13064600 83050500 63860500 0cc20505  ..F.....c.......
 7d68 6ff05fff 9305e002 0cc20cc2 d1401941  o._..........@.A
 7d78 b3e12002 894e094e 6398d109 b1501941  .. ..N.Nc....P.A
 7d88 b3e12002 f95e0d4e 6390d109 d1406951  .. ..^.Nc....@iQ
 7d98 b3e12002 894e114e 6398d107 b1506951  .. ..N.Nc....PiQ
 7da8 b3e12002 f95e154e 6390d107 b7000080  .. ..^.Nc.......
 7db8 0541b3e1 2002814e 194e6397 d105b700  .A.. ..N.Nc.....
 7dc8 00807d51 b3e12002 814e1d4e 639ed103  ..}Q.. ..N.Nc...
 7dd8 b7000080 0141b3e1 2002b70e 0080214e  .....A.. .....!N
 7de8 6394d103 85400141 b3e12002 854e254e  c....@.A.. ..N%N
 7df8 639cd101 81400141 b3e12002 814e294e  c....@.A.. ..N)N
 7e08 6394d101 6315c003 37050110 13054500  c...c...7.....E.
 7e18 93055004 13062005 9306f004 1307a000  ..P... .........
 7e28 0cc110c1 10c114c1 10c118c1 02903705  ..............7.
 7e38 01101305 45009305 f0041306 b0049306  ....E...........
 7e48 a0000cc1 10c114c1 13010f00 8321c1ff  .............!..
 7e58 832081ff 6f80cfcf 130f0100 232e31fe  . ..o.......#.1.
 7e68 232c11fe 13850196 37060110 13064600  #,......7.....F.
 7e78 83050500 63860500 0cc20505 6ff05fff  ....c.......o._.
 7e88 9305e002 0cc20cc2 81400141 b3a12002  .........@.A.. .
 7e98 814e094e 639cd13d 85400541 b3a12002  .N.Nc..=.@.A.. .
 7ea8 814e0d4e 6394d13d 8d401d41 b3a12002  .N.Nc..=.@.A.. .
 7eb8 814e114e 639cd13b 81403781 ffffb3a1  .N.Nc..;.@7.....
 7ec8 2002814e 154e6393 d13bb700 00800141   ..N.Nc..;.....A
 7ed8 b3a12002 814e194e 639ad139 b7000080  .. ..N.Nc..9....
 7ee8 3781ffff b3a12002 b74e0080 1d4e639f  7..... ..N...Nc.
 7ef8 d137b7b0 aaaa9380 b0aa3701 03001301  .7........7.....
 7f08 d1e7b3a1 2002b70e ffff938e 1e08794e  .... .........yN
 7f18 639ed135 b7000300 9380d0e7 37b1aaaa  c..5........7...
 7f28 1301b1aa b3a12002 b70e0200 938eeeef  ...... .........
 7f38 7d4e639d d133b700 00ff3701 00ffb3a1  }Nc..3....7.....
 7f48 2002b70e 01ff130e 00026391 d1339300   .........c..3..
 7f58 f0ff1301 f0ffb3a1 2002930e f0ff130e  ........ .......
 7f68 10026395 d1319300 f0ff0541 b3a12002  ..c..1.....A.. .
 7f78 930ef0ff 130e2002 639ad12f 85401301  ...... .c../.@..
 7f88 f0ffb3a1 2002814e 130e3002 6390d12f  .... ..N..0.c../
 7f98 b700d000 3701b000 b3a02002 b79e0000  ....7..... .....
 7fa8 938e0ef0 214e6393 d02db700 e0003701  ....!Nc..-....7.
 7fb8 b00033a1 2002b7ae 0000938e 0ea0254e  ..3. .........%N
 7fc8 6316d12b b700d000 b3a01002 b7be0000  c..+............
 7fd8 938e0e90 294e639b d0290142 b700d000  ....)Nc..).B....
 7fe8 3701b000 b3a12002 13830100 05028942  7..... ........B
 7ff8 e31652fe b79e0000 938e0ef0 2d4e6317  ..R.........-Nc.
 8008 d3270142 b700e000 3701b000 b3a12002  .'.B....7..... .
 8018 01001383 01000502 8942e315 52feb7ae  .........B..R...
 8028 0000938e 0ea0314e 6312d325 0142b700  ......1Nc..%.B..
 8038 f0003701 b000b3a1 20020100 01001383  ..7..... .......
 8048 01000502 8942e314 52feb7ae 0000938e  .....B..R.......
 8058 0e50354e 631cd321 0142b700 d0003701  .P5Nc..!.B....7.
 8068 b000b3a1 20020502 8942e318 52feb79e  .... ....B..R...
 8078 0000938e 0ef0394e 639ad11f 0142b700  ......9Nc....B..
 8088 e0003701 b0000100 b3a12002 05028942  ..7....... ....B
 8098 e31752fe b7ae0000 938e0ea0 3d4e6397  ..R.........=Nc.
 80a8 d11d0142 b700f000 3701b000 01000100  ...B....7.......
 80b8 b3a12002 05028942 e31652fe b7ae0000  .. ....B..R.....
 80c8 938e0e50 414e6393 d11b0142 b700d000  ...PANc....B....
 80d8 01003701 b000b3a1 20020502 8942e317  ..7..... ....B..
 80e8 52feb79e 0000938e 0ef0454e 6390d119  R.........ENc...
 80f8 0142b700 e0000100 3701b000 0100b3a1  .B......7.......
 8108 20020502 8942e316 52feb7ae 0000938e   ....B..R.......
 8118 0ea0494e 639cd115 0142b700 f0000100  ..INc....B......
 8128 01003701 b000b3a1 20020502 8942e316  ..7..... ....B..
 8138 52feb7ae 0000938e 0e504d4e 6398d113  R........PMNc...
 8148 01423701 b000b700 d000b3a1 20020502  .B7......... ...
 8158 8942e318 52feb79e 0000938e 0ef0514e  .B..R.........QN
 8168 6396d111 01423701 b000b700 e0000100  c....B7.........
 8178 b3a12002 05028942 e31752fe b7ae0000  .. ....B..R.....
 8188 938e0ea0 554e6393 d10f0142 3701b000  ....UNc....B7...
 8198 b700f000 01000100 b3a12002 05028942  .......... ....B
 81a8 e31652fe b7ae0000 938e0e50 594e639f  ..R........PYNc.
 81b8 d10b0142 3701b000 0100b700 d000b3a1  ...B7...........
 81c8 20020502 8942e317 52feb79e 0000938e   ....B..R.......
 81d8 0ef05d4e 639cd109 01423701 b0000100  ..]Nc....B7.....
 81e8 b700e000 0100b3a1 20020502 8942e316  ........ ....B..
 81f8 52feb7ae 0000938e 0ea0614e 6398d107  R.........aNc...
 8208 01423701 b0000100 0100b700 f000b3a1  .B7.............
 8218 20020502 8942e316 52feb7ae 0000938e   ....B..R.......
 8228 0e50654e 6394d105 b700007c 33211002  .PeNc......|3!..
 8238 814e694e 631cd103 b7000080 33a10002  .NiNc.......3...
 8248 814e6d4e 6314d103 b3200002 814e714e  .NmNc.... ...NqN
 8258 639ed001 b7001002 37012002 33a02002  c.......7. .3. .
 8268 814e754e 6314d001 6315c003 37050110  .NuNc...c...7...
 8278 13054500 93055004 13062005 9306f004  ..E...P... .....
 8288 1307a000 0cc110c1 10c114c1 10c118c1  ................
 8298 02903705 01101305 45009305 f0041306  ..7.....E.......
 82a8 b0049306 a0000cc1 10c114c1 13010f00  ................
 82b8 8321c1ff 832081ff 6f800f87 b7070110  .!... ..o.......
 82c8 c8c38280 37070110 83470500 91e38280  ....7....G......
 82d8 05055cc3 d5bf4111 5c00be86 294619ed  ..\...A.\...)F..
 82e8 638ed700 37060110 fd1703c7 07001307  c...7...........
 82f8 070358c2 e39ad7fe 41018280 3377c502  ..X.....A...3w..
 8308 8507a38f e7fe3355 c502d1bf fd153707  ......3U......7.
 8318 01008a05 1307c702 b7060110 63d30500  ............c...
 8328 8280b357 b500bd8b ba9783c7 0700f115  ...W............
 8338 dcc2edb7 797122d4 26d24ad0 4ece52cc  ....yq".&.J.N.R.
 8348 56ca5ac8 5ec606d6 62c42a84 ae878144  V.Z.^...b.*....D
 8358 13095002 b7090110 130ad002 930a0003  ..P.............
 8368 254ba94b 03470400 11efb250 22542685  %K.K.G.....P"T&.
 8378 02599254 f249624a d24a424b b24b224c  .Y.T.IbJ.JBK.K"L
 8388 45618280 6318270b 83461400 f9de1307  Ea..c.'..F......
 8398 14006380 260b6394 46011307 24003a84  ..c.&.c.F...$.:.
 83a8 03470400 93061400 63085703 81450347  .G......c.W..E.G
 83b8 04001305 14009306 07fd13f6 f60f637f  ..............c.
 83c8 cb009306 30076310 d7028843 138c4700  ....0.c....C..G.
 83d8 d53de287 050479b7 3684d9b7 b3857503  .=....y.6.....u.
 83e8 2a84b695 e9b79306 40066318 d7008843  *.......@.c....C
 83f8 138c4700 cd358504 e9bf9306 80076317  ..G..5........c.
 8408 d7008843 138c4700 1137f5b7 93068005  ...C..G..7......
 8418 e309d7fe 93065007 e30bd7fc 93063006  ......P.......0.
 8428 e31ad7fa 03c70700 85049107 23a2e900  ............#...
 8438 55b73a84 03470400 850423a2 e90059bf  U.:..G....#...Y.
 8448 82803971 2ed24c10 06ce32d4 36d63ad8  ..9q..L...2.6.:.
 8458 3eda42dc 46de2ec6 f13df240 21618280  >.B.F....=.@!a..
 8468 b7070410 13870703 9c5b5cc1 5c431cc1  .........[\.\C..
 8478 82807325 00b08280 732500b0 82802a96  ..s%....s%....*.
 8488 aa876393 c7008280 850503c7 f5ff8507  ..c.............
 8498 a38fe7fe fdb72a96 aa876393 c7008280  ......*...c.....
 84a8 2380b700 8507d5bf 11ce9307 15003295  #.............2.
 84b8 03c6f7ff 03c70500 6385a700 85076305  ........c.....c.
 84c8 e600198e 32858280 8505ddb7 637eb500  ....2.......c~..
 84d8 2a96aa87 6393c700 82808505 03c7f5ff  *...c...........
 84e8 8507a38f e7fefdb7 63faa500 9307f6ff  ........c.......
 84f8 be95aa97 1d8e3387 c70011e3 8280fd15  ......3.........
 8508 03c71500 fd17a380 e700f5b7 2a87aa95  ............*...
 8518 aa873385 e7406385 b70083c6 070091e2  ..3..@c.........
 8528 82808507 fdb7aa87 850703c7 f7ff6dff  ..............m.
 8538 3385a740 7d158280 2a87b367 b7008d8b  3..@}...*..g....
 8548 a9ef3706 fffe3788 80801306 f6ef1308  ..7...7.........
 8558 08089c41 b386c700 93c8f7ff b3f61601  ...A............
 8568 b3f60601 b9c2be86 2300d700 93f6f70f  ........#.......
 8578 85ce93d6 87003686 a300c700 93f6f60f  ......6.........
 8588 85c693d6 07013686 2301c700 93f6f60f  ......6.#.......
 8598 81cee183 a301f700 82808505 83c7f5ff  ................
 85a8 0507a30f f7fed1fb 82801cc3 91051107  ................
 85b8 4db7b367 b5008d8b 85ebb706 fffe3786  M..g..........7.
 85c8 80809386 f6ef1306 06081c41 9841638d  ...........A.Ac.
 85d8 e70693f6 f70f1376 f70f6387 c6020545  .......v..c....E
 85e8 63f3c606 7d558280 05058505 8347f5ff  c...}U.......G..
 85f8 03c7f5ff 6387e700 7d5563e6 e7040545  ....c...}Uc....E
 8608 8280c5fb 014581a0 014595ce 93d68700  .....E...E......
 8618 13568700 93f6f60f 1376f60f e391c6fc  .V.......v......
 8628 9dc293d6 07011356 070193f6 f60f1376  .......V.......v
 8638 f60fe396 c6fa81ca e1836183 6385e700  ..........a.c...
 8648 0545e3e1 e7fa8280 3387d700 93c7f7ff  .E......3.......
 8658 f98ff18f c5fb1105 910585bf aa873387  ..............3.
 8668 a740635e c70083c6 070003c7 0500636a  .@c^..........cj
 8678 d70063ea e60081c6 85078505 6df30145  ..c.........m..E
 8688 82800545 82807d55 82801307 00028347  ...E..}U.......G
 8698 05006380 e7021307 d002638e e7001307  ..c.......c.....
 86a8 b0028146 6393e700 05058147 a5452948  ...Fc......G.E)H
 86b8 19a80505 e9bf8546 c5bfb387 07030505  .......F........
 86c8 b2979387 07fd0346 05001307 06fd1377  .......F.......w
 86d8 f70fe3f4 e5fe7d55 91e20545 3385a702  ......}U...E3...
 86e8 8280b707 01108c43 411122c4 26c24ac0  .......CA.".&.J.
 86f8 06c63704 0080b704 01003709 01106398  ..7.......7...c.
 8708 8500b240 22449244 02494101 828093f5  ...@"D.D.IA.....
 8718 f50f1385 04043533 83250900 cdb7d1b7  ......53.%......
 8728 b7070710 9c43b706 00803707 07100546  .....C....7....F
 8738 6393d700 828063d3 070010cf 1c43cdbf  c.....c......C..
 8748 03a7019b 37050100 13058504 050723a8  ....7.........#.
 8758 e19a83a5 019bf5b1 aa853705 01001305  ..........7.....
 8768 8505c5b1 f3270030 23a4f198 83a68198  .....'.0#.......
 8778 85473395 a700558d 23a4a198 83a78198  .G3...U.#.......
 8788 73900730 8280f327 003023a4 f19883a6  s..0...'.0#.....
 8798 81988547 3395a700 1345f5ff 758d23a4  ...G3....E..u.#.
 87a8 a19883a7 81987390 07308280 7d574111  ......s..0..}WA.
 87b8 23a6e198 06c683a7 c1987390 47300d45  #.........s.G0.E
 87c8 d937b240 0d454101 71bf3707 07105c43  .7.@.EA.q.7...\C
 87d8 b7060080 6385d702 232c0700 93060002  ....c...#,......
 87e8 14c7c207 93860199 c18354c7 81171cc7  ..........T.....
 87f8 48c7b706 0710984e 7ddf3e85 82800145  H......N}.>....E
 8808 82801397 0501b707 07101307 070298cb  ................
 8818 13878196 d8cb8ccb c8cb3707 0080d8cb  ..........7.....
 8828 05458280 17850000 1305558c eff0dff2  .E........U.....
 8838 6f00c00c f3222034 93921200 93d21200  o...." 4........
 8848 13032000 638c6208 1303b000 63886206  .. .c.b.....c.b.
 8858 13033000 638c6206 6f004009 232e11fe  ..0.c.b.o.@.#...
 8868 ef00000b 130101f8 eff07feb 13010108  ................
 8878 ef00c011 8320c1ff 73002030 232e11fe  ..... ..s. 0#...
 8888 ef000009 130101f8 eff09fe9 13010108  ................
 8898 ef00c00f 8320c1ff 73002030 232e11fe  ..... ..s. 0#...
 88a8 ef000007 130101f8 eff09fe9 13010108  ................
 88b8 ef00c00d 8320c1ff 73002030 17750000  ..... ..s. 0.u..
 88c8 1305757c eff05fe9 6f004003 17750000  ..u|.._.o.@..u..
 88d8 1305857d eff05fe8 6f004002 17750000  ...}.._.o.@..u..
 88e8 13058577 eff05fe7 6f004001 17750000  ...w.._.o.@..u..
 88f8 1305a57d eff05fe6 6f004000 73251034  ...}.._.o.@.s%.4
 8908 13054500 73101534 73002030 73002030  ..E.s..4s. 0s. 0
 8918 232c21fe 232a31fe 232841fe 232651fe  #,!.#*1.#(A.#&Q.
 8928 232461fe 232271fe 232081fe 232e91fc  #$a.#"q.# ..#...
 8938 232ca1fc 232ab1fc 2328c1fc 2326d1fc  #,..#*..#(..#&..
 8948 2324e1fc 2322f1fc 232001fd 232e11fb  #$..#"..# ..#...
 8958 232c21fb 232a31fb 232841fb 232651fb  #,!.#*1.#(A.#&Q.
 8968 232461fb 232271fb 232081fb 232e91f9  #$a.#"q.# ..#...
 8978 232ca1f9 232ab1f9 2328c1f9 2326d1f9  #,..#*..#(..#&..
 8988 2324e1f9 2322f1f9 67800000 832141ff  #$..#"..g....!A.
 8998 032201ff 8322c1fe 032381fe 832341fe  ."..."...#...#A.
 89a8 032401fe 8324c1fd 032581fd 832541fd  .$...$...%...%A.
 89b8 032601fd 8326c1fc 032781fc 832741fc  .&...&...'...'A.
 89c8 032801fc 8328c1fb 032981fb 832941fb  .(...(...)...)A.
 89d8 032a01fb 832ac1fa 032b81fa 832b41fa  .*...*...+...+A.
 89e8 032c01fa 832cc1f9 032d81f9 832d41f9  .,...,...-...-A.
 89f8 032e01f9 832ec1f8 032f81f8 832f41f8  ........./.../A.
 8a08 67800000 9b80a000 1ba1a000 9bb1b000  g...............
 8a18 1bc2b000 9b62b200 1bf3a200 9b938000  .....b..........
 8a28 1bd44000 9bd41040 9f9f0000 1f850000  ..@....@........
 8a38 bf050100 5f060000 df160000 5f270000  ...._......._'..
 8a48 df470000 5f580000 6b80c500 6b90d500  .G.._X..k...k...
 8a58 6ba0e500 5f870500 df960500 5fa60500  k..._......._...
 8a68 bb881300 3b091440 bb991400 3b2a1000  ....;..@....;*..
 8a78 bbba1000 3b4b1100 bbdb1100 3b5c1240  ....;K......;\.@
 8a88 bbec1200 3b7d1300 82803f0f 00201380  ....;}....?.. ..
 8a98 00001300 01001f15 0f008280 1b1a0801  ................
 8aa8 1b5a0a01 1f150a00 82801b5a 00019b1a  .Z.........Z....
 8ab8 00011bdb 00011b9c 00019b5c 01011b1d  ...........\....
 8ac8 01013b80 8c01bb00 4d013b01 5b019b1d  ..;.....M.;.[...
 8ad8 08019bdd 0d011f95 0d008280 3f0f0040  ............?..@
 8ae8 3f0f0080 9b1d0d00 9b1d0d00 9b1d0d00  ?...............
 8af8 9b1d0d00 9b1d0d00 9b1d0d00 3f0f0008  ............?...
 8b08 9b1d0d00 9b1d0d00 9b871700 82801b18  ................
 8b18 48001b58 48009f0d 05009b9d cd013b68  H..XH.........;h
 8b28 b8013f0f 00108280 1b184800 1b584800  ..?.......H..XH.
 8b38 3f0f0010 82801bda 01011f15 0a008280  ?...............
 8b48 3f0f0080 9b1d0d00 9b1d0d00 9b1d0d00  ?...............
 8b58 9b1d0d00 9b1d0d00 9b1d0d00 3f0f0008  ............?...
 8b68 9b1d0d00 9b1d0d00 1f150000 8280      ..............  
Contents of section .rodata:
 10000 0d737973 74656d20 626f6f74 2066696e  .system boot fin
 10010 69736865 640d0a00 49534120 74657374  ished...ISA test
 10020 20697320 70617365 640d0a00 30313233   is pased...0123
 10030 34353637 38394142 43444546 00000000  456789ABCDEF....
 10040 25630d0a 00000000 6972715f 636e743a  %c......irq_cnt:
 10050 25640a0d 00000000 25730a00 696c6c65  %d......%s..ille
 10060 67616c20 696e7374 72756374 696f6e20  gal instruction 
 10070 65786365 7074696f 6e206861 6e646c65  exception handle
 10080 7220656e 74657265 640a0065 63616c6c  r entered..ecall
 10090 20657863 65707469 6f6e2068 616e646c   exception handl
 100a0 65722065 6e746572 65640a00 65627265  er entered..ebre
 100b0 616b2065 78636570 74696f6e 2068616e  ak exception han
 100c0 646c6572 20656e74 65726564 0a00756e  dler entered..un
 100d0 6b6e6f77 6e206578 63657074 696f6e20  known exception 
 100e0 68616e64 6c657220 656e7465 7265640a  handler entered.
 100f0 006e6f20 65786365 7074696f 6e206861  .no exception ha
 10100 6e646c65 7220696e 7374616c 6c65640a  ndler installed.
 10110 00756172 74207465 73740a00           .uart test..    
Contents of section .data:
 1011c 6f720000 786f7200 73680000 efbeefbe  or..xor.sh......
 1012c efbeefbe efbeefbe efbeefbe efbeefbe  ................
 1013c 616e6469 00000000 73756200 736c6c00  andi....sub.sll.
 1014c 6c620000 ff00f00f 6c680000 ff0000ff  lb......lh......
 1015c f00f0ff0 62676500 73726169 00000000  ....bge.srai....
 1016c 626c7475 00000000 73726100 73726c69  bltu....sra.srli
 1017c 00000000 62657100 61756970 63000000  ....beq.auipc...
 1018c 73770000 efbeadde efbeadde efbeadde  sw..............
 1019c efbeadde efbeadde efbeadde efbeadde  ................
 101ac efbeadde efbeadde efbeadde 6a616c72  ............jalr
 101bc 00000000 62676575 00000000 786f7269  ....bgeu....xori
 101cc 00000000 6c770000 ff00ff00 00ff00ff  ....lw..........
 101dc f00ff00f 0ff00ff0 73726c00 61646400  ........srl.add.
 101ec 736c7400 6c627500 ff00f00f 6c687500  slt.lbu.....lhu.
 101fc ff0000ff f00f0ff0 73696d70 6c650000  ........simple..
 1020c 626c7400 616e6400 6f726900 6c756900  blt.and.ori.lui.
 1021c 6a616c00 61646469 00000000 73620000  jal.addi....sb..
 1022c efefefef efefefef efef0000 736c6c69  ............slli
 1023c 00000000 626e6500 6a000000 736c7469  ....bne.j...slti
 1024c 00000000 6d756c68 75000000 64697600  ....mulhu...div.
 1025c 64697675 00000000 72656d75 00000000  divu....remu....
 1026c 6d756c68 00000000 6d756c00 72656d00  mulh....mul.rem.
 1027c 6d756c68 73750000 00000000 80000000  mulhsu..........
 1028c 00000000 00000000 00000000 00000000  ................
 1029c 00000000 00000000                    ........        
Contents of section .Pulp_Chip.Info:
 0000 0a000000 38000000 01000000 50756c70  ....8.......Pulp
 0010 5f496e66 6f006368 69703d6e 6f6e6520  _Info.chip=none 
 0020 6370753d 6e6f6e65 2070653d 2d312066  cpu=none pe=-1 f
 0030 633d2d31 206c323d 2d31206c 31636c3d  c=-1 l2=-1 l1cl=
 0040 2d31206c 3166633d 2d310000 0000      -1 l1fc=-1....  
Contents of section .comment:
 0000 4743433a 2028474e 55292037 2e312e31  GCC: (GNU) 7.1.1
 0010 20323031 37303530 3900                20170509.      

Disassembly of section .vectors:

00000000 <__vector_start>:
   0:	03d0806f          	j	883c <sw_irq_handler>
   4:	0290806f          	j	882c <__no_irq_handler>
   8:	0250806f          	j	882c <__no_irq_handler>
   c:	0210806f          	j	882c <__no_irq_handler>
  10:	01d0806f          	j	882c <__no_irq_handler>
  14:	0190806f          	j	882c <__no_irq_handler>
  18:	0150806f          	j	882c <__no_irq_handler>
  1c:	0890806f          	j	88a4 <__time_irq_handler>
  20:	00d0806f          	j	882c <__no_irq_handler>
  24:	0090806f          	j	882c <__no_irq_handler>
  28:	0050806f          	j	882c <__no_irq_handler>
  2c:	0010806f          	j	882c <__no_irq_handler>
  30:	7fc0806f          	j	882c <__no_irq_handler>
  34:	7f80806f          	j	882c <__no_irq_handler>
  38:	7f40806f          	j	882c <__no_irq_handler>
  3c:	7f00806f          	j	882c <__no_irq_handler>
  40:	0250806f          	j	8864 <__uart_irq_handler>
  44:	7e80806f          	j	882c <__no_irq_handler>
  48:	7e40806f          	j	882c <__no_irq_handler>
  4c:	7e00806f          	j	882c <__no_irq_handler>
  50:	7dc0806f          	j	882c <__no_irq_handler>
  54:	7d80806f          	j	882c <__no_irq_handler>
  58:	02d0806f          	j	8884 <__dma_irq_handler>
  5c:	7d00806f          	j	882c <__no_irq_handler>
  60:	7cc0806f          	j	882c <__no_irq_handler>
  64:	7c80806f          	j	882c <__no_irq_handler>
  68:	7c40806f          	j	882c <__no_irq_handler>
  6c:	7c00806f          	j	882c <__no_irq_handler>
  70:	7bc0806f          	j	882c <__no_irq_handler>
  74:	7b80806f          	j	882c <__no_irq_handler>
  78:	7b40806f          	j	882c <__no_irq_handler>
  7c:	0990806f          	j	8914 <verification_irq_handler>
  80:	7ac0806f          	j	882c <__no_irq_handler>
  84:	7a80806f          	j	882c <__no_irq_handler>
  88:	7a40806f          	j	882c <__no_irq_handler>
  8c:	7a00806f          	j	882c <__no_irq_handler>
  90:	79c0806f          	j	882c <__no_irq_handler>
  94:	7980806f          	j	882c <__no_irq_handler>
  98:	7940806f          	j	882c <__no_irq_handler>
  9c:	7900806f          	j	882c <__no_irq_handler>
  a0:	78c0806f          	j	882c <__no_irq_handler>
  a4:	7880806f          	j	882c <__no_irq_handler>
  a8:	7840806f          	j	882c <__no_irq_handler>
  ac:	7800806f          	j	882c <__no_irq_handler>
  b0:	77c0806f          	j	882c <__no_irq_handler>
  b4:	7780806f          	j	882c <__no_irq_handler>
  b8:	7740806f          	j	882c <__no_irq_handler>
  bc:	7700806f          	j	882c <__no_irq_handler>
  c0:	76c0806f          	j	882c <__no_irq_handler>
  c4:	7680806f          	j	882c <__no_irq_handler>
  c8:	7640806f          	j	882c <__no_irq_handler>
  cc:	7600806f          	j	882c <__no_irq_handler>
  d0:	75c0806f          	j	882c <__no_irq_handler>
  d4:	7580806f          	j	882c <__no_irq_handler>
  d8:	7540806f          	j	882c <__no_irq_handler>
  dc:	7500806f          	j	882c <__no_irq_handler>
  e0:	74c0806f          	j	882c <__no_irq_handler>
  e4:	7480806f          	j	882c <__no_irq_handler>
  e8:	7440806f          	j	882c <__no_irq_handler>
  ec:	7400806f          	j	882c <__no_irq_handler>
  f0:	73c0806f          	j	882c <__no_irq_handler>
  f4:	7380806f          	j	882c <__no_irq_handler>
  f8:	7340806f          	j	882c <__no_irq_handler>
  fc:	7300806f          	j	882c <__no_irq_handler>

Disassembly of section .init:

00000180 <_start>:
 180:	00010197          	auipc	gp,0x10
 184:	79c18193          	addi	gp,gp,1948 # 1091c <__global_pointer$>
 188:	00011117          	auipc	sp,0x11
 18c:	15810113          	addi	sp,sp,344 # 112e0 <_sp>
 190:	00000517          	auipc	a0,0x0
 194:	e7050513          	addi	a0,a0,-400 # 0 <__vector_start>
 198:	00156513          	ori	a0,a0,1
 19c:	30551073          	csrw	mtvec,a0
 1a0:	4502                	lw	a0,0(sp)
 1a2:	004c                	addi	a1,sp,4
 1a4:	4601                	li	a2,0
 1a6:	2009                	jal	1a8 <main>

Disassembly of section .text:

000001a8 <main>:
     1a8:	1141                	addi	sp,sp,-16
     1aa:	c606                	sw	ra,12(sp)
     1ac:	608080ef          	jal	ra,87b4 <irq_init>
     1b0:	00010537          	lui	a0,0x10
     1b4:	00050513          	mv	a0,a0
     1b8:	9a01a823          	sw	zero,-1616(gp) # 102cc <timer_irq_count>
     1bc:	28e080ef          	jal	ra,844a <printf>
     1c0:	2809                	jal	1d2 <__TEST_RV32UI_ISA>
     1c2:	2a89                	jal	314 <__TEST_RV32UM_ISA>
     1c4:	00010537          	lui	a0,0x10
     1c8:	01850513          	addi	a0,a0,24 # 10018 <__read_next_512b_first32b+0x74d0>
     1cc:	27e080ef          	jal	ra,844a <printf>
     1d0:	a001                	j	1d0 <main+0x28>

000001d2 <__TEST_RV32UI_ISA>:
     1d2:	1101                	addi	sp,sp,-32
     1d4:	fe112e23          	sw	ra,-4(sp)
     1d8:	196000ef          	jal	ra,36e <__SAVE_CURRENT_ENV>
     1dc:	6105                	addi	sp,sp,32
     1de:	3e800093          	li	ra,1000
     1e2:	3750506f          	j	5d56 <lui>

000001e6 <lui_ret>:
     1e6:	3e800093          	li	ra,1000
     1ea:	1b60306f          	j	33a0 <auipc>

000001ee <auipc_ret>:
     1ee:	3e800093          	li	ra,1000
     1f2:	0330606f          	j	6a24 <j>

000001f6 <j_ret>:
     1f6:	3e800093          	li	ra,1000
     1fa:	42d0506f          	j	5e26 <jal>

000001fe <jal_ret>:
     1fe:	3e800093          	li	ra,1000
     202:	6a00306f          	j	38a2 <jalr>

00000206 <jalr_ret>:
     206:	3e800093          	li	ra,1000
     20a:	73d0206f          	j	3146 <beq>

0000020e <beq_ret>:
     20e:	3e800093          	li	ra,1000
     212:	5ba0606f          	j	67cc <bne>

00000216 <bne_ret>:
     216:	3e800093          	li	ra,1000
     21a:	25c0506f          	j	5476 <blt>

0000021e <blt_ret>:
     21e:	3e800093          	li	ra,1000
     222:	70f0106f          	j	2130 <bge>

00000226 <bge_ret>:
     226:	3e800093          	li	ra,1000
     22a:	4760206f          	j	26a0 <bltu>

0000022e <bltu_ret>:
     22e:	3e800093          	li	ra,1000
     232:	00d0306f          	j	3a3e <bgeu>

00000236 <bgeu_ret>:
     236:	3e800093          	li	ra,1000
     23a:	2150106f          	j	1c4e <lb>

0000023e <lb_ret>:
     23e:	3e800093          	li	ra,1000
     242:	4650106f          	j	1ea6 <lh>

00000246 <lh_ret>:
     246:	3e800093          	li	ra,1000
     24a:	5270306f          	j	3f70 <lw>

0000024e <lw_ret>:
     24e:	3e800093          	li	ra,1000
     252:	4d50406f          	j	4f26 <lbu>

00000256 <lbu_ret>:
     256:	3e800093          	li	ra,1000
     25a:	7250406f          	j	517e <lhu>

0000025e <lhu_ret>:
     25e:	3e800093          	li	ra,1000
     262:	72d0506f          	j	618e <sb>

00000266 <sb_ret>:
     266:	3e800093          	li	ra,1000
     26a:	30b0006f          	j	d74 <sh>

0000026e <sh_ret>:
     26e:	3e800093          	li	ra,1000
     272:	1f20306f          	j	3464 <sw>

00000276 <sw_ret>:
     276:	3e800093          	li	ra,1000
     27a:	4a10506f          	j	5f1a <addi>

0000027e <addi_ret>:
     27e:	3e800093          	li	ra,1000
     282:	0450606f          	j	6ac6 <slti>

00000286 <slti_ret>:
     286:	3e800093          	li	ra,1000
     28a:	2cf0306f          	j	3d58 <xori>

0000028e <xori_ret>:
     28e:	3e800093          	li	ra,1000
     292:	0b50506f          	j	5b46 <ori>

00000296 <ori_ret>:
     296:	3e800093          	li	ra,1000
     29a:	73b0006f          	j	11d4 <andi>

0000029e <andi_ret>:
     29e:	3e800093          	li	ra,1000
     2a2:	2ae0606f          	j	6550 <slli>

000002a6 <slli_ret>:
     2a6:	3e800093          	li	ra,1000
     2aa:	3d10206f          	j	2e7a <srli>

000002ae <srli_ret>:
     2ae:	3e800093          	li	ra,1000
     2b2:	1200206f          	j	23d2 <srai>

000002b6 <srai_ret>:
     2b6:	3e800093          	li	ra,1000
     2ba:	48e0406f          	j	4748 <add>

000002be <add_ret>:
     2be:	3e800093          	li	ra,1000
     2c2:	0fc0106f          	j	13be <sub>

000002c6 <sub_ret>:
     2c6:	3e800093          	li	ra,1000
     2ca:	4e00106f          	j	17aa <sll>

000002ce <sll_ret>:
     2ce:	3e800093          	li	ra,1000
     2d2:	07d0406f          	j	4b4e <slt>

000002d6 <slt_ret>:
     2d6:	3e800093          	li	ra,1000
     2da:	6120006f          	j	8ec <xor>

000002de <xor_ret>:
     2de:	3e800093          	li	ra,1000
     2e2:	7390306f          	j	421a <srl>

000002e6 <srl_ret>:
     2e6:	3e800093          	li	ra,1000
     2ea:	67e0206f          	j	2968 <sra>

000002ee <sra_ret>:
     2ee:	3e800093          	li	ra,1000
     2f2:	16c0006f          	j	45e <or>

000002f6 <or_ret>:
     2f6:	3e800093          	li	ra,1000
     2fa:	3d00506f          	j	56ca <and>

000002fe <and_ret>:
     2fe:	3e800093          	li	ra,1000
     302:	11a0506f          	j	541c <simple>

00000306 <simple_ret>:
     306:	1101                	addi	sp,sp,-32
     308:	0e0000ef          	jal	ra,3e8 <__LOAD_CURRENT_ENV>
     30c:	ffc12083          	lw	ra,-4(sp)
     310:	6105                	addi	sp,sp,32
     312:	8082                	ret

00000314 <__TEST_RV32UM_ISA>:
     314:	1101                	addi	sp,sp,-32
     316:	fe112e23          	sw	ra,-4(sp)
     31a:	054000ef          	jal	ra,36e <__SAVE_CURRENT_ENV>
     31e:	6105                	addi	sp,sp,32
     320:	3e800093          	li	ra,1000
     324:	1aa0706f          	j	74ce <mulh>

00000328 <mulh_ret>:
     328:	3e800093          	li	ra,1000
     32c:	3350706f          	j	7e60 <mulhsu>

00000330 <mulhsu_ret>:
     330:	3e800093          	li	ra,1000
     334:	1db0606f          	j	6d0e <mulhu>

00000338 <mulhu_ret>:
     338:	3e800093          	li	ra,1000
     33c:	5f00706f          	j	792c <mul>

00000340 <mul_ret>:
     340:	3e800093          	li	ra,1000
     344:	62d0606f          	j	7170 <div>

00000348 <div_ret>:
     348:	3e800093          	li	ra,1000
     34c:	7430606f          	j	728e <divu>

00000350 <divu_ret>:
     350:	3e800093          	li	ra,1000
     354:	1f10706f          	j	7d44 <rem>

00000358 <rem_ret>:
     358:	3e800093          	li	ra,1000
     35c:	0540706f          	j	73b0 <remu>

00000360 <remu_ret>:
     360:	1101                	addi	sp,sp,-32
     362:	086000ef          	jal	ra,3e8 <__LOAD_CURRENT_ENV>
     366:	ffc12083          	lw	ra,-4(sp)
     36a:	6105                	addi	sp,sp,32
     36c:	8082                	ret

0000036e <__SAVE_CURRENT_ENV>:
     36e:	fe212c23          	sw	sp,-8(sp)
     372:	fe312a23          	sw	gp,-12(sp)
     376:	fe412823          	sw	tp,-16(sp)
     37a:	fe512623          	sw	t0,-20(sp)
     37e:	fe612423          	sw	t1,-24(sp)
     382:	fe712223          	sw	t2,-28(sp)
     386:	fe812023          	sw	s0,-32(sp)
     38a:	fc912e23          	sw	s1,-36(sp)
     38e:	fca12c23          	sw	a0,-40(sp)
     392:	fcb12a23          	sw	a1,-44(sp)
     396:	fcc12823          	sw	a2,-48(sp)
     39a:	fcd12623          	sw	a3,-52(sp)
     39e:	fce12423          	sw	a4,-56(sp)
     3a2:	fcf12223          	sw	a5,-60(sp)
     3a6:	fd012023          	sw	a6,-64(sp)
     3aa:	fb112e23          	sw	a7,-68(sp)
     3ae:	fb212c23          	sw	s2,-72(sp)
     3b2:	fb312a23          	sw	s3,-76(sp)
     3b6:	fb412823          	sw	s4,-80(sp)
     3ba:	fb512623          	sw	s5,-84(sp)
     3be:	fb612423          	sw	s6,-88(sp)
     3c2:	fb712223          	sw	s7,-92(sp)
     3c6:	fb812023          	sw	s8,-96(sp)
     3ca:	f9912e23          	sw	s9,-100(sp)
     3ce:	f9a12c23          	sw	s10,-104(sp)
     3d2:	f9b12a23          	sw	s11,-108(sp)
     3d6:	f9c12823          	sw	t3,-112(sp)
     3da:	f9d12623          	sw	t4,-116(sp)
     3de:	f9e12423          	sw	t5,-120(sp)
     3e2:	f9f12223          	sw	t6,-124(sp)
     3e6:	8082                	ret

000003e8 <__LOAD_CURRENT_ENV>:
     3e8:	ff412183          	lw	gp,-12(sp)
     3ec:	ff012203          	lw	tp,-16(sp)
     3f0:	fec12283          	lw	t0,-20(sp)
     3f4:	fe812303          	lw	t1,-24(sp)
     3f8:	fe412383          	lw	t2,-28(sp)
     3fc:	fe012403          	lw	s0,-32(sp)
     400:	fdc12483          	lw	s1,-36(sp)
     404:	fd812503          	lw	a0,-40(sp)
     408:	fd412583          	lw	a1,-44(sp)
     40c:	fd012603          	lw	a2,-48(sp)
     410:	fcc12683          	lw	a3,-52(sp)
     414:	fc812703          	lw	a4,-56(sp)
     418:	fc412783          	lw	a5,-60(sp)
     41c:	fc012803          	lw	a6,-64(sp)
     420:	fbc12883          	lw	a7,-68(sp)
     424:	fb812903          	lw	s2,-72(sp)
     428:	fb412983          	lw	s3,-76(sp)
     42c:	fb012a03          	lw	s4,-80(sp)
     430:	fac12a83          	lw	s5,-84(sp)
     434:	fa812b03          	lw	s6,-88(sp)
     438:	fa412b83          	lw	s7,-92(sp)
     43c:	fa012c03          	lw	s8,-96(sp)
     440:	f9c12c83          	lw	s9,-100(sp)
     444:	f9812d03          	lw	s10,-104(sp)
     448:	f9412d83          	lw	s11,-108(sp)
     44c:	f9012e03          	lw	t3,-112(sp)
     450:	f8c12e83          	lw	t4,-116(sp)
     454:	f8812f03          	lw	t5,-120(sp)
     458:	f8412f83          	lw	t6,-124(sp)
     45c:	8082                	ret

0000045e <or>:
     45e:	00010f13          	mv	t5,sp
     462:	fe312e23          	sw	gp,-4(sp)
     466:	fe112c23          	sw	ra,-8(sp)
     46a:	6541                	lui	a0,0x10
     46c:	11c50513          	addi	a0,a0,284 # 1011c <__DATA_BEGIN__>
     470:	10010637          	lui	a2,0x10010
     474:	00460613          	addi	a2,a2,4 # 10010004 <_sp+0xfffed24>

00000478 <.prname_next>:
     478:	00050583          	lb	a1,0(a0)
     47c:	00058663          	beqz	a1,488 <.prname_done>
     480:	c20c                	sw	a1,0(a2)
     482:	0505                	addi	a0,a0,1
     484:	ff5ff06f          	j	478 <.prname_next>

00000488 <.prname_done>:
     488:	02e00593          	li	a1,46
     48c:	c20c                	sw	a1,0(a2)
     48e:	c20c                	sw	a1,0(a2)

00000490 <test_2>:
     490:	ff0100b7          	lui	ra,0xff010
     494:	f0008093          	addi	ra,ra,-256 # ff00ff00 <pulp__FC+0xff00ff01>
     498:	0f0f1137          	lui	sp,0xf0f1
     49c:	f0f10113          	addi	sp,sp,-241 # f0f0f0f <_sp+0xf0dfc2f>
     4a0:	0020e1b3          	or	gp,ra,sp
     4a4:	ff100eb7          	lui	t4,0xff100
     4a8:	f0fe8e93          	addi	t4,t4,-241 # ff0fff0f <pulp__FC+0xff0fff10>
     4ac:	4e09                	li	t3,2
     4ae:	3fd19763          	bne	gp,t4,89c <fail>

000004b2 <test_3>:
     4b2:	0ff010b7          	lui	ra,0xff01
     4b6:	ff008093          	addi	ra,ra,-16 # ff00ff0 <_sp+0xfeefd10>
     4ba:	f0f0f137          	lui	sp,0xf0f0f
     4be:	0f010113          	addi	sp,sp,240 # f0f0f0f0 <pulp__FC+0xf0f0f0f1>
     4c2:	0020e1b3          	or	gp,ra,sp
     4c6:	fff10eb7          	lui	t4,0xfff10
     4ca:	ff0e8e93          	addi	t4,t4,-16 # fff0fff0 <pulp__FC+0xfff0fff1>
     4ce:	4e0d                	li	t3,3
     4d0:	3dd19663          	bne	gp,t4,89c <fail>

000004d4 <test_4>:
     4d4:	00ff00b7          	lui	ra,0xff0
     4d8:	0ff08093          	addi	ra,ra,255 # ff00ff <_sp+0xfdee1f>
     4dc:	0f0f1137          	lui	sp,0xf0f1
     4e0:	f0f10113          	addi	sp,sp,-241 # f0f0f0f <_sp+0xf0dfc2f>
     4e4:	0020e1b3          	or	gp,ra,sp
     4e8:	0fff1eb7          	lui	t4,0xfff1
     4ec:	fffe8e93          	addi	t4,t4,-1 # fff0fff <_sp+0xffdfd1f>
     4f0:	4e11                	li	t3,4
     4f2:	3bd19563          	bne	gp,t4,89c <fail>

000004f6 <test_5>:
     4f6:	f00ff0b7          	lui	ra,0xf00ff
     4fa:	00f08093          	addi	ra,ra,15 # f00ff00f <pulp__FC+0xf00ff010>
     4fe:	f0f0f137          	lui	sp,0xf0f0f
     502:	0f010113          	addi	sp,sp,240 # f0f0f0f0 <pulp__FC+0xf0f0f0f1>
     506:	0020e1b3          	or	gp,ra,sp
     50a:	f0fffeb7          	lui	t4,0xf0fff
     50e:	0ffe8e93          	addi	t4,t4,255 # f0fff0ff <pulp__FC+0xf0fff100>
     512:	4e15                	li	t3,5
     514:	39d19463          	bne	gp,t4,89c <fail>

00000518 <test_6>:
     518:	ff0100b7          	lui	ra,0xff010
     51c:	f0008093          	addi	ra,ra,-256 # ff00ff00 <pulp__FC+0xff00ff01>
     520:	0f0f1137          	lui	sp,0xf0f1
     524:	f0f10113          	addi	sp,sp,-241 # f0f0f0f <_sp+0xf0dfc2f>
     528:	0020e0b3          	or	ra,ra,sp
     52c:	ff100eb7          	lui	t4,0xff100
     530:	f0fe8e93          	addi	t4,t4,-241 # ff0fff0f <pulp__FC+0xff0fff10>
     534:	4e19                	li	t3,6
     536:	37d09363          	bne	ra,t4,89c <fail>

0000053a <test_7>:
     53a:	ff0100b7          	lui	ra,0xff010
     53e:	f0008093          	addi	ra,ra,-256 # ff00ff00 <pulp__FC+0xff00ff01>
     542:	0f0f1137          	lui	sp,0xf0f1
     546:	f0f10113          	addi	sp,sp,-241 # f0f0f0f <_sp+0xf0dfc2f>
     54a:	0020e133          	or	sp,ra,sp
     54e:	ff100eb7          	lui	t4,0xff100
     552:	f0fe8e93          	addi	t4,t4,-241 # ff0fff0f <pulp__FC+0xff0fff10>
     556:	4e1d                	li	t3,7
     558:	35d11263          	bne	sp,t4,89c <fail>

0000055c <test_8>:
     55c:	ff0100b7          	lui	ra,0xff010
     560:	f0008093          	addi	ra,ra,-256 # ff00ff00 <pulp__FC+0xff00ff01>
     564:	0010e0b3          	or	ra,ra,ra
     568:	ff010eb7          	lui	t4,0xff010
     56c:	f00e8e93          	addi	t4,t4,-256 # ff00ff00 <pulp__FC+0xff00ff01>
     570:	4e21                	li	t3,8
     572:	33d09563          	bne	ra,t4,89c <fail>

00000576 <test_9>:
     576:	4201                	li	tp,0
     578:	ff0100b7          	lui	ra,0xff010
     57c:	f0008093          	addi	ra,ra,-256 # ff00ff00 <pulp__FC+0xff00ff01>
     580:	0f0f1137          	lui	sp,0xf0f1
     584:	f0f10113          	addi	sp,sp,-241 # f0f0f0f <_sp+0xf0dfc2f>
     588:	0020e1b3          	or	gp,ra,sp
     58c:	00018313          	mv	t1,gp
     590:	0205                	addi	tp,tp,1
     592:	4289                	li	t0,2
     594:	fe5212e3          	bne	tp,t0,578 <test_9+0x2>
     598:	ff100eb7          	lui	t4,0xff100
     59c:	f0fe8e93          	addi	t4,t4,-241 # ff0fff0f <pulp__FC+0xff0fff10>
     5a0:	4e25                	li	t3,9
     5a2:	2fd31d63          	bne	t1,t4,89c <fail>

000005a6 <test_10>:
     5a6:	4201                	li	tp,0
     5a8:	0ff010b7          	lui	ra,0xff01
     5ac:	ff008093          	addi	ra,ra,-16 # ff00ff0 <_sp+0xfeefd10>
     5b0:	f0f0f137          	lui	sp,0xf0f0f
     5b4:	0f010113          	addi	sp,sp,240 # f0f0f0f0 <pulp__FC+0xf0f0f0f1>
     5b8:	0020e1b3          	or	gp,ra,sp
     5bc:	0001                	nop
     5be:	00018313          	mv	t1,gp
     5c2:	0205                	addi	tp,tp,1
     5c4:	4289                	li	t0,2
     5c6:	fe5211e3          	bne	tp,t0,5a8 <test_10+0x2>
     5ca:	fff10eb7          	lui	t4,0xfff10
     5ce:	ff0e8e93          	addi	t4,t4,-16 # fff0fff0 <pulp__FC+0xfff0fff1>
     5d2:	4e29                	li	t3,10
     5d4:	2dd31463          	bne	t1,t4,89c <fail>

000005d8 <test_11>:
     5d8:	4201                	li	tp,0
     5da:	00ff00b7          	lui	ra,0xff0
     5de:	0ff08093          	addi	ra,ra,255 # ff00ff <_sp+0xfdee1f>
     5e2:	0f0f1137          	lui	sp,0xf0f1
     5e6:	f0f10113          	addi	sp,sp,-241 # f0f0f0f <_sp+0xf0dfc2f>
     5ea:	0020e1b3          	or	gp,ra,sp
     5ee:	0001                	nop
     5f0:	0001                	nop
     5f2:	00018313          	mv	t1,gp
     5f6:	0205                	addi	tp,tp,1
     5f8:	4289                	li	t0,2
     5fa:	fe5210e3          	bne	tp,t0,5da <test_11+0x2>
     5fe:	0fff1eb7          	lui	t4,0xfff1
     602:	fffe8e93          	addi	t4,t4,-1 # fff0fff <_sp+0xffdfd1f>
     606:	4e2d                	li	t3,11
     608:	29d31a63          	bne	t1,t4,89c <fail>

0000060c <test_12>:
     60c:	4201                	li	tp,0
     60e:	ff0100b7          	lui	ra,0xff010
     612:	f0008093          	addi	ra,ra,-256 # ff00ff00 <pulp__FC+0xff00ff01>
     616:	0f0f1137          	lui	sp,0xf0f1
     61a:	f0f10113          	addi	sp,sp,-241 # f0f0f0f <_sp+0xf0dfc2f>
     61e:	0020e1b3          	or	gp,ra,sp
     622:	0205                	addi	tp,tp,1
     624:	4289                	li	t0,2
     626:	fe5214e3          	bne	tp,t0,60e <test_12+0x2>
     62a:	ff100eb7          	lui	t4,0xff100
     62e:	f0fe8e93          	addi	t4,t4,-241 # ff0fff0f <pulp__FC+0xff0fff10>
     632:	4e31                	li	t3,12
     634:	27d19463          	bne	gp,t4,89c <fail>

00000638 <test_13>:
     638:	4201                	li	tp,0
     63a:	0ff010b7          	lui	ra,0xff01
     63e:	ff008093          	addi	ra,ra,-16 # ff00ff0 <_sp+0xfeefd10>
     642:	f0f0f137          	lui	sp,0xf0f0f
     646:	0f010113          	addi	sp,sp,240 # f0f0f0f0 <pulp__FC+0xf0f0f0f1>
     64a:	0001                	nop
     64c:	0020e1b3          	or	gp,ra,sp
     650:	0205                	addi	tp,tp,1
     652:	4289                	li	t0,2
     654:	fe5213e3          	bne	tp,t0,63a <test_13+0x2>
     658:	fff10eb7          	lui	t4,0xfff10
     65c:	ff0e8e93          	addi	t4,t4,-16 # fff0fff0 <pulp__FC+0xfff0fff1>
     660:	4e35                	li	t3,13
     662:	23d19d63          	bne	gp,t4,89c <fail>

00000666 <test_14>:
     666:	4201                	li	tp,0
     668:	00ff00b7          	lui	ra,0xff0
     66c:	0ff08093          	addi	ra,ra,255 # ff00ff <_sp+0xfdee1f>
     670:	0f0f1137          	lui	sp,0xf0f1
     674:	f0f10113          	addi	sp,sp,-241 # f0f0f0f <_sp+0xf0dfc2f>
     678:	0001                	nop
     67a:	0001                	nop
     67c:	0020e1b3          	or	gp,ra,sp
     680:	0205                	addi	tp,tp,1
     682:	4289                	li	t0,2
     684:	fe5212e3          	bne	tp,t0,668 <test_14+0x2>
     688:	0fff1eb7          	lui	t4,0xfff1
     68c:	fffe8e93          	addi	t4,t4,-1 # fff0fff <_sp+0xffdfd1f>
     690:	4e39                	li	t3,14
     692:	21d19563          	bne	gp,t4,89c <fail>

00000696 <test_15>:
     696:	4201                	li	tp,0
     698:	ff0100b7          	lui	ra,0xff010
     69c:	f0008093          	addi	ra,ra,-256 # ff00ff00 <pulp__FC+0xff00ff01>
     6a0:	0001                	nop
     6a2:	0f0f1137          	lui	sp,0xf0f1
     6a6:	f0f10113          	addi	sp,sp,-241 # f0f0f0f <_sp+0xf0dfc2f>
     6aa:	0020e1b3          	or	gp,ra,sp
     6ae:	0205                	addi	tp,tp,1
     6b0:	4289                	li	t0,2
     6b2:	fe5213e3          	bne	tp,t0,698 <test_15+0x2>
     6b6:	ff100eb7          	lui	t4,0xff100
     6ba:	f0fe8e93          	addi	t4,t4,-241 # ff0fff0f <pulp__FC+0xff0fff10>
     6be:	4e3d                	li	t3,15
     6c0:	1dd19e63          	bne	gp,t4,89c <fail>

000006c4 <test_16>:
     6c4:	4201                	li	tp,0
     6c6:	0ff010b7          	lui	ra,0xff01
     6ca:	ff008093          	addi	ra,ra,-16 # ff00ff0 <_sp+0xfeefd10>
     6ce:	0001                	nop
     6d0:	f0f0f137          	lui	sp,0xf0f0f
     6d4:	0f010113          	addi	sp,sp,240 # f0f0f0f0 <pulp__FC+0xf0f0f0f1>
     6d8:	0001                	nop
     6da:	0020e1b3          	or	gp,ra,sp
     6de:	0205                	addi	tp,tp,1
     6e0:	4289                	li	t0,2
     6e2:	fe5212e3          	bne	tp,t0,6c6 <test_16+0x2>
     6e6:	fff10eb7          	lui	t4,0xfff10
     6ea:	ff0e8e93          	addi	t4,t4,-16 # fff0fff0 <pulp__FC+0xfff0fff1>
     6ee:	4e41                	li	t3,16
     6f0:	1bd19663          	bne	gp,t4,89c <fail>

000006f4 <test_17>:
     6f4:	4201                	li	tp,0
     6f6:	00ff00b7          	lui	ra,0xff0
     6fa:	0ff08093          	addi	ra,ra,255 # ff00ff <_sp+0xfdee1f>
     6fe:	0001                	nop
     700:	0001                	nop
     702:	0f0f1137          	lui	sp,0xf0f1
     706:	f0f10113          	addi	sp,sp,-241 # f0f0f0f <_sp+0xf0dfc2f>
     70a:	0020e1b3          	or	gp,ra,sp
     70e:	0205                	addi	tp,tp,1
     710:	4289                	li	t0,2
     712:	fe5212e3          	bne	tp,t0,6f6 <test_17+0x2>
     716:	0fff1eb7          	lui	t4,0xfff1
     71a:	fffe8e93          	addi	t4,t4,-1 # fff0fff <_sp+0xffdfd1f>
     71e:	4e45                	li	t3,17
     720:	17d19e63          	bne	gp,t4,89c <fail>

00000724 <test_18>:
     724:	4201                	li	tp,0
     726:	0f0f1137          	lui	sp,0xf0f1
     72a:	f0f10113          	addi	sp,sp,-241 # f0f0f0f <_sp+0xf0dfc2f>
     72e:	ff0100b7          	lui	ra,0xff010
     732:	f0008093          	addi	ra,ra,-256 # ff00ff00 <pulp__FC+0xff00ff01>
     736:	0020e1b3          	or	gp,ra,sp
     73a:	0205                	addi	tp,tp,1
     73c:	4289                	li	t0,2
     73e:	fe5214e3          	bne	tp,t0,726 <test_18+0x2>
     742:	ff100eb7          	lui	t4,0xff100
     746:	f0fe8e93          	addi	t4,t4,-241 # ff0fff0f <pulp__FC+0xff0fff10>
     74a:	4e49                	li	t3,18
     74c:	15d19863          	bne	gp,t4,89c <fail>

00000750 <test_19>:
     750:	4201                	li	tp,0
     752:	f0f0f137          	lui	sp,0xf0f0f
     756:	0f010113          	addi	sp,sp,240 # f0f0f0f0 <pulp__FC+0xf0f0f0f1>
     75a:	0ff010b7          	lui	ra,0xff01
     75e:	ff008093          	addi	ra,ra,-16 # ff00ff0 <_sp+0xfeefd10>
     762:	0001                	nop
     764:	0020e1b3          	or	gp,ra,sp
     768:	0205                	addi	tp,tp,1
     76a:	4289                	li	t0,2
     76c:	fe5213e3          	bne	tp,t0,752 <test_19+0x2>
     770:	fff10eb7          	lui	t4,0xfff10
     774:	ff0e8e93          	addi	t4,t4,-16 # fff0fff0 <pulp__FC+0xfff0fff1>
     778:	4e4d                	li	t3,19
     77a:	13d19163          	bne	gp,t4,89c <fail>

0000077e <test_20>:
     77e:	4201                	li	tp,0
     780:	0f0f1137          	lui	sp,0xf0f1
     784:	f0f10113          	addi	sp,sp,-241 # f0f0f0f <_sp+0xf0dfc2f>
     788:	00ff00b7          	lui	ra,0xff0
     78c:	0ff08093          	addi	ra,ra,255 # ff00ff <_sp+0xfdee1f>
     790:	0001                	nop
     792:	0001                	nop
     794:	0020e1b3          	or	gp,ra,sp
     798:	0205                	addi	tp,tp,1
     79a:	4289                	li	t0,2
     79c:	fe5212e3          	bne	tp,t0,780 <test_20+0x2>
     7a0:	0fff1eb7          	lui	t4,0xfff1
     7a4:	fffe8e93          	addi	t4,t4,-1 # fff0fff <_sp+0xffdfd1f>
     7a8:	4e51                	li	t3,20
     7aa:	0fd19963          	bne	gp,t4,89c <fail>

000007ae <test_21>:
     7ae:	4201                	li	tp,0
     7b0:	0f0f1137          	lui	sp,0xf0f1
     7b4:	f0f10113          	addi	sp,sp,-241 # f0f0f0f <_sp+0xf0dfc2f>
     7b8:	0001                	nop
     7ba:	ff0100b7          	lui	ra,0xff010
     7be:	f0008093          	addi	ra,ra,-256 # ff00ff00 <pulp__FC+0xff00ff01>
     7c2:	0020e1b3          	or	gp,ra,sp
     7c6:	0205                	addi	tp,tp,1
     7c8:	4289                	li	t0,2
     7ca:	fe5213e3          	bne	tp,t0,7b0 <test_21+0x2>
     7ce:	ff100eb7          	lui	t4,0xff100
     7d2:	f0fe8e93          	addi	t4,t4,-241 # ff0fff0f <pulp__FC+0xff0fff10>
     7d6:	4e55                	li	t3,21
     7d8:	0dd19263          	bne	gp,t4,89c <fail>

000007dc <test_22>:
     7dc:	4201                	li	tp,0
     7de:	f0f0f137          	lui	sp,0xf0f0f
     7e2:	0f010113          	addi	sp,sp,240 # f0f0f0f0 <pulp__FC+0xf0f0f0f1>
     7e6:	0001                	nop
     7e8:	0ff010b7          	lui	ra,0xff01
     7ec:	ff008093          	addi	ra,ra,-16 # ff00ff0 <_sp+0xfeefd10>
     7f0:	0001                	nop
     7f2:	0020e1b3          	or	gp,ra,sp
     7f6:	0205                	addi	tp,tp,1
     7f8:	4289                	li	t0,2
     7fa:	fe5212e3          	bne	tp,t0,7de <test_22+0x2>
     7fe:	fff10eb7          	lui	t4,0xfff10
     802:	ff0e8e93          	addi	t4,t4,-16 # fff0fff0 <pulp__FC+0xfff0fff1>
     806:	4e59                	li	t3,22
     808:	09d19a63          	bne	gp,t4,89c <fail>

0000080c <test_23>:
     80c:	4201                	li	tp,0
     80e:	0f0f1137          	lui	sp,0xf0f1
     812:	f0f10113          	addi	sp,sp,-241 # f0f0f0f <_sp+0xf0dfc2f>
     816:	0001                	nop
     818:	0001                	nop
     81a:	00ff00b7          	lui	ra,0xff0
     81e:	0ff08093          	addi	ra,ra,255 # ff00ff <_sp+0xfdee1f>
     822:	0020e1b3          	or	gp,ra,sp
     826:	0205                	addi	tp,tp,1
     828:	4289                	li	t0,2
     82a:	fe5212e3          	bne	tp,t0,80e <test_23+0x2>
     82e:	0fff1eb7          	lui	t4,0xfff1
     832:	fffe8e93          	addi	t4,t4,-1 # fff0fff <_sp+0xffdfd1f>
     836:	4e5d                	li	t3,23
     838:	07d19263          	bne	gp,t4,89c <fail>

0000083c <test_24>:
     83c:	ff0100b7          	lui	ra,0xff010
     840:	f0008093          	addi	ra,ra,-256 # ff00ff00 <pulp__FC+0xff00ff01>
     844:	00106133          	or	sp,zero,ra
     848:	ff010eb7          	lui	t4,0xff010
     84c:	f00e8e93          	addi	t4,t4,-256 # ff00ff00 <pulp__FC+0xff00ff01>
     850:	4e61                	li	t3,24
     852:	05d11563          	bne	sp,t4,89c <fail>

00000856 <test_25>:
     856:	00ff00b7          	lui	ra,0xff0
     85a:	0ff08093          	addi	ra,ra,255 # ff00ff <_sp+0xfdee1f>
     85e:	0000e133          	or	sp,ra,zero
     862:	00ff0eb7          	lui	t4,0xff0
     866:	0ffe8e93          	addi	t4,t4,255 # ff00ff <_sp+0xfdee1f>
     86a:	4e65                	li	t3,25
     86c:	03d11863          	bne	sp,t4,89c <fail>

00000870 <test_26>:
     870:	000060b3          	or	ra,zero,zero
     874:	4e81                	li	t4,0
     876:	4e69                	li	t3,26
     878:	03d09263          	bne	ra,t4,89c <fail>

0000087c <test_27>:
     87c:	111110b7          	lui	ra,0x11111
     880:	11108093          	addi	ra,ra,273 # 11111111 <_sp+0x110ffe31>
     884:	22222137          	lui	sp,0x22222
     888:	22210113          	addi	sp,sp,546 # 22222222 <_sp+0x22210f42>
     88c:	0020e033          	or	zero,ra,sp
     890:	4e81                	li	t4,0
     892:	4e6d                	li	t3,27
     894:	01d01463          	bne	zero,t4,89c <fail>
     898:	03c01563          	bne	zero,t3,8c2 <pass>

0000089c <fail>:
     89c:	10010537          	lui	a0,0x10010
     8a0:	00450513          	addi	a0,a0,4 # 10010004 <_sp+0xfffed24>
     8a4:	04500593          	li	a1,69
     8a8:	05200613          	li	a2,82
     8ac:	04f00693          	li	a3,79
     8b0:	00a00713          	li	a4,10
     8b4:	c10c                	sw	a1,0(a0)
     8b6:	c110                	sw	a2,0(a0)
     8b8:	c110                	sw	a2,0(a0)
     8ba:	c114                	sw	a3,0(a0)
     8bc:	c110                	sw	a2,0(a0)
     8be:	c118                	sw	a4,0(a0)
     8c0:	9002                	ebreak

000008c2 <pass>:
     8c2:	10010537          	lui	a0,0x10010
     8c6:	00450513          	addi	a0,a0,4 # 10010004 <_sp+0xfffed24>
     8ca:	04f00593          	li	a1,79
     8ce:	04b00613          	li	a2,75
     8d2:	00a00693          	li	a3,10
     8d6:	c10c                	sw	a1,0(a0)
     8d8:	c110                	sw	a2,0(a0)
     8da:	c114                	sw	a3,0(a0)
     8dc:	000f0113          	mv	sp,t5
     8e0:	ffc12183          	lw	gp,-4(sp)
     8e4:	ff812083          	lw	ra,-8(sp)
     8e8:	a0fff06f          	j	2f6 <or_ret>

000008ec <xor>:
     8ec:	00010f13          	mv	t5,sp
     8f0:	fe312e23          	sw	gp,-4(sp)
     8f4:	fe112c23          	sw	ra,-8(sp)
     8f8:	6541                	lui	a0,0x10
     8fa:	12050513          	addi	a0,a0,288 # 10120 <xor_data>
     8fe:	10010637          	lui	a2,0x10010
     902:	00460613          	addi	a2,a2,4 # 10010004 <_sp+0xfffed24>

00000906 <.prname_next>:
     906:	00050583          	lb	a1,0(a0)
     90a:	00058663          	beqz	a1,916 <.prname_done>
     90e:	c20c                	sw	a1,0(a2)
     910:	0505                	addi	a0,a0,1
     912:	ff5ff06f          	j	906 <.prname_next>

00000916 <.prname_done>:
     916:	02e00593          	li	a1,46
     91a:	c20c                	sw	a1,0(a2)
     91c:	c20c                	sw	a1,0(a2)

0000091e <test_2>:
     91e:	ff0100b7          	lui	ra,0xff010
     922:	f0008093          	addi	ra,ra,-256 # ff00ff00 <pulp__FC+0xff00ff01>
     926:	0f0f1137          	lui	sp,0xf0f1
     92a:	f0f10113          	addi	sp,sp,-241 # f0f0f0f <_sp+0xf0dfc2f>
     92e:	0020c1b3          	xor	gp,ra,sp
     932:	f00ffeb7          	lui	t4,0xf00ff
     936:	00fe8e93          	addi	t4,t4,15 # f00ff00f <pulp__FC+0xf00ff010>
     93a:	4e09                	li	t3,2
     93c:	3fd19463          	bne	gp,t4,d24 <fail>

00000940 <test_3>:
     940:	0ff010b7          	lui	ra,0xff01
     944:	ff008093          	addi	ra,ra,-16 # ff00ff0 <_sp+0xfeefd10>
     948:	f0f0f137          	lui	sp,0xf0f0f
     94c:	0f010113          	addi	sp,sp,240 # f0f0f0f0 <pulp__FC+0xf0f0f0f1>
     950:	0020c1b3          	xor	gp,ra,sp
     954:	ff010eb7          	lui	t4,0xff010
     958:	f00e8e93          	addi	t4,t4,-256 # ff00ff00 <pulp__FC+0xff00ff01>
     95c:	4e0d                	li	t3,3
     95e:	3dd19363          	bne	gp,t4,d24 <fail>

00000962 <test_4>:
     962:	00ff00b7          	lui	ra,0xff0
     966:	0ff08093          	addi	ra,ra,255 # ff00ff <_sp+0xfdee1f>
     96a:	0f0f1137          	lui	sp,0xf0f1
     96e:	f0f10113          	addi	sp,sp,-241 # f0f0f0f <_sp+0xf0dfc2f>
     972:	0020c1b3          	xor	gp,ra,sp
     976:	0ff01eb7          	lui	t4,0xff01
     97a:	ff0e8e93          	addi	t4,t4,-16 # ff00ff0 <_sp+0xfeefd10>
     97e:	4e11                	li	t3,4
     980:	3bd19263          	bne	gp,t4,d24 <fail>

00000984 <test_5>:
     984:	f00ff0b7          	lui	ra,0xf00ff
     988:	00f08093          	addi	ra,ra,15 # f00ff00f <pulp__FC+0xf00ff010>
     98c:	f0f0f137          	lui	sp,0xf0f0f
     990:	0f010113          	addi	sp,sp,240 # f0f0f0f0 <pulp__FC+0xf0f0f0f1>
     994:	0020c1b3          	xor	gp,ra,sp
     998:	00ff0eb7          	lui	t4,0xff0
     99c:	0ffe8e93          	addi	t4,t4,255 # ff00ff <_sp+0xfdee1f>
     9a0:	4e15                	li	t3,5
     9a2:	39d19163          	bne	gp,t4,d24 <fail>

000009a6 <test_6>:
     9a6:	ff0100b7          	lui	ra,0xff010
     9aa:	f0008093          	addi	ra,ra,-256 # ff00ff00 <pulp__FC+0xff00ff01>
     9ae:	0f0f1137          	lui	sp,0xf0f1
     9b2:	f0f10113          	addi	sp,sp,-241 # f0f0f0f <_sp+0xf0dfc2f>
     9b6:	0020c0b3          	xor	ra,ra,sp
     9ba:	f00ffeb7          	lui	t4,0xf00ff
     9be:	00fe8e93          	addi	t4,t4,15 # f00ff00f <pulp__FC+0xf00ff010>
     9c2:	4e19                	li	t3,6
     9c4:	37d09063          	bne	ra,t4,d24 <fail>

000009c8 <test_7>:
     9c8:	ff0100b7          	lui	ra,0xff010
     9cc:	f0008093          	addi	ra,ra,-256 # ff00ff00 <pulp__FC+0xff00ff01>
     9d0:	0f0f1137          	lui	sp,0xf0f1
     9d4:	f0f10113          	addi	sp,sp,-241 # f0f0f0f <_sp+0xf0dfc2f>
     9d8:	0020c133          	xor	sp,ra,sp
     9dc:	f00ffeb7          	lui	t4,0xf00ff
     9e0:	00fe8e93          	addi	t4,t4,15 # f00ff00f <pulp__FC+0xf00ff010>
     9e4:	4e1d                	li	t3,7
     9e6:	33d11f63          	bne	sp,t4,d24 <fail>

000009ea <test_8>:
     9ea:	ff0100b7          	lui	ra,0xff010
     9ee:	f0008093          	addi	ra,ra,-256 # ff00ff00 <pulp__FC+0xff00ff01>
     9f2:	0010c0b3          	xor	ra,ra,ra
     9f6:	4e81                	li	t4,0
     9f8:	4e21                	li	t3,8
     9fa:	33d09563          	bne	ra,t4,d24 <fail>

000009fe <test_9>:
     9fe:	4201                	li	tp,0
     a00:	ff0100b7          	lui	ra,0xff010
     a04:	f0008093          	addi	ra,ra,-256 # ff00ff00 <pulp__FC+0xff00ff01>
     a08:	0f0f1137          	lui	sp,0xf0f1
     a0c:	f0f10113          	addi	sp,sp,-241 # f0f0f0f <_sp+0xf0dfc2f>
     a10:	0020c1b3          	xor	gp,ra,sp
     a14:	00018313          	mv	t1,gp
     a18:	0205                	addi	tp,tp,1
     a1a:	4289                	li	t0,2
     a1c:	fe5212e3          	bne	tp,t0,a00 <test_9+0x2>
     a20:	f00ffeb7          	lui	t4,0xf00ff
     a24:	00fe8e93          	addi	t4,t4,15 # f00ff00f <pulp__FC+0xf00ff010>
     a28:	4e25                	li	t3,9
     a2a:	2fd31d63          	bne	t1,t4,d24 <fail>

00000a2e <test_10>:
     a2e:	4201                	li	tp,0
     a30:	0ff010b7          	lui	ra,0xff01
     a34:	ff008093          	addi	ra,ra,-16 # ff00ff0 <_sp+0xfeefd10>
     a38:	f0f0f137          	lui	sp,0xf0f0f
     a3c:	0f010113          	addi	sp,sp,240 # f0f0f0f0 <pulp__FC+0xf0f0f0f1>
     a40:	0020c1b3          	xor	gp,ra,sp
     a44:	0001                	nop
     a46:	00018313          	mv	t1,gp
     a4a:	0205                	addi	tp,tp,1
     a4c:	4289                	li	t0,2
     a4e:	fe5211e3          	bne	tp,t0,a30 <test_10+0x2>
     a52:	ff010eb7          	lui	t4,0xff010
     a56:	f00e8e93          	addi	t4,t4,-256 # ff00ff00 <pulp__FC+0xff00ff01>
     a5a:	4e29                	li	t3,10
     a5c:	2dd31463          	bne	t1,t4,d24 <fail>

00000a60 <test_11>:
     a60:	4201                	li	tp,0
     a62:	00ff00b7          	lui	ra,0xff0
     a66:	0ff08093          	addi	ra,ra,255 # ff00ff <_sp+0xfdee1f>
     a6a:	0f0f1137          	lui	sp,0xf0f1
     a6e:	f0f10113          	addi	sp,sp,-241 # f0f0f0f <_sp+0xf0dfc2f>
     a72:	0020c1b3          	xor	gp,ra,sp
     a76:	0001                	nop
     a78:	0001                	nop
     a7a:	00018313          	mv	t1,gp
     a7e:	0205                	addi	tp,tp,1
     a80:	4289                	li	t0,2
     a82:	fe5210e3          	bne	tp,t0,a62 <test_11+0x2>
     a86:	0ff01eb7          	lui	t4,0xff01
     a8a:	ff0e8e93          	addi	t4,t4,-16 # ff00ff0 <_sp+0xfeefd10>
     a8e:	4e2d                	li	t3,11
     a90:	29d31a63          	bne	t1,t4,d24 <fail>

00000a94 <test_12>:
     a94:	4201                	li	tp,0
     a96:	ff0100b7          	lui	ra,0xff010
     a9a:	f0008093          	addi	ra,ra,-256 # ff00ff00 <pulp__FC+0xff00ff01>
     a9e:	0f0f1137          	lui	sp,0xf0f1
     aa2:	f0f10113          	addi	sp,sp,-241 # f0f0f0f <_sp+0xf0dfc2f>
     aa6:	0020c1b3          	xor	gp,ra,sp
     aaa:	0205                	addi	tp,tp,1
     aac:	4289                	li	t0,2
     aae:	fe5214e3          	bne	tp,t0,a96 <test_12+0x2>
     ab2:	f00ffeb7          	lui	t4,0xf00ff
     ab6:	00fe8e93          	addi	t4,t4,15 # f00ff00f <pulp__FC+0xf00ff010>
     aba:	4e31                	li	t3,12
     abc:	27d19463          	bne	gp,t4,d24 <fail>

00000ac0 <test_13>:
     ac0:	4201                	li	tp,0
     ac2:	0ff010b7          	lui	ra,0xff01
     ac6:	ff008093          	addi	ra,ra,-16 # ff00ff0 <_sp+0xfeefd10>
     aca:	f0f0f137          	lui	sp,0xf0f0f
     ace:	0f010113          	addi	sp,sp,240 # f0f0f0f0 <pulp__FC+0xf0f0f0f1>
     ad2:	0001                	nop
     ad4:	0020c1b3          	xor	gp,ra,sp
     ad8:	0205                	addi	tp,tp,1
     ada:	4289                	li	t0,2
     adc:	fe5213e3          	bne	tp,t0,ac2 <test_13+0x2>
     ae0:	ff010eb7          	lui	t4,0xff010
     ae4:	f00e8e93          	addi	t4,t4,-256 # ff00ff00 <pulp__FC+0xff00ff01>
     ae8:	4e35                	li	t3,13
     aea:	23d19d63          	bne	gp,t4,d24 <fail>

00000aee <test_14>:
     aee:	4201                	li	tp,0
     af0:	00ff00b7          	lui	ra,0xff0
     af4:	0ff08093          	addi	ra,ra,255 # ff00ff <_sp+0xfdee1f>
     af8:	0f0f1137          	lui	sp,0xf0f1
     afc:	f0f10113          	addi	sp,sp,-241 # f0f0f0f <_sp+0xf0dfc2f>
     b00:	0001                	nop
     b02:	0001                	nop
     b04:	0020c1b3          	xor	gp,ra,sp
     b08:	0205                	addi	tp,tp,1
     b0a:	4289                	li	t0,2
     b0c:	fe5212e3          	bne	tp,t0,af0 <test_14+0x2>
     b10:	0ff01eb7          	lui	t4,0xff01
     b14:	ff0e8e93          	addi	t4,t4,-16 # ff00ff0 <_sp+0xfeefd10>
     b18:	4e39                	li	t3,14
     b1a:	21d19563          	bne	gp,t4,d24 <fail>

00000b1e <test_15>:
     b1e:	4201                	li	tp,0
     b20:	ff0100b7          	lui	ra,0xff010
     b24:	f0008093          	addi	ra,ra,-256 # ff00ff00 <pulp__FC+0xff00ff01>
     b28:	0001                	nop
     b2a:	0f0f1137          	lui	sp,0xf0f1
     b2e:	f0f10113          	addi	sp,sp,-241 # f0f0f0f <_sp+0xf0dfc2f>
     b32:	0020c1b3          	xor	gp,ra,sp
     b36:	0205                	addi	tp,tp,1
     b38:	4289                	li	t0,2
     b3a:	fe5213e3          	bne	tp,t0,b20 <test_15+0x2>
     b3e:	f00ffeb7          	lui	t4,0xf00ff
     b42:	00fe8e93          	addi	t4,t4,15 # f00ff00f <pulp__FC+0xf00ff010>
     b46:	4e3d                	li	t3,15
     b48:	1dd19e63          	bne	gp,t4,d24 <fail>

00000b4c <test_16>:
     b4c:	4201                	li	tp,0
     b4e:	0ff010b7          	lui	ra,0xff01
     b52:	ff008093          	addi	ra,ra,-16 # ff00ff0 <_sp+0xfeefd10>
     b56:	0001                	nop
     b58:	f0f0f137          	lui	sp,0xf0f0f
     b5c:	0f010113          	addi	sp,sp,240 # f0f0f0f0 <pulp__FC+0xf0f0f0f1>
     b60:	0001                	nop
     b62:	0020c1b3          	xor	gp,ra,sp
     b66:	0205                	addi	tp,tp,1
     b68:	4289                	li	t0,2
     b6a:	fe5212e3          	bne	tp,t0,b4e <test_16+0x2>
     b6e:	ff010eb7          	lui	t4,0xff010
     b72:	f00e8e93          	addi	t4,t4,-256 # ff00ff00 <pulp__FC+0xff00ff01>
     b76:	4e41                	li	t3,16
     b78:	1bd19663          	bne	gp,t4,d24 <fail>

00000b7c <test_17>:
     b7c:	4201                	li	tp,0
     b7e:	00ff00b7          	lui	ra,0xff0
     b82:	0ff08093          	addi	ra,ra,255 # ff00ff <_sp+0xfdee1f>
     b86:	0001                	nop
     b88:	0001                	nop
     b8a:	0f0f1137          	lui	sp,0xf0f1
     b8e:	f0f10113          	addi	sp,sp,-241 # f0f0f0f <_sp+0xf0dfc2f>
     b92:	0020c1b3          	xor	gp,ra,sp
     b96:	0205                	addi	tp,tp,1
     b98:	4289                	li	t0,2
     b9a:	fe5212e3          	bne	tp,t0,b7e <test_17+0x2>
     b9e:	0ff01eb7          	lui	t4,0xff01
     ba2:	ff0e8e93          	addi	t4,t4,-16 # ff00ff0 <_sp+0xfeefd10>
     ba6:	4e45                	li	t3,17
     ba8:	17d19e63          	bne	gp,t4,d24 <fail>

00000bac <test_18>:
     bac:	4201                	li	tp,0
     bae:	0f0f1137          	lui	sp,0xf0f1
     bb2:	f0f10113          	addi	sp,sp,-241 # f0f0f0f <_sp+0xf0dfc2f>
     bb6:	ff0100b7          	lui	ra,0xff010
     bba:	f0008093          	addi	ra,ra,-256 # ff00ff00 <pulp__FC+0xff00ff01>
     bbe:	0020c1b3          	xor	gp,ra,sp
     bc2:	0205                	addi	tp,tp,1
     bc4:	4289                	li	t0,2
     bc6:	fe5214e3          	bne	tp,t0,bae <test_18+0x2>
     bca:	f00ffeb7          	lui	t4,0xf00ff
     bce:	00fe8e93          	addi	t4,t4,15 # f00ff00f <pulp__FC+0xf00ff010>
     bd2:	4e49                	li	t3,18
     bd4:	15d19863          	bne	gp,t4,d24 <fail>

00000bd8 <test_19>:
     bd8:	4201                	li	tp,0
     bda:	f0f0f137          	lui	sp,0xf0f0f
     bde:	0f010113          	addi	sp,sp,240 # f0f0f0f0 <pulp__FC+0xf0f0f0f1>
     be2:	0ff010b7          	lui	ra,0xff01
     be6:	ff008093          	addi	ra,ra,-16 # ff00ff0 <_sp+0xfeefd10>
     bea:	0001                	nop
     bec:	0020c1b3          	xor	gp,ra,sp
     bf0:	0205                	addi	tp,tp,1
     bf2:	4289                	li	t0,2
     bf4:	fe5213e3          	bne	tp,t0,bda <test_19+0x2>
     bf8:	ff010eb7          	lui	t4,0xff010
     bfc:	f00e8e93          	addi	t4,t4,-256 # ff00ff00 <pulp__FC+0xff00ff01>
     c00:	4e4d                	li	t3,19
     c02:	13d19163          	bne	gp,t4,d24 <fail>

00000c06 <test_20>:
     c06:	4201                	li	tp,0
     c08:	0f0f1137          	lui	sp,0xf0f1
     c0c:	f0f10113          	addi	sp,sp,-241 # f0f0f0f <_sp+0xf0dfc2f>
     c10:	00ff00b7          	lui	ra,0xff0
     c14:	0ff08093          	addi	ra,ra,255 # ff00ff <_sp+0xfdee1f>
     c18:	0001                	nop
     c1a:	0001                	nop
     c1c:	0020c1b3          	xor	gp,ra,sp
     c20:	0205                	addi	tp,tp,1
     c22:	4289                	li	t0,2
     c24:	fe5212e3          	bne	tp,t0,c08 <test_20+0x2>
     c28:	0ff01eb7          	lui	t4,0xff01
     c2c:	ff0e8e93          	addi	t4,t4,-16 # ff00ff0 <_sp+0xfeefd10>
     c30:	4e51                	li	t3,20
     c32:	0fd19963          	bne	gp,t4,d24 <fail>

00000c36 <test_21>:
     c36:	4201                	li	tp,0
     c38:	0f0f1137          	lui	sp,0xf0f1
     c3c:	f0f10113          	addi	sp,sp,-241 # f0f0f0f <_sp+0xf0dfc2f>
     c40:	0001                	nop
     c42:	ff0100b7          	lui	ra,0xff010
     c46:	f0008093          	addi	ra,ra,-256 # ff00ff00 <pulp__FC+0xff00ff01>
     c4a:	0020c1b3          	xor	gp,ra,sp
     c4e:	0205                	addi	tp,tp,1
     c50:	4289                	li	t0,2
     c52:	fe5213e3          	bne	tp,t0,c38 <test_21+0x2>
     c56:	f00ffeb7          	lui	t4,0xf00ff
     c5a:	00fe8e93          	addi	t4,t4,15 # f00ff00f <pulp__FC+0xf00ff010>
     c5e:	4e55                	li	t3,21
     c60:	0dd19263          	bne	gp,t4,d24 <fail>

00000c64 <test_22>:
     c64:	4201                	li	tp,0
     c66:	f0f0f137          	lui	sp,0xf0f0f
     c6a:	0f010113          	addi	sp,sp,240 # f0f0f0f0 <pulp__FC+0xf0f0f0f1>
     c6e:	0001                	nop
     c70:	0ff010b7          	lui	ra,0xff01
     c74:	ff008093          	addi	ra,ra,-16 # ff00ff0 <_sp+0xfeefd10>
     c78:	0001                	nop
     c7a:	0020c1b3          	xor	gp,ra,sp
     c7e:	0205                	addi	tp,tp,1
     c80:	4289                	li	t0,2
     c82:	fe5212e3          	bne	tp,t0,c66 <test_22+0x2>
     c86:	ff010eb7          	lui	t4,0xff010
     c8a:	f00e8e93          	addi	t4,t4,-256 # ff00ff00 <pulp__FC+0xff00ff01>
     c8e:	4e59                	li	t3,22
     c90:	09d19a63          	bne	gp,t4,d24 <fail>

00000c94 <test_23>:
     c94:	4201                	li	tp,0
     c96:	0f0f1137          	lui	sp,0xf0f1
     c9a:	f0f10113          	addi	sp,sp,-241 # f0f0f0f <_sp+0xf0dfc2f>
     c9e:	0001                	nop
     ca0:	0001                	nop
     ca2:	00ff00b7          	lui	ra,0xff0
     ca6:	0ff08093          	addi	ra,ra,255 # ff00ff <_sp+0xfdee1f>
     caa:	0020c1b3          	xor	gp,ra,sp
     cae:	0205                	addi	tp,tp,1
     cb0:	4289                	li	t0,2
     cb2:	fe5212e3          	bne	tp,t0,c96 <test_23+0x2>
     cb6:	0ff01eb7          	lui	t4,0xff01
     cba:	ff0e8e93          	addi	t4,t4,-16 # ff00ff0 <_sp+0xfeefd10>
     cbe:	4e5d                	li	t3,23
     cc0:	07d19263          	bne	gp,t4,d24 <fail>

00000cc4 <test_24>:
     cc4:	ff0100b7          	lui	ra,0xff010
     cc8:	f0008093          	addi	ra,ra,-256 # ff00ff00 <pulp__FC+0xff00ff01>
     ccc:	00104133          	xor	sp,zero,ra
     cd0:	ff010eb7          	lui	t4,0xff010
     cd4:	f00e8e93          	addi	t4,t4,-256 # ff00ff00 <pulp__FC+0xff00ff01>
     cd8:	4e61                	li	t3,24
     cda:	05d11563          	bne	sp,t4,d24 <fail>

00000cde <test_25>:
     cde:	00ff00b7          	lui	ra,0xff0
     ce2:	0ff08093          	addi	ra,ra,255 # ff00ff <_sp+0xfdee1f>
     ce6:	0000c133          	xor	sp,ra,zero
     cea:	00ff0eb7          	lui	t4,0xff0
     cee:	0ffe8e93          	addi	t4,t4,255 # ff00ff <_sp+0xfdee1f>
     cf2:	4e65                	li	t3,25
     cf4:	03d11863          	bne	sp,t4,d24 <fail>

00000cf8 <test_26>:
     cf8:	000040b3          	xor	ra,zero,zero
     cfc:	4e81                	li	t4,0
     cfe:	4e69                	li	t3,26
     d00:	03d09263          	bne	ra,t4,d24 <fail>

00000d04 <test_27>:
     d04:	111110b7          	lui	ra,0x11111
     d08:	11108093          	addi	ra,ra,273 # 11111111 <_sp+0x110ffe31>
     d0c:	22222137          	lui	sp,0x22222
     d10:	22210113          	addi	sp,sp,546 # 22222222 <_sp+0x22210f42>
     d14:	0020c033          	xor	zero,ra,sp
     d18:	4e81                	li	t4,0
     d1a:	4e6d                	li	t3,27
     d1c:	01d01463          	bne	zero,t4,d24 <fail>
     d20:	03c01563          	bne	zero,t3,d4a <pass>

00000d24 <fail>:
     d24:	10010537          	lui	a0,0x10010
     d28:	00450513          	addi	a0,a0,4 # 10010004 <_sp+0xfffed24>
     d2c:	04500593          	li	a1,69
     d30:	05200613          	li	a2,82
     d34:	04f00693          	li	a3,79
     d38:	00a00713          	li	a4,10
     d3c:	c10c                	sw	a1,0(a0)
     d3e:	c110                	sw	a2,0(a0)
     d40:	c110                	sw	a2,0(a0)
     d42:	c114                	sw	a3,0(a0)
     d44:	c110                	sw	a2,0(a0)
     d46:	c118                	sw	a4,0(a0)
     d48:	9002                	ebreak

00000d4a <pass>:
     d4a:	10010537          	lui	a0,0x10010
     d4e:	00450513          	addi	a0,a0,4 # 10010004 <_sp+0xfffed24>
     d52:	04f00593          	li	a1,79
     d56:	04b00613          	li	a2,75
     d5a:	00a00693          	li	a3,10
     d5e:	c10c                	sw	a1,0(a0)
     d60:	c110                	sw	a2,0(a0)
     d62:	c114                	sw	a3,0(a0)
     d64:	000f0113          	mv	sp,t5
     d68:	ffc12183          	lw	gp,-4(sp)
     d6c:	ff812083          	lw	ra,-8(sp)
     d70:	d6eff06f          	j	2de <xor_ret>

00000d74 <sh>:
     d74:	00010f13          	mv	t5,sp
     d78:	fe312e23          	sw	gp,-4(sp)
     d7c:	fe112c23          	sw	ra,-8(sp)
     d80:	6541                	lui	a0,0x10
     d82:	12450513          	addi	a0,a0,292 # 10124 <sh_data>
     d86:	10010637          	lui	a2,0x10010
     d8a:	00460613          	addi	a2,a2,4 # 10010004 <_sp+0xfffed24>

00000d8e <.prname_next>:
     d8e:	00050583          	lb	a1,0(a0)
     d92:	00058663          	beqz	a1,d9e <.prname_done>
     d96:	c20c                	sw	a1,0(a2)
     d98:	0505                	addi	a0,a0,1
     d9a:	ff5ff06f          	j	d8e <.prname_next>

00000d9e <.prname_done>:
     d9e:	02e00593          	li	a1,46
     da2:	c20c                	sw	a1,0(a2)
     da4:	c20c                	sw	a1,0(a2)

00000da6 <test_2>:
     da6:	0000f097          	auipc	ra,0xf
     daa:	38208093          	addi	ra,ra,898 # 10128 <tdat>
     dae:	0aa00113          	li	sp,170
     db2:	00209023          	sh	sp,0(ra)
     db6:	00009183          	lh	gp,0(ra)
     dba:	0aa00e93          	li	t4,170
     dbe:	4e09                	li	t3,2
     dc0:	3dd19263          	bne	gp,t4,1184 <fail>

00000dc4 <test_3>:
     dc4:	0000f097          	auipc	ra,0xf
     dc8:	36408093          	addi	ra,ra,868 # 10128 <tdat>
     dcc:	ffffb137          	lui	sp,0xffffb
     dd0:	a0010113          	addi	sp,sp,-1536 # ffffaa00 <pulp__FC+0xffffaa01>
     dd4:	00209123          	sh	sp,2(ra)
     dd8:	00209183          	lh	gp,2(ra)
     ddc:	ffffbeb7          	lui	t4,0xffffb
     de0:	a00e8e93          	addi	t4,t4,-1536 # ffffaa00 <pulp__FC+0xffffaa01>
     de4:	4e0d                	li	t3,3
     de6:	39d19f63          	bne	gp,t4,1184 <fail>

00000dea <test_4>:
     dea:	0000f097          	auipc	ra,0xf
     dee:	33e08093          	addi	ra,ra,830 # 10128 <tdat>
     df2:	beef1137          	lui	sp,0xbeef1
     df6:	aa010113          	addi	sp,sp,-1376 # beef0aa0 <pulp__FC+0xbeef0aa1>
     dfa:	00209223          	sh	sp,4(ra)
     dfe:	0040a183          	lw	gp,4(ra)
     e02:	beef1eb7          	lui	t4,0xbeef1
     e06:	aa0e8e93          	addi	t4,t4,-1376 # beef0aa0 <pulp__FC+0xbeef0aa1>
     e0a:	4e11                	li	t3,4
     e0c:	37d19c63          	bne	gp,t4,1184 <fail>

00000e10 <test_5>:
     e10:	0000f097          	auipc	ra,0xf
     e14:	31808093          	addi	ra,ra,792 # 10128 <tdat>
     e18:	ffffa137          	lui	sp,0xffffa
     e1c:	00a10113          	addi	sp,sp,10 # ffffa00a <pulp__FC+0xffffa00b>
     e20:	00209323          	sh	sp,6(ra)
     e24:	00609183          	lh	gp,6(ra)
     e28:	ffffaeb7          	lui	t4,0xffffa
     e2c:	00ae8e93          	addi	t4,t4,10 # ffffa00a <pulp__FC+0xffffa00b>
     e30:	4e15                	li	t3,5
     e32:	35d19963          	bne	gp,t4,1184 <fail>

00000e36 <test_6>:
     e36:	0000f097          	auipc	ra,0xf
     e3a:	30008093          	addi	ra,ra,768 # 10136 <tdat8>
     e3e:	0aa00113          	li	sp,170
     e42:	fe209d23          	sh	sp,-6(ra)
     e46:	ffa09183          	lh	gp,-6(ra)
     e4a:	0aa00e93          	li	t4,170
     e4e:	4e19                	li	t3,6
     e50:	33d19a63          	bne	gp,t4,1184 <fail>

00000e54 <test_7>:
     e54:	0000f097          	auipc	ra,0xf
     e58:	2e208093          	addi	ra,ra,738 # 10136 <tdat8>
     e5c:	ffffb137          	lui	sp,0xffffb
     e60:	a0010113          	addi	sp,sp,-1536 # ffffaa00 <pulp__FC+0xffffaa01>
     e64:	fe209e23          	sh	sp,-4(ra)
     e68:	ffc09183          	lh	gp,-4(ra)
     e6c:	ffffbeb7          	lui	t4,0xffffb
     e70:	a00e8e93          	addi	t4,t4,-1536 # ffffaa00 <pulp__FC+0xffffaa01>
     e74:	4e1d                	li	t3,7
     e76:	31d19763          	bne	gp,t4,1184 <fail>

00000e7a <test_8>:
     e7a:	0000f097          	auipc	ra,0xf
     e7e:	2bc08093          	addi	ra,ra,700 # 10136 <tdat8>
     e82:	00001137          	lui	sp,0x1
     e86:	aa010113          	addi	sp,sp,-1376 # aa0 <test_12+0xc>
     e8a:	fe209f23          	sh	sp,-2(ra)
     e8e:	ffe09183          	lh	gp,-2(ra)
     e92:	00001eb7          	lui	t4,0x1
     e96:	aa0e8e93          	addi	t4,t4,-1376 # aa0 <test_12+0xc>
     e9a:	4e21                	li	t3,8
     e9c:	2fd19463          	bne	gp,t4,1184 <fail>

00000ea0 <test_9>:
     ea0:	0000f097          	auipc	ra,0xf
     ea4:	29608093          	addi	ra,ra,662 # 10136 <tdat8>
     ea8:	ffffa137          	lui	sp,0xffffa
     eac:	00a10113          	addi	sp,sp,10 # ffffa00a <pulp__FC+0xffffa00b>
     eb0:	00209023          	sh	sp,0(ra)
     eb4:	00009183          	lh	gp,0(ra)
     eb8:	ffffaeb7          	lui	t4,0xffffa
     ebc:	00ae8e93          	addi	t4,t4,10 # ffffa00a <pulp__FC+0xffffa00b>
     ec0:	4e25                	li	t3,9
     ec2:	2dd19163          	bne	gp,t4,1184 <fail>

00000ec6 <test_10>:
     ec6:	0000f097          	auipc	ra,0xf
     eca:	27208093          	addi	ra,ra,626 # 10138 <tdat9>
     ece:	12345137          	lui	sp,0x12345
     ed2:	67810113          	addi	sp,sp,1656 # 12345678 <_sp+0x12334398>
     ed6:	fe008213          	addi	tp,ra,-32
     eda:	02221023          	sh	sp,32(tp) # 20 <__vector_start+0x20>
     ede:	00009183          	lh	gp,0(ra)
     ee2:	00005eb7          	lui	t4,0x5
     ee6:	678e8e93          	addi	t4,t4,1656 # 5678 <test_21+0x1c>
     eea:	4e29                	li	t3,10
     eec:	29d19c63          	bne	gp,t4,1184 <fail>

00000ef0 <test_11>:
     ef0:	0000f097          	auipc	ra,0xf
     ef4:	24808093          	addi	ra,ra,584 # 10138 <tdat9>
     ef8:	00003137          	lui	sp,0x3
     efc:	09810113          	addi	sp,sp,152 # 3098 <test_26+0x8>
     f00:	10ed                	addi	ra,ra,-5
     f02:	002093a3          	sh	sp,7(ra)
     f06:	0000f217          	auipc	tp,0xf
     f0a:	23420213          	addi	tp,tp,564 # 1013a <tdat10>
     f0e:	00021183          	lh	gp,0(tp) # 0 <__vector_start>
     f12:	00003eb7          	lui	t4,0x3
     f16:	098e8e93          	addi	t4,t4,152 # 3098 <test_26+0x8>
     f1a:	4e2d                	li	t3,11
     f1c:	27d19463          	bne	gp,t4,1184 <fail>

00000f20 <test_12>:
     f20:	4e31                	li	t3,12
     f22:	4201                	li	tp,0
     f24:	ffffd0b7          	lui	ra,0xffffd
     f28:	cdd08093          	addi	ra,ra,-803 # ffffccdd <pulp__FC+0xffffccde>
     f2c:	0000f117          	auipc	sp,0xf
     f30:	1fc10113          	addi	sp,sp,508 # 10128 <tdat>
     f34:	00111023          	sh	ra,0(sp)
     f38:	00011183          	lh	gp,0(sp)
     f3c:	ffffdeb7          	lui	t4,0xffffd
     f40:	cdde8e93          	addi	t4,t4,-803 # ffffccdd <pulp__FC+0xffffccde>
     f44:	25d19063          	bne	gp,t4,1184 <fail>
     f48:	0205                	addi	tp,tp,1
     f4a:	4289                	li	t0,2
     f4c:	fc521ce3          	bne	tp,t0,f24 <test_12+0x4>

00000f50 <test_13>:
     f50:	4e35                	li	t3,13
     f52:	4201                	li	tp,0
     f54:	ffffc0b7          	lui	ra,0xffffc
     f58:	ccd08093          	addi	ra,ra,-819 # ffffbccd <pulp__FC+0xffffbcce>
     f5c:	0000f117          	auipc	sp,0xf
     f60:	1cc10113          	addi	sp,sp,460 # 10128 <tdat>
     f64:	0001                	nop
     f66:	00111123          	sh	ra,2(sp)
     f6a:	00211183          	lh	gp,2(sp)
     f6e:	ffffceb7          	lui	t4,0xffffc
     f72:	ccde8e93          	addi	t4,t4,-819 # ffffbccd <pulp__FC+0xffffbcce>
     f76:	21d19763          	bne	gp,t4,1184 <fail>
     f7a:	0205                	addi	tp,tp,1
     f7c:	4289                	li	t0,2
     f7e:	fc521be3          	bne	tp,t0,f54 <test_13+0x4>

00000f82 <test_14>:
     f82:	4e39                	li	t3,14
     f84:	4201                	li	tp,0
     f86:	ffffc0b7          	lui	ra,0xffffc
     f8a:	bcc08093          	addi	ra,ra,-1076 # ffffbbcc <pulp__FC+0xffffbbcd>
     f8e:	0000f117          	auipc	sp,0xf
     f92:	19a10113          	addi	sp,sp,410 # 10128 <tdat>
     f96:	0001                	nop
     f98:	0001                	nop
     f9a:	00111223          	sh	ra,4(sp)
     f9e:	00411183          	lh	gp,4(sp)
     fa2:	ffffceb7          	lui	t4,0xffffc
     fa6:	bcce8e93          	addi	t4,t4,-1076 # ffffbbcc <pulp__FC+0xffffbbcd>
     faa:	1dd19d63          	bne	gp,t4,1184 <fail>
     fae:	0205                	addi	tp,tp,1
     fb0:	4289                	li	t0,2
     fb2:	fc521ae3          	bne	tp,t0,f86 <test_14+0x4>

00000fb6 <test_15>:
     fb6:	4e3d                	li	t3,15
     fb8:	4201                	li	tp,0
     fba:	ffffb0b7          	lui	ra,0xffffb
     fbe:	bbc08093          	addi	ra,ra,-1092 # ffffabbc <pulp__FC+0xffffabbd>
     fc2:	0001                	nop
     fc4:	0000f117          	auipc	sp,0xf
     fc8:	16410113          	addi	sp,sp,356 # 10128 <tdat>
     fcc:	00111323          	sh	ra,6(sp)
     fd0:	00611183          	lh	gp,6(sp)
     fd4:	ffffbeb7          	lui	t4,0xffffb
     fd8:	bbce8e93          	addi	t4,t4,-1092 # ffffabbc <pulp__FC+0xffffabbd>
     fdc:	1bd19463          	bne	gp,t4,1184 <fail>
     fe0:	0205                	addi	tp,tp,1
     fe2:	4289                	li	t0,2
     fe4:	fc521be3          	bne	tp,t0,fba <test_15+0x4>

00000fe8 <test_16>:
     fe8:	4e41                	li	t3,16
     fea:	4201                	li	tp,0
     fec:	ffffb0b7          	lui	ra,0xffffb
     ff0:	abb08093          	addi	ra,ra,-1349 # ffffaabb <pulp__FC+0xffffaabc>
     ff4:	0001                	nop
     ff6:	0000f117          	auipc	sp,0xf
     ffa:	13210113          	addi	sp,sp,306 # 10128 <tdat>
     ffe:	0001                	nop
    1000:	00111423          	sh	ra,8(sp)
    1004:	00811183          	lh	gp,8(sp)
    1008:	ffffbeb7          	lui	t4,0xffffb
    100c:	abbe8e93          	addi	t4,t4,-1349 # ffffaabb <pulp__FC+0xffffaabc>
    1010:	17d19a63          	bne	gp,t4,1184 <fail>
    1014:	0205                	addi	tp,tp,1
    1016:	4289                	li	t0,2
    1018:	fc521ae3          	bne	tp,t0,fec <test_16+0x4>

0000101c <test_17>:
    101c:	4e45                	li	t3,17
    101e:	4201                	li	tp,0
    1020:	ffffe0b7          	lui	ra,0xffffe
    1024:	aab08093          	addi	ra,ra,-1365 # ffffdaab <pulp__FC+0xffffdaac>
    1028:	0001                	nop
    102a:	0001                	nop
    102c:	0000f117          	auipc	sp,0xf
    1030:	0fc10113          	addi	sp,sp,252 # 10128 <tdat>
    1034:	00111523          	sh	ra,10(sp)
    1038:	00a11183          	lh	gp,10(sp)
    103c:	ffffeeb7          	lui	t4,0xffffe
    1040:	aabe8e93          	addi	t4,t4,-1365 # ffffdaab <pulp__FC+0xffffdaac>
    1044:	15d19063          	bne	gp,t4,1184 <fail>
    1048:	0205                	addi	tp,tp,1
    104a:	4289                	li	t0,2
    104c:	fc521ae3          	bne	tp,t0,1020 <test_17+0x4>

00001050 <test_18>:
    1050:	4e49                	li	t3,18
    1052:	4201                	li	tp,0
    1054:	0000f117          	auipc	sp,0xf
    1058:	0d410113          	addi	sp,sp,212 # 10128 <tdat>
    105c:	000020b7          	lui	ra,0x2
    1060:	23308093          	addi	ra,ra,563 # 2233 <test_10+0xb>
    1064:	00111023          	sh	ra,0(sp)
    1068:	00011183          	lh	gp,0(sp)
    106c:	00002eb7          	lui	t4,0x2
    1070:	233e8e93          	addi	t4,t4,563 # 2233 <test_10+0xb>
    1074:	11d19863          	bne	gp,t4,1184 <fail>
    1078:	0205                	addi	tp,tp,1
    107a:	4289                	li	t0,2
    107c:	fc521ce3          	bne	tp,t0,1054 <test_18+0x4>

00001080 <test_19>:
    1080:	4e4d                	li	t3,19
    1082:	4201                	li	tp,0
    1084:	0000f117          	auipc	sp,0xf
    1088:	0a410113          	addi	sp,sp,164 # 10128 <tdat>
    108c:	000010b7          	lui	ra,0x1
    1090:	22308093          	addi	ra,ra,547 # 1223 <test_3+0x5>
    1094:	0001                	nop
    1096:	00111123          	sh	ra,2(sp)
    109a:	00211183          	lh	gp,2(sp)
    109e:	00001eb7          	lui	t4,0x1
    10a2:	223e8e93          	addi	t4,t4,547 # 1223 <test_3+0x5>
    10a6:	0dd19f63          	bne	gp,t4,1184 <fail>
    10aa:	0205                	addi	tp,tp,1
    10ac:	4289                	li	t0,2
    10ae:	fc521be3          	bne	tp,t0,1084 <test_19+0x4>

000010b2 <test_20>:
    10b2:	4e51                	li	t3,20
    10b4:	4201                	li	tp,0
    10b6:	0000f117          	auipc	sp,0xf
    10ba:	07210113          	addi	sp,sp,114 # 10128 <tdat>
    10be:	000010b7          	lui	ra,0x1
    10c2:	12208093          	addi	ra,ra,290 # 1122 <test_22+0x12>
    10c6:	0001                	nop
    10c8:	0001                	nop
    10ca:	00111223          	sh	ra,4(sp)
    10ce:	00411183          	lh	gp,4(sp)
    10d2:	00001eb7          	lui	t4,0x1
    10d6:	122e8e93          	addi	t4,t4,290 # 1122 <test_22+0x12>
    10da:	0bd19563          	bne	gp,t4,1184 <fail>
    10de:	0205                	addi	tp,tp,1
    10e0:	4289                	li	t0,2
    10e2:	fc521ae3          	bne	tp,t0,10b6 <test_20+0x4>

000010e6 <test_21>:
    10e6:	4e55                	li	t3,21
    10e8:	4201                	li	tp,0
    10ea:	0000f117          	auipc	sp,0xf
    10ee:	03e10113          	addi	sp,sp,62 # 10128 <tdat>
    10f2:	0001                	nop
    10f4:	11200093          	li	ra,274
    10f8:	00111323          	sh	ra,6(sp)
    10fc:	00611183          	lh	gp,6(sp)
    1100:	11200e93          	li	t4,274
    1104:	09d19063          	bne	gp,t4,1184 <fail>
    1108:	0205                	addi	tp,tp,1
    110a:	4289                	li	t0,2
    110c:	fc521fe3          	bne	tp,t0,10ea <test_21+0x4>

00001110 <test_22>:
    1110:	4e59                	li	t3,22
    1112:	4201                	li	tp,0
    1114:	0000f117          	auipc	sp,0xf
    1118:	01410113          	addi	sp,sp,20 # 10128 <tdat>
    111c:	0001                	nop
    111e:	40c5                	li	ra,17
    1120:	0001                	nop
    1122:	00111423          	sh	ra,8(sp)
    1126:	00811183          	lh	gp,8(sp)
    112a:	4ec5                	li	t4,17
    112c:	05d19c63          	bne	gp,t4,1184 <fail>
    1130:	0205                	addi	tp,tp,1
    1132:	4289                	li	t0,2
    1134:	fe5210e3          	bne	tp,t0,1114 <test_22+0x4>

00001138 <test_23>:
    1138:	4e5d                	li	t3,23
    113a:	4201                	li	tp,0
    113c:	0000f117          	auipc	sp,0xf
    1140:	fec10113          	addi	sp,sp,-20 # 10128 <tdat>
    1144:	0001                	nop
    1146:	0001                	nop
    1148:	000030b7          	lui	ra,0x3
    114c:	00108093          	addi	ra,ra,1 # 3001 <test_21+0xd>
    1150:	00111523          	sh	ra,10(sp)
    1154:	00a11183          	lh	gp,10(sp)
    1158:	00003eb7          	lui	t4,0x3
    115c:	001e8e93          	addi	t4,t4,1 # 3001 <test_21+0xd>
    1160:	03d19263          	bne	gp,t4,1184 <fail>
    1164:	0205                	addi	tp,tp,1
    1166:	4289                	li	t0,2
    1168:	fc521ae3          	bne	tp,t0,113c <test_23+0x4>
    116c:	0000c537          	lui	a0,0xc
    1170:	eef50513          	addi	a0,a0,-273 # beef <__read_next_512b_first32b+0x33a7>
    1174:	0000f597          	auipc	a1,0xf
    1178:	fb458593          	addi	a1,a1,-76 # 10128 <tdat>
    117c:	00a59323          	sh	a0,6(a1)
    1180:	03c01563          	bne	zero,t3,11aa <pass>

00001184 <fail>:
    1184:	10010537          	lui	a0,0x10010
    1188:	00450513          	addi	a0,a0,4 # 10010004 <_sp+0xfffed24>
    118c:	04500593          	li	a1,69
    1190:	05200613          	li	a2,82
    1194:	04f00693          	li	a3,79
    1198:	00a00713          	li	a4,10
    119c:	c10c                	sw	a1,0(a0)
    119e:	c110                	sw	a2,0(a0)
    11a0:	c110                	sw	a2,0(a0)
    11a2:	c114                	sw	a3,0(a0)
    11a4:	c110                	sw	a2,0(a0)
    11a6:	c118                	sw	a4,0(a0)
    11a8:	9002                	ebreak

000011aa <pass>:
    11aa:	10010537          	lui	a0,0x10010
    11ae:	00450513          	addi	a0,a0,4 # 10010004 <_sp+0xfffed24>
    11b2:	04f00593          	li	a1,79
    11b6:	04b00613          	li	a2,75
    11ba:	00a00693          	li	a3,10
    11be:	c10c                	sw	a1,0(a0)
    11c0:	c110                	sw	a2,0(a0)
    11c2:	c114                	sw	a3,0(a0)
    11c4:	000f0113          	mv	sp,t5
    11c8:	ffc12183          	lw	gp,-4(sp)
    11cc:	ff812083          	lw	ra,-8(sp)
    11d0:	89eff06f          	j	26e <sh_ret>

000011d4 <andi>:
    11d4:	00010f13          	mv	t5,sp
    11d8:	fe312e23          	sw	gp,-4(sp)
    11dc:	fe112c23          	sw	ra,-8(sp)
    11e0:	82018513          	addi	a0,gp,-2016 # 1013c <andi_data>
    11e4:	10010637          	lui	a2,0x10010
    11e8:	00460613          	addi	a2,a2,4 # 10010004 <_sp+0xfffed24>

000011ec <.prname_next>:
    11ec:	00050583          	lb	a1,0(a0)
    11f0:	00058663          	beqz	a1,11fc <.prname_done>
    11f4:	c20c                	sw	a1,0(a2)
    11f6:	0505                	addi	a0,a0,1
    11f8:	ff5ff06f          	j	11ec <.prname_next>

000011fc <.prname_done>:
    11fc:	02e00593          	li	a1,46
    1200:	c20c                	sw	a1,0(a2)
    1202:	c20c                	sw	a1,0(a2)

00001204 <test_2>:
    1204:	ff0100b7          	lui	ra,0xff010
    1208:	f0008093          	addi	ra,ra,-256 # ff00ff00 <pulp__FC+0xff00ff01>
    120c:	f0f0f193          	andi	gp,ra,-241
    1210:	ff010eb7          	lui	t4,0xff010
    1214:	f00e8e93          	addi	t4,t4,-256 # ff00ff00 <pulp__FC+0xff00ff01>
    1218:	4e09                	li	t3,2
    121a:	15d19a63          	bne	gp,t4,136e <fail>

0000121e <test_3>:
    121e:	0ff010b7          	lui	ra,0xff01
    1222:	ff008093          	addi	ra,ra,-16 # ff00ff0 <_sp+0xfeefd10>
    1226:	0f00f193          	andi	gp,ra,240
    122a:	0f000e93          	li	t4,240
    122e:	4e0d                	li	t3,3
    1230:	13d19f63          	bne	gp,t4,136e <fail>

00001234 <test_4>:
    1234:	00ff00b7          	lui	ra,0xff0
    1238:	0ff08093          	addi	ra,ra,255 # ff00ff <_sp+0xfdee1f>
    123c:	70f0f193          	andi	gp,ra,1807
    1240:	4ebd                	li	t4,15
    1242:	4e11                	li	t3,4
    1244:	13d19563          	bne	gp,t4,136e <fail>

00001248 <test_5>:
    1248:	f00ff0b7          	lui	ra,0xf00ff
    124c:	00f08093          	addi	ra,ra,15 # f00ff00f <pulp__FC+0xf00ff010>
    1250:	0f00f193          	andi	gp,ra,240
    1254:	4e81                	li	t4,0
    1256:	4e15                	li	t3,5
    1258:	11d19b63          	bne	gp,t4,136e <fail>

0000125c <test_6>:
    125c:	ff0100b7          	lui	ra,0xff010
    1260:	f0008093          	addi	ra,ra,-256 # ff00ff00 <pulp__FC+0xff00ff01>
    1264:	0f00f093          	andi	ra,ra,240
    1268:	4e81                	li	t4,0
    126a:	4e19                	li	t3,6
    126c:	11d09163          	bne	ra,t4,136e <fail>

00001270 <test_7>:
    1270:	4201                	li	tp,0
    1272:	0ff010b7          	lui	ra,0xff01
    1276:	ff008093          	addi	ra,ra,-16 # ff00ff0 <_sp+0xfeefd10>
    127a:	70f0f193          	andi	gp,ra,1807
    127e:	00018313          	mv	t1,gp
    1282:	0205                	addi	tp,tp,1
    1284:	4289                	li	t0,2
    1286:	fe5216e3          	bne	tp,t0,1272 <test_7+0x2>
    128a:	70000e93          	li	t4,1792
    128e:	4e1d                	li	t3,7
    1290:	0dd31f63          	bne	t1,t4,136e <fail>

00001294 <test_8>:
    1294:	4201                	li	tp,0
    1296:	00ff00b7          	lui	ra,0xff0
    129a:	0ff08093          	addi	ra,ra,255 # ff00ff <_sp+0xfdee1f>
    129e:	0f00f193          	andi	gp,ra,240
    12a2:	0001                	nop
    12a4:	00018313          	mv	t1,gp
    12a8:	0205                	addi	tp,tp,1
    12aa:	4289                	li	t0,2
    12ac:	fe5215e3          	bne	tp,t0,1296 <test_8+0x2>
    12b0:	0f000e93          	li	t4,240
    12b4:	4e21                	li	t3,8
    12b6:	0bd31c63          	bne	t1,t4,136e <fail>

000012ba <test_9>:
    12ba:	4201                	li	tp,0
    12bc:	f00ff0b7          	lui	ra,0xf00ff
    12c0:	00f08093          	addi	ra,ra,15 # f00ff00f <pulp__FC+0xf00ff010>
    12c4:	f0f0f193          	andi	gp,ra,-241
    12c8:	0001                	nop
    12ca:	0001                	nop
    12cc:	00018313          	mv	t1,gp
    12d0:	0205                	addi	tp,tp,1
    12d2:	4289                	li	t0,2
    12d4:	fe5214e3          	bne	tp,t0,12bc <test_9+0x2>
    12d8:	f00ffeb7          	lui	t4,0xf00ff
    12dc:	00fe8e93          	addi	t4,t4,15 # f00ff00f <pulp__FC+0xf00ff010>
    12e0:	4e25                	li	t3,9
    12e2:	09d31663          	bne	t1,t4,136e <fail>

000012e6 <test_10>:
    12e6:	4201                	li	tp,0
    12e8:	0ff010b7          	lui	ra,0xff01
    12ec:	ff008093          	addi	ra,ra,-16 # ff00ff0 <_sp+0xfeefd10>
    12f0:	70f0f193          	andi	gp,ra,1807
    12f4:	0205                	addi	tp,tp,1
    12f6:	4289                	li	t0,2
    12f8:	fe5218e3          	bne	tp,t0,12e8 <test_10+0x2>
    12fc:	70000e93          	li	t4,1792
    1300:	4e29                	li	t3,10
    1302:	07d19663          	bne	gp,t4,136e <fail>

00001306 <test_11>:
    1306:	4201                	li	tp,0
    1308:	00ff00b7          	lui	ra,0xff0
    130c:	0ff08093          	addi	ra,ra,255 # ff00ff <_sp+0xfdee1f>
    1310:	0001                	nop
    1312:	0f00f193          	andi	gp,ra,240
    1316:	0205                	addi	tp,tp,1
    1318:	4289                	li	t0,2
    131a:	fe5217e3          	bne	tp,t0,1308 <test_11+0x2>
    131e:	0f000e93          	li	t4,240
    1322:	4e2d                	li	t3,11
    1324:	05d19563          	bne	gp,t4,136e <fail>

00001328 <test_12>:
    1328:	4201                	li	tp,0
    132a:	f00ff0b7          	lui	ra,0xf00ff
    132e:	00f08093          	addi	ra,ra,15 # f00ff00f <pulp__FC+0xf00ff010>
    1332:	0001                	nop
    1334:	0001                	nop
    1336:	70f0f193          	andi	gp,ra,1807
    133a:	0205                	addi	tp,tp,1
    133c:	4289                	li	t0,2
    133e:	fe5216e3          	bne	tp,t0,132a <test_12+0x2>
    1342:	4ebd                	li	t4,15
    1344:	4e31                	li	t3,12
    1346:	03d19463          	bne	gp,t4,136e <fail>

0000134a <test_13>:
    134a:	0f007093          	andi	ra,zero,240
    134e:	4e81                	li	t4,0
    1350:	4e35                	li	t3,13
    1352:	01d09e63          	bne	ra,t4,136e <fail>

00001356 <test_14>:
    1356:	00ff00b7          	lui	ra,0xff0
    135a:	0ff08093          	addi	ra,ra,255 # ff00ff <_sp+0xfdee1f>
    135e:	70f0f013          	andi	zero,ra,1807
    1362:	4e81                	li	t4,0
    1364:	4e39                	li	t3,14
    1366:	01d01463          	bne	zero,t4,136e <fail>
    136a:	03c01563          	bne	zero,t3,1394 <pass>

0000136e <fail>:
    136e:	10010537          	lui	a0,0x10010
    1372:	00450513          	addi	a0,a0,4 # 10010004 <_sp+0xfffed24>
    1376:	04500593          	li	a1,69
    137a:	05200613          	li	a2,82
    137e:	04f00693          	li	a3,79
    1382:	00a00713          	li	a4,10
    1386:	c10c                	sw	a1,0(a0)
    1388:	c110                	sw	a2,0(a0)
    138a:	c110                	sw	a2,0(a0)
    138c:	c114                	sw	a3,0(a0)
    138e:	c110                	sw	a2,0(a0)
    1390:	c118                	sw	a4,0(a0)
    1392:	9002                	ebreak

00001394 <pass>:
    1394:	10010537          	lui	a0,0x10010
    1398:	00450513          	addi	a0,a0,4 # 10010004 <_sp+0xfffed24>
    139c:	04f00593          	li	a1,79
    13a0:	04b00613          	li	a2,75
    13a4:	00a00693          	li	a3,10
    13a8:	c10c                	sw	a1,0(a0)
    13aa:	c110                	sw	a2,0(a0)
    13ac:	c114                	sw	a3,0(a0)
    13ae:	000f0113          	mv	sp,t5
    13b2:	ffc12183          	lw	gp,-4(sp)
    13b6:	ff812083          	lw	ra,-8(sp)
    13ba:	ee5fe06f          	j	29e <andi_ret>

000013be <sub>:
    13be:	00010f13          	mv	t5,sp
    13c2:	fe312e23          	sw	gp,-4(sp)
    13c6:	fe112c23          	sw	ra,-8(sp)
    13ca:	82818513          	addi	a0,gp,-2008 # 10144 <sub_data>
    13ce:	10010637          	lui	a2,0x10010
    13d2:	00460613          	addi	a2,a2,4 # 10010004 <_sp+0xfffed24>

000013d6 <.prname_next>:
    13d6:	00050583          	lb	a1,0(a0)
    13da:	00058663          	beqz	a1,13e6 <.prname_done>
    13de:	c20c                	sw	a1,0(a2)
    13e0:	0505                	addi	a0,a0,1
    13e2:	ff5ff06f          	j	13d6 <.prname_next>

000013e6 <.prname_done>:
    13e6:	02e00593          	li	a1,46
    13ea:	c20c                	sw	a1,0(a2)
    13ec:	c20c                	sw	a1,0(a2)

000013ee <test_2>:
    13ee:	4081                	li	ra,0
    13f0:	4101                	li	sp,0
    13f2:	402081b3          	sub	gp,ra,sp
    13f6:	4e81                	li	t4,0
    13f8:	4e09                	li	t3,2
    13fa:	37d19063          	bne	gp,t4,175a <fail>

000013fe <test_3>:
    13fe:	4085                	li	ra,1
    1400:	4105                	li	sp,1
    1402:	402081b3          	sub	gp,ra,sp
    1406:	4e81                	li	t4,0
    1408:	4e0d                	li	t3,3
    140a:	35d19863          	bne	gp,t4,175a <fail>

0000140e <test_4>:
    140e:	408d                	li	ra,3
    1410:	411d                	li	sp,7
    1412:	402081b3          	sub	gp,ra,sp
    1416:	ffc00e93          	li	t4,-4
    141a:	4e11                	li	t3,4
    141c:	33d19f63          	bne	gp,t4,175a <fail>

00001420 <test_5>:
    1420:	4081                	li	ra,0
    1422:	ffff8137          	lui	sp,0xffff8
    1426:	402081b3          	sub	gp,ra,sp
    142a:	6ea1                	lui	t4,0x8
    142c:	4e15                	li	t3,5
    142e:	33d19663          	bne	gp,t4,175a <fail>

00001432 <test_6>:
    1432:	800000b7          	lui	ra,0x80000
    1436:	4101                	li	sp,0
    1438:	402081b3          	sub	gp,ra,sp
    143c:	80000eb7          	lui	t4,0x80000
    1440:	4e19                	li	t3,6
    1442:	31d19c63          	bne	gp,t4,175a <fail>

00001446 <test_7>:
    1446:	800000b7          	lui	ra,0x80000
    144a:	ffff8137          	lui	sp,0xffff8
    144e:	402081b3          	sub	gp,ra,sp
    1452:	80008eb7          	lui	t4,0x80008
    1456:	4e1d                	li	t3,7
    1458:	31d19163          	bne	gp,t4,175a <fail>

0000145c <test_8>:
    145c:	4081                	li	ra,0
    145e:	00008137          	lui	sp,0x8
    1462:	fff10113          	addi	sp,sp,-1 # 7fff <test_11+0x1d>
    1466:	402081b3          	sub	gp,ra,sp
    146a:	ffff8eb7          	lui	t4,0xffff8
    146e:	001e8e93          	addi	t4,t4,1 # ffff8001 <pulp__FC+0xffff8002>
    1472:	4e21                	li	t3,8
    1474:	2fd19363          	bne	gp,t4,175a <fail>

00001478 <test_9>:
    1478:	800000b7          	lui	ra,0x80000
    147c:	fff08093          	addi	ra,ra,-1 # 7fffffff <pulp__FC+0x80000000>
    1480:	4101                	li	sp,0
    1482:	402081b3          	sub	gp,ra,sp
    1486:	80000eb7          	lui	t4,0x80000
    148a:	fffe8e93          	addi	t4,t4,-1 # 7fffffff <pulp__FC+0x80000000>
    148e:	4e25                	li	t3,9
    1490:	2dd19563          	bne	gp,t4,175a <fail>

00001494 <test_10>:
    1494:	800000b7          	lui	ra,0x80000
    1498:	fff08093          	addi	ra,ra,-1 # 7fffffff <pulp__FC+0x80000000>
    149c:	00008137          	lui	sp,0x8
    14a0:	fff10113          	addi	sp,sp,-1 # 7fff <test_11+0x1d>
    14a4:	402081b3          	sub	gp,ra,sp
    14a8:	7fff8eb7          	lui	t4,0x7fff8
    14ac:	4e29                	li	t3,10
    14ae:	2bd19663          	bne	gp,t4,175a <fail>

000014b2 <test_11>:
    14b2:	800000b7          	lui	ra,0x80000
    14b6:	00008137          	lui	sp,0x8
    14ba:	fff10113          	addi	sp,sp,-1 # 7fff <test_11+0x1d>
    14be:	402081b3          	sub	gp,ra,sp
    14c2:	7fff8eb7          	lui	t4,0x7fff8
    14c6:	001e8e93          	addi	t4,t4,1 # 7fff8001 <_sp+0x7ffe6d21>
    14ca:	4e2d                	li	t3,11
    14cc:	29d19763          	bne	gp,t4,175a <fail>

000014d0 <test_12>:
    14d0:	800000b7          	lui	ra,0x80000
    14d4:	fff08093          	addi	ra,ra,-1 # 7fffffff <pulp__FC+0x80000000>
    14d8:	ffff8137          	lui	sp,0xffff8
    14dc:	402081b3          	sub	gp,ra,sp
    14e0:	80008eb7          	lui	t4,0x80008
    14e4:	fffe8e93          	addi	t4,t4,-1 # 80007fff <pulp__FC+0x80008000>
    14e8:	4e31                	li	t3,12
    14ea:	27d19863          	bne	gp,t4,175a <fail>

000014ee <test_13>:
    14ee:	4081                	li	ra,0
    14f0:	fff00113          	li	sp,-1
    14f4:	402081b3          	sub	gp,ra,sp
    14f8:	4e85                	li	t4,1
    14fa:	4e35                	li	t3,13
    14fc:	25d19f63          	bne	gp,t4,175a <fail>

00001500 <test_14>:
    1500:	fff00093          	li	ra,-1
    1504:	4105                	li	sp,1
    1506:	402081b3          	sub	gp,ra,sp
    150a:	ffe00e93          	li	t4,-2
    150e:	4e39                	li	t3,14
    1510:	25d19563          	bne	gp,t4,175a <fail>

00001514 <test_15>:
    1514:	fff00093          	li	ra,-1
    1518:	fff00113          	li	sp,-1
    151c:	402081b3          	sub	gp,ra,sp
    1520:	4e81                	li	t4,0
    1522:	4e3d                	li	t3,15
    1524:	23d19b63          	bne	gp,t4,175a <fail>

00001528 <test_16>:
    1528:	40b5                	li	ra,13
    152a:	412d                	li	sp,11
    152c:	402080b3          	sub	ra,ra,sp
    1530:	4e89                	li	t4,2
    1532:	4e41                	li	t3,16
    1534:	23d09363          	bne	ra,t4,175a <fail>

00001538 <test_17>:
    1538:	40b9                	li	ra,14
    153a:	412d                	li	sp,11
    153c:	40208133          	sub	sp,ra,sp
    1540:	4e8d                	li	t4,3
    1542:	4e45                	li	t3,17
    1544:	21d11b63          	bne	sp,t4,175a <fail>

00001548 <test_18>:
    1548:	40b5                	li	ra,13
    154a:	401080b3          	sub	ra,ra,ra
    154e:	4e81                	li	t4,0
    1550:	4e49                	li	t3,18
    1552:	21d09463          	bne	ra,t4,175a <fail>

00001556 <test_19>:
    1556:	4201                	li	tp,0
    1558:	40b5                	li	ra,13
    155a:	412d                	li	sp,11
    155c:	402081b3          	sub	gp,ra,sp
    1560:	00018313          	mv	t1,gp
    1564:	0205                	addi	tp,tp,1
    1566:	4289                	li	t0,2
    1568:	fe5218e3          	bne	tp,t0,1558 <test_19+0x2>
    156c:	4e89                	li	t4,2
    156e:	4e4d                	li	t3,19
    1570:	1fd31563          	bne	t1,t4,175a <fail>

00001574 <test_20>:
    1574:	4201                	li	tp,0
    1576:	40b9                	li	ra,14
    1578:	412d                	li	sp,11
    157a:	402081b3          	sub	gp,ra,sp
    157e:	0001                	nop
    1580:	00018313          	mv	t1,gp
    1584:	0205                	addi	tp,tp,1
    1586:	4289                	li	t0,2
    1588:	fe5217e3          	bne	tp,t0,1576 <test_20+0x2>
    158c:	4e8d                	li	t4,3
    158e:	4e51                	li	t3,20
    1590:	1dd31563          	bne	t1,t4,175a <fail>

00001594 <test_21>:
    1594:	4201                	li	tp,0
    1596:	40bd                	li	ra,15
    1598:	412d                	li	sp,11
    159a:	402081b3          	sub	gp,ra,sp
    159e:	0001                	nop
    15a0:	0001                	nop
    15a2:	00018313          	mv	t1,gp
    15a6:	0205                	addi	tp,tp,1
    15a8:	4289                	li	t0,2
    15aa:	fe5216e3          	bne	tp,t0,1596 <test_21+0x2>
    15ae:	4e91                	li	t4,4
    15b0:	4e55                	li	t3,21
    15b2:	1bd31463          	bne	t1,t4,175a <fail>

000015b6 <test_22>:
    15b6:	4201                	li	tp,0
    15b8:	40b5                	li	ra,13
    15ba:	412d                	li	sp,11
    15bc:	402081b3          	sub	gp,ra,sp
    15c0:	0205                	addi	tp,tp,1
    15c2:	4289                	li	t0,2
    15c4:	fe521ae3          	bne	tp,t0,15b8 <test_22+0x2>
    15c8:	4e89                	li	t4,2
    15ca:	4e59                	li	t3,22
    15cc:	19d19763          	bne	gp,t4,175a <fail>

000015d0 <test_23>:
    15d0:	4201                	li	tp,0
    15d2:	40b9                	li	ra,14
    15d4:	412d                	li	sp,11
    15d6:	0001                	nop
    15d8:	402081b3          	sub	gp,ra,sp
    15dc:	0205                	addi	tp,tp,1
    15de:	4289                	li	t0,2
    15e0:	fe5219e3          	bne	tp,t0,15d2 <test_23+0x2>
    15e4:	4e8d                	li	t4,3
    15e6:	4e5d                	li	t3,23
    15e8:	17d19963          	bne	gp,t4,175a <fail>

000015ec <test_24>:
    15ec:	4201                	li	tp,0
    15ee:	40bd                	li	ra,15
    15f0:	412d                	li	sp,11
    15f2:	0001                	nop
    15f4:	0001                	nop
    15f6:	402081b3          	sub	gp,ra,sp
    15fa:	0205                	addi	tp,tp,1
    15fc:	4289                	li	t0,2
    15fe:	fe5218e3          	bne	tp,t0,15ee <test_24+0x2>
    1602:	4e91                	li	t4,4
    1604:	4e61                	li	t3,24
    1606:	15d19a63          	bne	gp,t4,175a <fail>

0000160a <test_25>:
    160a:	4201                	li	tp,0
    160c:	40b5                	li	ra,13
    160e:	0001                	nop
    1610:	412d                	li	sp,11
    1612:	402081b3          	sub	gp,ra,sp
    1616:	0205                	addi	tp,tp,1
    1618:	4289                	li	t0,2
    161a:	fe5219e3          	bne	tp,t0,160c <test_25+0x2>
    161e:	4e89                	li	t4,2
    1620:	4e65                	li	t3,25
    1622:	13d19c63          	bne	gp,t4,175a <fail>

00001626 <test_26>:
    1626:	4201                	li	tp,0
    1628:	40b9                	li	ra,14
    162a:	0001                	nop
    162c:	412d                	li	sp,11
    162e:	0001                	nop
    1630:	402081b3          	sub	gp,ra,sp
    1634:	0205                	addi	tp,tp,1
    1636:	4289                	li	t0,2
    1638:	fe5218e3          	bne	tp,t0,1628 <test_26+0x2>
    163c:	4e8d                	li	t4,3
    163e:	4e69                	li	t3,26
    1640:	11d19d63          	bne	gp,t4,175a <fail>

00001644 <test_27>:
    1644:	4201                	li	tp,0
    1646:	40bd                	li	ra,15
    1648:	0001                	nop
    164a:	0001                	nop
    164c:	412d                	li	sp,11
    164e:	402081b3          	sub	gp,ra,sp
    1652:	0205                	addi	tp,tp,1
    1654:	4289                	li	t0,2
    1656:	fe5218e3          	bne	tp,t0,1646 <test_27+0x2>
    165a:	4e91                	li	t4,4
    165c:	4e6d                	li	t3,27
    165e:	0fd19e63          	bne	gp,t4,175a <fail>

00001662 <test_28>:
    1662:	4201                	li	tp,0
    1664:	412d                	li	sp,11
    1666:	40b5                	li	ra,13
    1668:	402081b3          	sub	gp,ra,sp
    166c:	0205                	addi	tp,tp,1
    166e:	4289                	li	t0,2
    1670:	fe521ae3          	bne	tp,t0,1664 <test_28+0x2>
    1674:	4e89                	li	t4,2
    1676:	4e71                	li	t3,28
    1678:	0fd19163          	bne	gp,t4,175a <fail>

0000167c <test_29>:
    167c:	4201                	li	tp,0
    167e:	412d                	li	sp,11
    1680:	40b9                	li	ra,14
    1682:	0001                	nop
    1684:	402081b3          	sub	gp,ra,sp
    1688:	0205                	addi	tp,tp,1
    168a:	4289                	li	t0,2
    168c:	fe5219e3          	bne	tp,t0,167e <test_29+0x2>
    1690:	4e8d                	li	t4,3
    1692:	4e75                	li	t3,29
    1694:	0dd19363          	bne	gp,t4,175a <fail>

00001698 <test_30>:
    1698:	4201                	li	tp,0
    169a:	412d                	li	sp,11
    169c:	40bd                	li	ra,15
    169e:	0001                	nop
    16a0:	0001                	nop
    16a2:	402081b3          	sub	gp,ra,sp
    16a6:	0205                	addi	tp,tp,1
    16a8:	4289                	li	t0,2
    16aa:	fe5218e3          	bne	tp,t0,169a <test_30+0x2>
    16ae:	4e91                	li	t4,4
    16b0:	4e79                	li	t3,30
    16b2:	0bd19463          	bne	gp,t4,175a <fail>

000016b6 <test_31>:
    16b6:	4201                	li	tp,0
    16b8:	412d                	li	sp,11
    16ba:	0001                	nop
    16bc:	40b5                	li	ra,13
    16be:	402081b3          	sub	gp,ra,sp
    16c2:	0205                	addi	tp,tp,1
    16c4:	4289                	li	t0,2
    16c6:	fe5219e3          	bne	tp,t0,16b8 <test_31+0x2>
    16ca:	4e89                	li	t4,2
    16cc:	4e7d                	li	t3,31
    16ce:	09d19663          	bne	gp,t4,175a <fail>

000016d2 <test_32>:
    16d2:	4201                	li	tp,0
    16d4:	412d                	li	sp,11
    16d6:	0001                	nop
    16d8:	40b9                	li	ra,14
    16da:	0001                	nop
    16dc:	402081b3          	sub	gp,ra,sp
    16e0:	0205                	addi	tp,tp,1
    16e2:	4289                	li	t0,2
    16e4:	fe5218e3          	bne	tp,t0,16d4 <test_32+0x2>
    16e8:	4e8d                	li	t4,3
    16ea:	02000e13          	li	t3,32
    16ee:	07d19663          	bne	gp,t4,175a <fail>

000016f2 <test_33>:
    16f2:	4201                	li	tp,0
    16f4:	412d                	li	sp,11
    16f6:	0001                	nop
    16f8:	0001                	nop
    16fa:	40bd                	li	ra,15
    16fc:	402081b3          	sub	gp,ra,sp
    1700:	0205                	addi	tp,tp,1
    1702:	4289                	li	t0,2
    1704:	fe5218e3          	bne	tp,t0,16f4 <test_33+0x2>
    1708:	4e91                	li	t4,4
    170a:	02100e13          	li	t3,33
    170e:	05d19663          	bne	gp,t4,175a <fail>

00001712 <test_34>:
    1712:	50c5                	li	ra,-15
    1714:	40100133          	neg	sp,ra
    1718:	4ebd                	li	t4,15
    171a:	02200e13          	li	t3,34
    171e:	03d11e63          	bne	sp,t4,175a <fail>

00001722 <test_35>:
    1722:	02000093          	li	ra,32
    1726:	40008133          	sub	sp,ra,zero
    172a:	02000e93          	li	t4,32
    172e:	02300e13          	li	t3,35
    1732:	03d11463          	bne	sp,t4,175a <fail>

00001736 <test_36>:
    1736:	400000b3          	neg	ra,zero
    173a:	4e81                	li	t4,0
    173c:	02400e13          	li	t3,36
    1740:	01d09d63          	bne	ra,t4,175a <fail>

00001744 <test_37>:
    1744:	40c1                	li	ra,16
    1746:	4179                	li	sp,30
    1748:	40208033          	sub	zero,ra,sp
    174c:	4e81                	li	t4,0
    174e:	02500e13          	li	t3,37
    1752:	01d01463          	bne	zero,t4,175a <fail>
    1756:	03c01563          	bne	zero,t3,1780 <pass>

0000175a <fail>:
    175a:	10010537          	lui	a0,0x10010
    175e:	00450513          	addi	a0,a0,4 # 10010004 <_sp+0xfffed24>
    1762:	04500593          	li	a1,69
    1766:	05200613          	li	a2,82
    176a:	04f00693          	li	a3,79
    176e:	00a00713          	li	a4,10
    1772:	c10c                	sw	a1,0(a0)
    1774:	c110                	sw	a2,0(a0)
    1776:	c110                	sw	a2,0(a0)
    1778:	c114                	sw	a3,0(a0)
    177a:	c110                	sw	a2,0(a0)
    177c:	c118                	sw	a4,0(a0)
    177e:	9002                	ebreak

00001780 <pass>:
    1780:	10010537          	lui	a0,0x10010
    1784:	00450513          	addi	a0,a0,4 # 10010004 <_sp+0xfffed24>
    1788:	04f00593          	li	a1,79
    178c:	04b00613          	li	a2,75
    1790:	00a00693          	li	a3,10
    1794:	c10c                	sw	a1,0(a0)
    1796:	c110                	sw	a2,0(a0)
    1798:	c114                	sw	a3,0(a0)
    179a:	000f0113          	mv	sp,t5
    179e:	ffc12183          	lw	gp,-4(sp) # ffff7ffc <pulp__FC+0xffff7ffd>
    17a2:	ff812083          	lw	ra,-8(sp)
    17a6:	b21fe06f          	j	2c6 <sub_ret>

000017aa <sll>:
    17aa:	00010f13          	mv	t5,sp
    17ae:	fe312e23          	sw	gp,-4(sp)
    17b2:	fe112c23          	sw	ra,-8(sp)
    17b6:	82c18513          	addi	a0,gp,-2004 # 10148 <sll_data>
    17ba:	10010637          	lui	a2,0x10010
    17be:	00460613          	addi	a2,a2,4 # 10010004 <_sp+0xfffed24>

000017c2 <.prname_next>:
    17c2:	00050583          	lb	a1,0(a0)
    17c6:	00058663          	beqz	a1,17d2 <.prname_done>
    17ca:	c20c                	sw	a1,0(a2)
    17cc:	0505                	addi	a0,a0,1
    17ce:	ff5ff06f          	j	17c2 <.prname_next>

000017d2 <.prname_done>:
    17d2:	02e00593          	li	a1,46
    17d6:	c20c                	sw	a1,0(a2)
    17d8:	c20c                	sw	a1,0(a2)

000017da <test_2>:
    17da:	4085                	li	ra,1
    17dc:	4101                	li	sp,0
    17de:	002091b3          	sll	gp,ra,sp
    17e2:	4e85                	li	t4,1
    17e4:	4e09                	li	t3,2
    17e6:	41d19c63          	bne	gp,t4,1bfe <fail>

000017ea <test_3>:
    17ea:	4085                	li	ra,1
    17ec:	4105                	li	sp,1
    17ee:	002091b3          	sll	gp,ra,sp
    17f2:	4e89                	li	t4,2
    17f4:	4e0d                	li	t3,3
    17f6:	41d19463          	bne	gp,t4,1bfe <fail>

000017fa <test_4>:
    17fa:	4085                	li	ra,1
    17fc:	411d                	li	sp,7
    17fe:	002091b3          	sll	gp,ra,sp
    1802:	08000e93          	li	t4,128
    1806:	4e11                	li	t3,4
    1808:	3fd19b63          	bne	gp,t4,1bfe <fail>

0000180c <test_5>:
    180c:	4085                	li	ra,1
    180e:	4139                	li	sp,14
    1810:	002091b3          	sll	gp,ra,sp
    1814:	6e91                	lui	t4,0x4
    1816:	4e15                	li	t3,5
    1818:	3fd19363          	bne	gp,t4,1bfe <fail>

0000181c <test_6>:
    181c:	4085                	li	ra,1
    181e:	417d                	li	sp,31
    1820:	002091b3          	sll	gp,ra,sp
    1824:	80000eb7          	lui	t4,0x80000
    1828:	4e19                	li	t3,6
    182a:	3dd19a63          	bne	gp,t4,1bfe <fail>

0000182e <test_7>:
    182e:	fff00093          	li	ra,-1
    1832:	4101                	li	sp,0
    1834:	002091b3          	sll	gp,ra,sp
    1838:	fff00e93          	li	t4,-1
    183c:	4e1d                	li	t3,7
    183e:	3dd19063          	bne	gp,t4,1bfe <fail>

00001842 <test_8>:
    1842:	fff00093          	li	ra,-1
    1846:	4105                	li	sp,1
    1848:	002091b3          	sll	gp,ra,sp
    184c:	ffe00e93          	li	t4,-2
    1850:	4e21                	li	t3,8
    1852:	3bd19663          	bne	gp,t4,1bfe <fail>

00001856 <test_9>:
    1856:	fff00093          	li	ra,-1
    185a:	411d                	li	sp,7
    185c:	002091b3          	sll	gp,ra,sp
    1860:	f8000e93          	li	t4,-128
    1864:	4e25                	li	t3,9
    1866:	39d19c63          	bne	gp,t4,1bfe <fail>

0000186a <test_10>:
    186a:	fff00093          	li	ra,-1
    186e:	4139                	li	sp,14
    1870:	002091b3          	sll	gp,ra,sp
    1874:	ffffceb7          	lui	t4,0xffffc
    1878:	4e29                	li	t3,10
    187a:	39d19263          	bne	gp,t4,1bfe <fail>

0000187e <test_11>:
    187e:	fff00093          	li	ra,-1
    1882:	417d                	li	sp,31
    1884:	002091b3          	sll	gp,ra,sp
    1888:	80000eb7          	lui	t4,0x80000
    188c:	4e2d                	li	t3,11
    188e:	37d19863          	bne	gp,t4,1bfe <fail>

00001892 <test_12>:
    1892:	212120b7          	lui	ra,0x21212
    1896:	12108093          	addi	ra,ra,289 # 21212121 <_sp+0x21200e41>
    189a:	4101                	li	sp,0
    189c:	002091b3          	sll	gp,ra,sp
    18a0:	21212eb7          	lui	t4,0x21212
    18a4:	121e8e93          	addi	t4,t4,289 # 21212121 <_sp+0x21200e41>
    18a8:	4e31                	li	t3,12
    18aa:	35d19a63          	bne	gp,t4,1bfe <fail>

000018ae <test_13>:
    18ae:	212120b7          	lui	ra,0x21212
    18b2:	12108093          	addi	ra,ra,289 # 21212121 <_sp+0x21200e41>
    18b6:	4105                	li	sp,1
    18b8:	002091b3          	sll	gp,ra,sp
    18bc:	42424eb7          	lui	t4,0x42424
    18c0:	242e8e93          	addi	t4,t4,578 # 42424242 <_sp+0x42412f62>
    18c4:	4e35                	li	t3,13
    18c6:	33d19c63          	bne	gp,t4,1bfe <fail>

000018ca <test_14>:
    18ca:	212120b7          	lui	ra,0x21212
    18ce:	12108093          	addi	ra,ra,289 # 21212121 <_sp+0x21200e41>
    18d2:	411d                	li	sp,7
    18d4:	002091b3          	sll	gp,ra,sp
    18d8:	90909eb7          	lui	t4,0x90909
    18dc:	080e8e93          	addi	t4,t4,128 # 90909080 <pulp__FC+0x90909081>
    18e0:	4e39                	li	t3,14
    18e2:	31d19e63          	bne	gp,t4,1bfe <fail>

000018e6 <test_15>:
    18e6:	212120b7          	lui	ra,0x21212
    18ea:	12108093          	addi	ra,ra,289 # 21212121 <_sp+0x21200e41>
    18ee:	4139                	li	sp,14
    18f0:	002091b3          	sll	gp,ra,sp
    18f4:	48484eb7          	lui	t4,0x48484
    18f8:	4e3d                	li	t3,15
    18fa:	31d19263          	bne	gp,t4,1bfe <fail>

000018fe <test_16>:
    18fe:	212120b7          	lui	ra,0x21212
    1902:	12108093          	addi	ra,ra,289 # 21212121 <_sp+0x21200e41>
    1906:	417d                	li	sp,31
    1908:	002091b3          	sll	gp,ra,sp
    190c:	80000eb7          	lui	t4,0x80000
    1910:	4e41                	li	t3,16
    1912:	2fd19663          	bne	gp,t4,1bfe <fail>

00001916 <test_17>:
    1916:	212120b7          	lui	ra,0x21212
    191a:	12108093          	addi	ra,ra,289 # 21212121 <_sp+0x21200e41>
    191e:	fe000113          	li	sp,-32
    1922:	002091b3          	sll	gp,ra,sp
    1926:	21212eb7          	lui	t4,0x21212
    192a:	121e8e93          	addi	t4,t4,289 # 21212121 <_sp+0x21200e41>
    192e:	4e45                	li	t3,17
    1930:	2dd19763          	bne	gp,t4,1bfe <fail>

00001934 <test_18>:
    1934:	212120b7          	lui	ra,0x21212
    1938:	12108093          	addi	ra,ra,289 # 21212121 <_sp+0x21200e41>
    193c:	fe100113          	li	sp,-31
    1940:	002091b3          	sll	gp,ra,sp
    1944:	42424eb7          	lui	t4,0x42424
    1948:	242e8e93          	addi	t4,t4,578 # 42424242 <_sp+0x42412f62>
    194c:	4e49                	li	t3,18
    194e:	2bd19863          	bne	gp,t4,1bfe <fail>

00001952 <test_19>:
    1952:	212120b7          	lui	ra,0x21212
    1956:	12108093          	addi	ra,ra,289 # 21212121 <_sp+0x21200e41>
    195a:	fe700113          	li	sp,-25
    195e:	002091b3          	sll	gp,ra,sp
    1962:	90909eb7          	lui	t4,0x90909
    1966:	080e8e93          	addi	t4,t4,128 # 90909080 <pulp__FC+0x90909081>
    196a:	4e4d                	li	t3,19
    196c:	29d19963          	bne	gp,t4,1bfe <fail>

00001970 <test_20>:
    1970:	212120b7          	lui	ra,0x21212
    1974:	12108093          	addi	ra,ra,289 # 21212121 <_sp+0x21200e41>
    1978:	fee00113          	li	sp,-18
    197c:	002091b3          	sll	gp,ra,sp
    1980:	48484eb7          	lui	t4,0x48484
    1984:	4e51                	li	t3,20
    1986:	27d19c63          	bne	gp,t4,1bfe <fail>

0000198a <test_21>:
    198a:	212120b7          	lui	ra,0x21212
    198e:	12008093          	addi	ra,ra,288 # 21212120 <_sp+0x21200e40>
    1992:	fff00113          	li	sp,-1
    1996:	002091b3          	sll	gp,ra,sp
    199a:	4e81                	li	t4,0
    199c:	4e55                	li	t3,21
    199e:	27d19063          	bne	gp,t4,1bfe <fail>

000019a2 <test_22>:
    19a2:	4085                	li	ra,1
    19a4:	411d                	li	sp,7
    19a6:	002090b3          	sll	ra,ra,sp
    19aa:	08000e93          	li	t4,128
    19ae:	4e59                	li	t3,22
    19b0:	25d09763          	bne	ra,t4,1bfe <fail>

000019b4 <test_23>:
    19b4:	4085                	li	ra,1
    19b6:	4139                	li	sp,14
    19b8:	00209133          	sll	sp,ra,sp
    19bc:	6e91                	lui	t4,0x4
    19be:	4e5d                	li	t3,23
    19c0:	23d11f63          	bne	sp,t4,1bfe <fail>

000019c4 <test_24>:
    19c4:	408d                	li	ra,3
    19c6:	001090b3          	sll	ra,ra,ra
    19ca:	4ee1                	li	t4,24
    19cc:	4e61                	li	t3,24
    19ce:	23d09863          	bne	ra,t4,1bfe <fail>

000019d2 <test_25>:
    19d2:	4201                	li	tp,0
    19d4:	4085                	li	ra,1
    19d6:	411d                	li	sp,7
    19d8:	002091b3          	sll	gp,ra,sp
    19dc:	00018313          	mv	t1,gp
    19e0:	0205                	addi	tp,tp,1
    19e2:	4289                	li	t0,2
    19e4:	fe5218e3          	bne	tp,t0,19d4 <test_25+0x2>
    19e8:	08000e93          	li	t4,128
    19ec:	4e65                	li	t3,25
    19ee:	21d31863          	bne	t1,t4,1bfe <fail>

000019f2 <test_26>:
    19f2:	4201                	li	tp,0
    19f4:	4085                	li	ra,1
    19f6:	4139                	li	sp,14
    19f8:	002091b3          	sll	gp,ra,sp
    19fc:	0001                	nop
    19fe:	00018313          	mv	t1,gp
    1a02:	0205                	addi	tp,tp,1
    1a04:	4289                	li	t0,2
    1a06:	fe5217e3          	bne	tp,t0,19f4 <test_26+0x2>
    1a0a:	6e91                	lui	t4,0x4
    1a0c:	4e69                	li	t3,26
    1a0e:	1fd31863          	bne	t1,t4,1bfe <fail>

00001a12 <test_27>:
    1a12:	4201                	li	tp,0
    1a14:	4085                	li	ra,1
    1a16:	417d                	li	sp,31
    1a18:	002091b3          	sll	gp,ra,sp
    1a1c:	0001                	nop
    1a1e:	0001                	nop
    1a20:	00018313          	mv	t1,gp
    1a24:	0205                	addi	tp,tp,1
    1a26:	4289                	li	t0,2
    1a28:	fe5216e3          	bne	tp,t0,1a14 <test_27+0x2>
    1a2c:	80000eb7          	lui	t4,0x80000
    1a30:	4e6d                	li	t3,27
    1a32:	1dd31663          	bne	t1,t4,1bfe <fail>

00001a36 <test_28>:
    1a36:	4201                	li	tp,0
    1a38:	4085                	li	ra,1
    1a3a:	411d                	li	sp,7
    1a3c:	002091b3          	sll	gp,ra,sp
    1a40:	0205                	addi	tp,tp,1
    1a42:	4289                	li	t0,2
    1a44:	fe521ae3          	bne	tp,t0,1a38 <test_28+0x2>
    1a48:	08000e93          	li	t4,128
    1a4c:	4e71                	li	t3,28
    1a4e:	1bd19863          	bne	gp,t4,1bfe <fail>

00001a52 <test_29>:
    1a52:	4201                	li	tp,0
    1a54:	4085                	li	ra,1
    1a56:	4139                	li	sp,14
    1a58:	0001                	nop
    1a5a:	002091b3          	sll	gp,ra,sp
    1a5e:	0205                	addi	tp,tp,1
    1a60:	4289                	li	t0,2
    1a62:	fe5219e3          	bne	tp,t0,1a54 <test_29+0x2>
    1a66:	6e91                	lui	t4,0x4
    1a68:	4e75                	li	t3,29
    1a6a:	19d19a63          	bne	gp,t4,1bfe <fail>

00001a6e <test_30>:
    1a6e:	4201                	li	tp,0
    1a70:	4085                	li	ra,1
    1a72:	417d                	li	sp,31
    1a74:	0001                	nop
    1a76:	0001                	nop
    1a78:	002091b3          	sll	gp,ra,sp
    1a7c:	0205                	addi	tp,tp,1
    1a7e:	4289                	li	t0,2
    1a80:	fe5218e3          	bne	tp,t0,1a70 <test_30+0x2>
    1a84:	80000eb7          	lui	t4,0x80000
    1a88:	4e79                	li	t3,30
    1a8a:	17d19a63          	bne	gp,t4,1bfe <fail>

00001a8e <test_31>:
    1a8e:	4201                	li	tp,0
    1a90:	4085                	li	ra,1
    1a92:	0001                	nop
    1a94:	411d                	li	sp,7
    1a96:	002091b3          	sll	gp,ra,sp
    1a9a:	0205                	addi	tp,tp,1
    1a9c:	4289                	li	t0,2
    1a9e:	fe5219e3          	bne	tp,t0,1a90 <test_31+0x2>
    1aa2:	08000e93          	li	t4,128
    1aa6:	4e7d                	li	t3,31
    1aa8:	15d19b63          	bne	gp,t4,1bfe <fail>

00001aac <test_32>:
    1aac:	4201                	li	tp,0
    1aae:	4085                	li	ra,1
    1ab0:	0001                	nop
    1ab2:	4139                	li	sp,14
    1ab4:	0001                	nop
    1ab6:	002091b3          	sll	gp,ra,sp
    1aba:	0205                	addi	tp,tp,1
    1abc:	4289                	li	t0,2
    1abe:	fe5218e3          	bne	tp,t0,1aae <test_32+0x2>
    1ac2:	6e91                	lui	t4,0x4
    1ac4:	02000e13          	li	t3,32
    1ac8:	13d19b63          	bne	gp,t4,1bfe <fail>

00001acc <test_33>:
    1acc:	4201                	li	tp,0
    1ace:	4085                	li	ra,1
    1ad0:	0001                	nop
    1ad2:	0001                	nop
    1ad4:	417d                	li	sp,31
    1ad6:	002091b3          	sll	gp,ra,sp
    1ada:	0205                	addi	tp,tp,1
    1adc:	4289                	li	t0,2
    1ade:	fe5218e3          	bne	tp,t0,1ace <test_33+0x2>
    1ae2:	80000eb7          	lui	t4,0x80000
    1ae6:	02100e13          	li	t3,33
    1aea:	11d19a63          	bne	gp,t4,1bfe <fail>

00001aee <test_34>:
    1aee:	4201                	li	tp,0
    1af0:	411d                	li	sp,7
    1af2:	4085                	li	ra,1
    1af4:	002091b3          	sll	gp,ra,sp
    1af8:	0205                	addi	tp,tp,1
    1afa:	4289                	li	t0,2
    1afc:	fe521ae3          	bne	tp,t0,1af0 <test_34+0x2>
    1b00:	08000e93          	li	t4,128
    1b04:	02200e13          	li	t3,34
    1b08:	0fd19b63          	bne	gp,t4,1bfe <fail>

00001b0c <test_35>:
    1b0c:	4201                	li	tp,0
    1b0e:	4139                	li	sp,14
    1b10:	4085                	li	ra,1
    1b12:	0001                	nop
    1b14:	002091b3          	sll	gp,ra,sp
    1b18:	0205                	addi	tp,tp,1
    1b1a:	4289                	li	t0,2
    1b1c:	fe5219e3          	bne	tp,t0,1b0e <test_35+0x2>
    1b20:	6e91                	lui	t4,0x4
    1b22:	02300e13          	li	t3,35
    1b26:	0dd19c63          	bne	gp,t4,1bfe <fail>

00001b2a <test_36>:
    1b2a:	4201                	li	tp,0
    1b2c:	417d                	li	sp,31
    1b2e:	4085                	li	ra,1
    1b30:	0001                	nop
    1b32:	0001                	nop
    1b34:	002091b3          	sll	gp,ra,sp
    1b38:	0205                	addi	tp,tp,1
    1b3a:	4289                	li	t0,2
    1b3c:	fe5218e3          	bne	tp,t0,1b2c <test_36+0x2>
    1b40:	80000eb7          	lui	t4,0x80000
    1b44:	02400e13          	li	t3,36
    1b48:	0bd19b63          	bne	gp,t4,1bfe <fail>

00001b4c <test_37>:
    1b4c:	4201                	li	tp,0
    1b4e:	411d                	li	sp,7
    1b50:	0001                	nop
    1b52:	4085                	li	ra,1
    1b54:	002091b3          	sll	gp,ra,sp
    1b58:	0205                	addi	tp,tp,1
    1b5a:	4289                	li	t0,2
    1b5c:	fe5219e3          	bne	tp,t0,1b4e <test_37+0x2>
    1b60:	08000e93          	li	t4,128
    1b64:	02500e13          	li	t3,37
    1b68:	09d19b63          	bne	gp,t4,1bfe <fail>

00001b6c <test_38>:
    1b6c:	4201                	li	tp,0
    1b6e:	4139                	li	sp,14
    1b70:	0001                	nop
    1b72:	4085                	li	ra,1
    1b74:	0001                	nop
    1b76:	002091b3          	sll	gp,ra,sp
    1b7a:	0205                	addi	tp,tp,1
    1b7c:	4289                	li	t0,2
    1b7e:	fe5218e3          	bne	tp,t0,1b6e <test_38+0x2>
    1b82:	6e91                	lui	t4,0x4
    1b84:	02600e13          	li	t3,38
    1b88:	07d19b63          	bne	gp,t4,1bfe <fail>

00001b8c <test_39>:
    1b8c:	4201                	li	tp,0
    1b8e:	417d                	li	sp,31
    1b90:	0001                	nop
    1b92:	0001                	nop
    1b94:	4085                	li	ra,1
    1b96:	002091b3          	sll	gp,ra,sp
    1b9a:	0205                	addi	tp,tp,1
    1b9c:	4289                	li	t0,2
    1b9e:	fe5218e3          	bne	tp,t0,1b8e <test_39+0x2>
    1ba2:	80000eb7          	lui	t4,0x80000
    1ba6:	02700e13          	li	t3,39
    1baa:	05d19a63          	bne	gp,t4,1bfe <fail>

00001bae <test_40>:
    1bae:	40bd                	li	ra,15
    1bb0:	00101133          	sll	sp,zero,ra
    1bb4:	4e81                	li	t4,0
    1bb6:	02800e13          	li	t3,40
    1bba:	05d11263          	bne	sp,t4,1bfe <fail>

00001bbe <test_41>:
    1bbe:	02000093          	li	ra,32
    1bc2:	00009133          	sll	sp,ra,zero
    1bc6:	02000e93          	li	t4,32
    1bca:	02900e13          	li	t3,41
    1bce:	03d11863          	bne	sp,t4,1bfe <fail>

00001bd2 <test_42>:
    1bd2:	000010b3          	sll	ra,zero,zero
    1bd6:	4e81                	li	t4,0
    1bd8:	02a00e13          	li	t3,42
    1bdc:	03d09163          	bne	ra,t4,1bfe <fail>

00001be0 <test_43>:
    1be0:	40000093          	li	ra,1024
    1be4:	00001137          	lui	sp,0x1
    1be8:	80010113          	addi	sp,sp,-2048 # 800 <test_22+0x24>
    1bec:	00209033          	sll	zero,ra,sp
    1bf0:	4e81                	li	t4,0
    1bf2:	02b00e13          	li	t3,43
    1bf6:	01d01463          	bne	zero,t4,1bfe <fail>
    1bfa:	03c01563          	bne	zero,t3,1c24 <pass>

00001bfe <fail>:
    1bfe:	10010537          	lui	a0,0x10010
    1c02:	00450513          	addi	a0,a0,4 # 10010004 <_sp+0xfffed24>
    1c06:	04500593          	li	a1,69
    1c0a:	05200613          	li	a2,82
    1c0e:	04f00693          	li	a3,79
    1c12:	00a00713          	li	a4,10
    1c16:	c10c                	sw	a1,0(a0)
    1c18:	c110                	sw	a2,0(a0)
    1c1a:	c110                	sw	a2,0(a0)
    1c1c:	c114                	sw	a3,0(a0)
    1c1e:	c110                	sw	a2,0(a0)
    1c20:	c118                	sw	a4,0(a0)
    1c22:	9002                	ebreak

00001c24 <pass>:
    1c24:	10010537          	lui	a0,0x10010
    1c28:	00450513          	addi	a0,a0,4 # 10010004 <_sp+0xfffed24>
    1c2c:	04f00593          	li	a1,79
    1c30:	04b00613          	li	a2,75
    1c34:	00a00693          	li	a3,10
    1c38:	c10c                	sw	a1,0(a0)
    1c3a:	c110                	sw	a2,0(a0)
    1c3c:	c114                	sw	a3,0(a0)
    1c3e:	000f0113          	mv	sp,t5
    1c42:	ffc12183          	lw	gp,-4(sp)
    1c46:	ff812083          	lw	ra,-8(sp)
    1c4a:	e84fe06f          	j	2ce <sll_ret>

00001c4e <lb>:
    1c4e:	00010f13          	mv	t5,sp
    1c52:	fe312e23          	sw	gp,-4(sp)
    1c56:	fe112c23          	sw	ra,-8(sp)
    1c5a:	83018513          	addi	a0,gp,-2000 # 1014c <lb_data>
    1c5e:	10010637          	lui	a2,0x10010
    1c62:	00460613          	addi	a2,a2,4 # 10010004 <_sp+0xfffed24>

00001c66 <.prname_next>:
    1c66:	00050583          	lb	a1,0(a0)
    1c6a:	00058663          	beqz	a1,1c76 <.prname_done>
    1c6e:	c20c                	sw	a1,0(a2)
    1c70:	0505                	addi	a0,a0,1
    1c72:	ff5ff06f          	j	1c66 <.prname_next>

00001c76 <.prname_done>:
    1c76:	02e00593          	li	a1,46
    1c7a:	c20c                	sw	a1,0(a2)
    1c7c:	c20c                	sw	a1,0(a2)

00001c7e <test_2>:
    1c7e:	0000e097          	auipc	ra,0xe
    1c82:	4d208093          	addi	ra,ra,1234 # 10150 <tdat>
    1c86:	00008183          	lb	gp,0(ra)
    1c8a:	fff00e93          	li	t4,-1
    1c8e:	4e09                	li	t3,2
    1c90:	1dd19363          	bne	gp,t4,1e56 <fail>

00001c94 <test_3>:
    1c94:	0000e097          	auipc	ra,0xe
    1c98:	4bc08093          	addi	ra,ra,1212 # 10150 <tdat>
    1c9c:	00108183          	lb	gp,1(ra)
    1ca0:	4e81                	li	t4,0
    1ca2:	4e0d                	li	t3,3
    1ca4:	1bd19963          	bne	gp,t4,1e56 <fail>

00001ca8 <test_4>:
    1ca8:	0000e097          	auipc	ra,0xe
    1cac:	4a808093          	addi	ra,ra,1192 # 10150 <tdat>
    1cb0:	00208183          	lb	gp,2(ra)
    1cb4:	ff000e93          	li	t4,-16
    1cb8:	4e11                	li	t3,4
    1cba:	19d19e63          	bne	gp,t4,1e56 <fail>

00001cbe <test_5>:
    1cbe:	0000e097          	auipc	ra,0xe
    1cc2:	49208093          	addi	ra,ra,1170 # 10150 <tdat>
    1cc6:	00308183          	lb	gp,3(ra)
    1cca:	4ebd                	li	t4,15
    1ccc:	4e15                	li	t3,5
    1cce:	19d19463          	bne	gp,t4,1e56 <fail>

00001cd2 <test_6>:
    1cd2:	0000e097          	auipc	ra,0xe
    1cd6:	48108093          	addi	ra,ra,1153 # 10153 <tdat4>
    1cda:	ffd08183          	lb	gp,-3(ra)
    1cde:	fff00e93          	li	t4,-1
    1ce2:	4e19                	li	t3,6
    1ce4:	17d19963          	bne	gp,t4,1e56 <fail>

00001ce8 <test_7>:
    1ce8:	0000e097          	auipc	ra,0xe
    1cec:	46b08093          	addi	ra,ra,1131 # 10153 <tdat4>
    1cf0:	ffe08183          	lb	gp,-2(ra)
    1cf4:	4e81                	li	t4,0
    1cf6:	4e1d                	li	t3,7
    1cf8:	15d19f63          	bne	gp,t4,1e56 <fail>

00001cfc <test_8>:
    1cfc:	0000e097          	auipc	ra,0xe
    1d00:	45708093          	addi	ra,ra,1111 # 10153 <tdat4>
    1d04:	fff08183          	lb	gp,-1(ra)
    1d08:	ff000e93          	li	t4,-16
    1d0c:	4e21                	li	t3,8
    1d0e:	15d19463          	bne	gp,t4,1e56 <fail>

00001d12 <test_9>:
    1d12:	0000e097          	auipc	ra,0xe
    1d16:	44108093          	addi	ra,ra,1089 # 10153 <tdat4>
    1d1a:	00008183          	lb	gp,0(ra)
    1d1e:	4ebd                	li	t4,15
    1d20:	4e25                	li	t3,9
    1d22:	13d19a63          	bne	gp,t4,1e56 <fail>

00001d26 <test_10>:
    1d26:	0000e097          	auipc	ra,0xe
    1d2a:	42a08093          	addi	ra,ra,1066 # 10150 <tdat>
    1d2e:	1081                	addi	ra,ra,-32
    1d30:	02008183          	lb	gp,32(ra)
    1d34:	fff00e93          	li	t4,-1
    1d38:	4e29                	li	t3,10
    1d3a:	11d19e63          	bne	gp,t4,1e56 <fail>

00001d3e <test_11>:
    1d3e:	0000e097          	auipc	ra,0xe
    1d42:	41208093          	addi	ra,ra,1042 # 10150 <tdat>
    1d46:	10e9                	addi	ra,ra,-6
    1d48:	00708183          	lb	gp,7(ra)
    1d4c:	4e81                	li	t4,0
    1d4e:	4e2d                	li	t3,11
    1d50:	11d19363          	bne	gp,t4,1e56 <fail>

00001d54 <test_12>:
    1d54:	4e31                	li	t3,12
    1d56:	4201                	li	tp,0
    1d58:	0000e097          	auipc	ra,0xe
    1d5c:	3f908093          	addi	ra,ra,1017 # 10151 <tdat2>
    1d60:	00108183          	lb	gp,1(ra)
    1d64:	00018313          	mv	t1,gp
    1d68:	ff000e93          	li	t4,-16
    1d6c:	0fd31563          	bne	t1,t4,1e56 <fail>
    1d70:	0205                	addi	tp,tp,1
    1d72:	4289                	li	t0,2
    1d74:	fe5212e3          	bne	tp,t0,1d58 <test_12+0x4>

00001d78 <test_13>:
    1d78:	4e35                	li	t3,13
    1d7a:	4201                	li	tp,0
    1d7c:	0000e097          	auipc	ra,0xe
    1d80:	3d608093          	addi	ra,ra,982 # 10152 <tdat3>
    1d84:	00108183          	lb	gp,1(ra)
    1d88:	0001                	nop
    1d8a:	00018313          	mv	t1,gp
    1d8e:	4ebd                	li	t4,15
    1d90:	0dd31363          	bne	t1,t4,1e56 <fail>
    1d94:	0205                	addi	tp,tp,1
    1d96:	4289                	li	t0,2
    1d98:	fe5212e3          	bne	tp,t0,1d7c <test_13+0x4>

00001d9c <test_14>:
    1d9c:	4e39                	li	t3,14
    1d9e:	4201                	li	tp,0
    1da0:	0000e097          	auipc	ra,0xe
    1da4:	3b008093          	addi	ra,ra,944 # 10150 <tdat>
    1da8:	00108183          	lb	gp,1(ra)
    1dac:	0001                	nop
    1dae:	0001                	nop
    1db0:	00018313          	mv	t1,gp
    1db4:	4e81                	li	t4,0
    1db6:	0bd31063          	bne	t1,t4,1e56 <fail>
    1dba:	0205                	addi	tp,tp,1
    1dbc:	4289                	li	t0,2
    1dbe:	fe5211e3          	bne	tp,t0,1da0 <test_14+0x4>

00001dc2 <test_15>:
    1dc2:	4e3d                	li	t3,15
    1dc4:	4201                	li	tp,0
    1dc6:	0000e097          	auipc	ra,0xe
    1dca:	38b08093          	addi	ra,ra,907 # 10151 <tdat2>
    1dce:	00108183          	lb	gp,1(ra)
    1dd2:	ff000e93          	li	t4,-16
    1dd6:	09d19063          	bne	gp,t4,1e56 <fail>
    1dda:	0205                	addi	tp,tp,1
    1ddc:	4289                	li	t0,2
    1dde:	fe5214e3          	bne	tp,t0,1dc6 <test_15+0x4>

00001de2 <test_16>:
    1de2:	4e41                	li	t3,16
    1de4:	4201                	li	tp,0
    1de6:	0000e097          	auipc	ra,0xe
    1dea:	36c08093          	addi	ra,ra,876 # 10152 <tdat3>
    1dee:	0001                	nop
    1df0:	00108183          	lb	gp,1(ra)
    1df4:	4ebd                	li	t4,15
    1df6:	07d19063          	bne	gp,t4,1e56 <fail>
    1dfa:	0205                	addi	tp,tp,1
    1dfc:	4289                	li	t0,2
    1dfe:	fe5214e3          	bne	tp,t0,1de6 <test_16+0x4>

00001e02 <test_17>:
    1e02:	4e45                	li	t3,17
    1e04:	4201                	li	tp,0
    1e06:	0000e097          	auipc	ra,0xe
    1e0a:	34a08093          	addi	ra,ra,842 # 10150 <tdat>
    1e0e:	0001                	nop
    1e10:	0001                	nop
    1e12:	00108183          	lb	gp,1(ra)
    1e16:	4e81                	li	t4,0
    1e18:	03d19f63          	bne	gp,t4,1e56 <fail>
    1e1c:	0205                	addi	tp,tp,1
    1e1e:	4289                	li	t0,2
    1e20:	fe5213e3          	bne	tp,t0,1e06 <test_17+0x4>

00001e24 <test_18>:
    1e24:	0000e197          	auipc	gp,0xe
    1e28:	32c18193          	addi	gp,gp,812 # 10150 <tdat>
    1e2c:	00018103          	lb	sp,0(gp) # 1091c <__global_pointer$>
    1e30:	4109                	li	sp,2
    1e32:	4e89                	li	t4,2
    1e34:	4e49                	li	t3,18
    1e36:	03d11063          	bne	sp,t4,1e56 <fail>

00001e3a <test_19>:
    1e3a:	0000e197          	auipc	gp,0xe
    1e3e:	31618193          	addi	gp,gp,790 # 10150 <tdat>
    1e42:	00018103          	lb	sp,0(gp) # 1091c <__global_pointer$>
    1e46:	0001                	nop
    1e48:	4109                	li	sp,2
    1e4a:	4e89                	li	t4,2
    1e4c:	4e4d                	li	t3,19
    1e4e:	01d11463          	bne	sp,t4,1e56 <fail>
    1e52:	03c01563          	bne	zero,t3,1e7c <pass>

00001e56 <fail>:
    1e56:	10010537          	lui	a0,0x10010
    1e5a:	00450513          	addi	a0,a0,4 # 10010004 <_sp+0xfffed24>
    1e5e:	04500593          	li	a1,69
    1e62:	05200613          	li	a2,82
    1e66:	04f00693          	li	a3,79
    1e6a:	00a00713          	li	a4,10
    1e6e:	c10c                	sw	a1,0(a0)
    1e70:	c110                	sw	a2,0(a0)
    1e72:	c110                	sw	a2,0(a0)
    1e74:	c114                	sw	a3,0(a0)
    1e76:	c110                	sw	a2,0(a0)
    1e78:	c118                	sw	a4,0(a0)
    1e7a:	9002                	ebreak

00001e7c <pass>:
    1e7c:	10010537          	lui	a0,0x10010
    1e80:	00450513          	addi	a0,a0,4 # 10010004 <_sp+0xfffed24>
    1e84:	04f00593          	li	a1,79
    1e88:	04b00613          	li	a2,75
    1e8c:	00a00693          	li	a3,10
    1e90:	c10c                	sw	a1,0(a0)
    1e92:	c110                	sw	a2,0(a0)
    1e94:	c114                	sw	a3,0(a0)
    1e96:	000f0113          	mv	sp,t5
    1e9a:	ffc12183          	lw	gp,-4(sp)
    1e9e:	ff812083          	lw	ra,-8(sp)
    1ea2:	b9cfe06f          	j	23e <lb_ret>

00001ea6 <lh>:
    1ea6:	00010f13          	mv	t5,sp
    1eaa:	fe312e23          	sw	gp,-4(sp)
    1eae:	fe112c23          	sw	ra,-8(sp)
    1eb2:	83818513          	addi	a0,gp,-1992 # 10154 <lh_data>
    1eb6:	10010637          	lui	a2,0x10010
    1eba:	00460613          	addi	a2,a2,4 # 10010004 <_sp+0xfffed24>

00001ebe <.prname_next>:
    1ebe:	00050583          	lb	a1,0(a0)
    1ec2:	00058663          	beqz	a1,1ece <.prname_done>
    1ec6:	c20c                	sw	a1,0(a2)
    1ec8:	0505                	addi	a0,a0,1
    1eca:	ff5ff06f          	j	1ebe <.prname_next>

00001ece <.prname_done>:
    1ece:	02e00593          	li	a1,46
    1ed2:	c20c                	sw	a1,0(a2)
    1ed4:	c20c                	sw	a1,0(a2)

00001ed6 <test_2>:
    1ed6:	0000e097          	auipc	ra,0xe
    1eda:	28208093          	addi	ra,ra,642 # 10158 <tdat>
    1ede:	00009183          	lh	gp,0(ra)
    1ee2:	0ff00e93          	li	t4,255
    1ee6:	4e09                	li	t3,2
    1ee8:	1fd19c63          	bne	gp,t4,20e0 <fail>

00001eec <test_3>:
    1eec:	0000e097          	auipc	ra,0xe
    1ef0:	26c08093          	addi	ra,ra,620 # 10158 <tdat>
    1ef4:	00209183          	lh	gp,2(ra)
    1ef8:	f0000e93          	li	t4,-256
    1efc:	4e0d                	li	t3,3
    1efe:	1fd19163          	bne	gp,t4,20e0 <fail>

00001f02 <test_4>:
    1f02:	0000e097          	auipc	ra,0xe
    1f06:	25608093          	addi	ra,ra,598 # 10158 <tdat>
    1f0a:	00409183          	lh	gp,4(ra)
    1f0e:	00001eb7          	lui	t4,0x1
    1f12:	ff0e8e93          	addi	t4,t4,-16 # ff0 <test_16+0x8>
    1f16:	4e11                	li	t3,4
    1f18:	1dd19463          	bne	gp,t4,20e0 <fail>

00001f1c <test_5>:
    1f1c:	0000e097          	auipc	ra,0xe
    1f20:	23c08093          	addi	ra,ra,572 # 10158 <tdat>
    1f24:	00609183          	lh	gp,6(ra)
    1f28:	fffffeb7          	lui	t4,0xfffff
    1f2c:	00fe8e93          	addi	t4,t4,15 # fffff00f <pulp__FC+0xfffff010>
    1f30:	4e15                	li	t3,5
    1f32:	1bd19763          	bne	gp,t4,20e0 <fail>

00001f36 <test_6>:
    1f36:	0000e097          	auipc	ra,0xe
    1f3a:	22808093          	addi	ra,ra,552 # 1015e <tdat4>
    1f3e:	ffa09183          	lh	gp,-6(ra)
    1f42:	0ff00e93          	li	t4,255
    1f46:	4e19                	li	t3,6
    1f48:	19d19c63          	bne	gp,t4,20e0 <fail>

00001f4c <test_7>:
    1f4c:	0000e097          	auipc	ra,0xe
    1f50:	21208093          	addi	ra,ra,530 # 1015e <tdat4>
    1f54:	ffc09183          	lh	gp,-4(ra)
    1f58:	f0000e93          	li	t4,-256
    1f5c:	4e1d                	li	t3,7
    1f5e:	19d19163          	bne	gp,t4,20e0 <fail>

00001f62 <test_8>:
    1f62:	0000e097          	auipc	ra,0xe
    1f66:	1fc08093          	addi	ra,ra,508 # 1015e <tdat4>
    1f6a:	ffe09183          	lh	gp,-2(ra)
    1f6e:	00001eb7          	lui	t4,0x1
    1f72:	ff0e8e93          	addi	t4,t4,-16 # ff0 <test_16+0x8>
    1f76:	4e21                	li	t3,8
    1f78:	17d19463          	bne	gp,t4,20e0 <fail>

00001f7c <test_9>:
    1f7c:	0000e097          	auipc	ra,0xe
    1f80:	1e208093          	addi	ra,ra,482 # 1015e <tdat4>
    1f84:	00009183          	lh	gp,0(ra)
    1f88:	fffffeb7          	lui	t4,0xfffff
    1f8c:	00fe8e93          	addi	t4,t4,15 # fffff00f <pulp__FC+0xfffff010>
    1f90:	4e25                	li	t3,9
    1f92:	15d19763          	bne	gp,t4,20e0 <fail>

00001f96 <test_10>:
    1f96:	0000e097          	auipc	ra,0xe
    1f9a:	1c208093          	addi	ra,ra,450 # 10158 <tdat>
    1f9e:	1081                	addi	ra,ra,-32
    1fa0:	02009183          	lh	gp,32(ra)
    1fa4:	0ff00e93          	li	t4,255
    1fa8:	4e29                	li	t3,10
    1faa:	13d19b63          	bne	gp,t4,20e0 <fail>

00001fae <test_11>:
    1fae:	0000e097          	auipc	ra,0xe
    1fb2:	1aa08093          	addi	ra,ra,426 # 10158 <tdat>
    1fb6:	10ed                	addi	ra,ra,-5
    1fb8:	00709183          	lh	gp,7(ra)
    1fbc:	f0000e93          	li	t4,-256
    1fc0:	4e2d                	li	t3,11
    1fc2:	11d19f63          	bne	gp,t4,20e0 <fail>

00001fc6 <test_12>:
    1fc6:	4e31                	li	t3,12
    1fc8:	4201                	li	tp,0
    1fca:	0000e097          	auipc	ra,0xe
    1fce:	19008093          	addi	ra,ra,400 # 1015a <tdat2>
    1fd2:	00209183          	lh	gp,2(ra)
    1fd6:	00018313          	mv	t1,gp
    1fda:	00001eb7          	lui	t4,0x1
    1fde:	ff0e8e93          	addi	t4,t4,-16 # ff0 <test_16+0x8>
    1fe2:	0fd31f63          	bne	t1,t4,20e0 <fail>
    1fe6:	0205                	addi	tp,tp,1
    1fe8:	4289                	li	t0,2
    1fea:	fe5210e3          	bne	tp,t0,1fca <test_12+0x4>

00001fee <test_13>:
    1fee:	4e35                	li	t3,13
    1ff0:	4201                	li	tp,0
    1ff2:	0000e097          	auipc	ra,0xe
    1ff6:	16a08093          	addi	ra,ra,362 # 1015c <tdat3>
    1ffa:	00209183          	lh	gp,2(ra)
    1ffe:	0001                	nop
    2000:	00018313          	mv	t1,gp
    2004:	fffffeb7          	lui	t4,0xfffff
    2008:	00fe8e93          	addi	t4,t4,15 # fffff00f <pulp__FC+0xfffff010>
    200c:	0dd31a63          	bne	t1,t4,20e0 <fail>
    2010:	0205                	addi	tp,tp,1
    2012:	4289                	li	t0,2
    2014:	fc521fe3          	bne	tp,t0,1ff2 <test_13+0x4>

00002018 <test_14>:
    2018:	4e39                	li	t3,14
    201a:	4201                	li	tp,0
    201c:	0000e097          	auipc	ra,0xe
    2020:	13c08093          	addi	ra,ra,316 # 10158 <tdat>
    2024:	00209183          	lh	gp,2(ra)
    2028:	0001                	nop
    202a:	0001                	nop
    202c:	00018313          	mv	t1,gp
    2030:	f0000e93          	li	t4,-256
    2034:	0bd31663          	bne	t1,t4,20e0 <fail>
    2038:	0205                	addi	tp,tp,1
    203a:	4289                	li	t0,2
    203c:	fe5210e3          	bne	tp,t0,201c <test_14+0x4>

00002040 <test_15>:
    2040:	4e3d                	li	t3,15
    2042:	4201                	li	tp,0
    2044:	0000e097          	auipc	ra,0xe
    2048:	11608093          	addi	ra,ra,278 # 1015a <tdat2>
    204c:	00209183          	lh	gp,2(ra)
    2050:	00001eb7          	lui	t4,0x1
    2054:	ff0e8e93          	addi	t4,t4,-16 # ff0 <test_16+0x8>
    2058:	09d19463          	bne	gp,t4,20e0 <fail>
    205c:	0205                	addi	tp,tp,1
    205e:	4289                	li	t0,2
    2060:	fe5212e3          	bne	tp,t0,2044 <test_15+0x4>

00002064 <test_16>:
    2064:	4e41                	li	t3,16
    2066:	4201                	li	tp,0
    2068:	0000e097          	auipc	ra,0xe
    206c:	0f408093          	addi	ra,ra,244 # 1015c <tdat3>
    2070:	0001                	nop
    2072:	00209183          	lh	gp,2(ra)
    2076:	fffffeb7          	lui	t4,0xfffff
    207a:	00fe8e93          	addi	t4,t4,15 # fffff00f <pulp__FC+0xfffff010>
    207e:	07d19163          	bne	gp,t4,20e0 <fail>
    2082:	0205                	addi	tp,tp,1
    2084:	4289                	li	t0,2
    2086:	fe5211e3          	bne	tp,t0,2068 <test_16+0x4>

0000208a <test_17>:
    208a:	4e45                	li	t3,17
    208c:	4201                	li	tp,0
    208e:	0000e097          	auipc	ra,0xe
    2092:	0ca08093          	addi	ra,ra,202 # 10158 <tdat>
    2096:	0001                	nop
    2098:	0001                	nop
    209a:	00209183          	lh	gp,2(ra)
    209e:	f0000e93          	li	t4,-256
    20a2:	03d19f63          	bne	gp,t4,20e0 <fail>
    20a6:	0205                	addi	tp,tp,1
    20a8:	4289                	li	t0,2
    20aa:	fe5212e3          	bne	tp,t0,208e <test_17+0x4>

000020ae <test_18>:
    20ae:	0000e197          	auipc	gp,0xe
    20b2:	0aa18193          	addi	gp,gp,170 # 10158 <tdat>
    20b6:	00019103          	lh	sp,0(gp) # 1091c <__global_pointer$>
    20ba:	4109                	li	sp,2
    20bc:	4e89                	li	t4,2
    20be:	4e49                	li	t3,18
    20c0:	03d11063          	bne	sp,t4,20e0 <fail>

000020c4 <test_19>:
    20c4:	0000e197          	auipc	gp,0xe
    20c8:	09418193          	addi	gp,gp,148 # 10158 <tdat>
    20cc:	00019103          	lh	sp,0(gp) # 1091c <__global_pointer$>
    20d0:	0001                	nop
    20d2:	4109                	li	sp,2
    20d4:	4e89                	li	t4,2
    20d6:	4e4d                	li	t3,19
    20d8:	01d11463          	bne	sp,t4,20e0 <fail>
    20dc:	03c01563          	bne	zero,t3,2106 <pass>

000020e0 <fail>:
    20e0:	10010537          	lui	a0,0x10010
    20e4:	00450513          	addi	a0,a0,4 # 10010004 <_sp+0xfffed24>
    20e8:	04500593          	li	a1,69
    20ec:	05200613          	li	a2,82
    20f0:	04f00693          	li	a3,79
    20f4:	00a00713          	li	a4,10
    20f8:	c10c                	sw	a1,0(a0)
    20fa:	c110                	sw	a2,0(a0)
    20fc:	c110                	sw	a2,0(a0)
    20fe:	c114                	sw	a3,0(a0)
    2100:	c110                	sw	a2,0(a0)
    2102:	c118                	sw	a4,0(a0)
    2104:	9002                	ebreak

00002106 <pass>:
    2106:	10010537          	lui	a0,0x10010
    210a:	00450513          	addi	a0,a0,4 # 10010004 <_sp+0xfffed24>
    210e:	04f00593          	li	a1,79
    2112:	04b00613          	li	a2,75
    2116:	00a00693          	li	a3,10
    211a:	c10c                	sw	a1,0(a0)
    211c:	c110                	sw	a2,0(a0)
    211e:	c114                	sw	a3,0(a0)
    2120:	000f0113          	mv	sp,t5
    2124:	ffc12183          	lw	gp,-4(sp)
    2128:	ff812083          	lw	ra,-8(sp)
    212c:	91afe06f          	j	246 <lh_ret>

00002130 <bge>:
    2130:	00010f13          	mv	t5,sp
    2134:	fe312e23          	sw	gp,-4(sp)
    2138:	fe112c23          	sw	ra,-8(sp)
    213c:	84418513          	addi	a0,gp,-1980 # 10160 <bge_data>
    2140:	10010637          	lui	a2,0x10010
    2144:	00460613          	addi	a2,a2,4 # 10010004 <_sp+0xfffed24>

00002148 <.prname_next>:
    2148:	00050583          	lb	a1,0(a0)
    214c:	00058663          	beqz	a1,2158 <.prname_done>
    2150:	c20c                	sw	a1,0(a2)
    2152:	0505                	addi	a0,a0,1
    2154:	ff5ff06f          	j	2148 <.prname_next>

00002158 <.prname_done>:
    2158:	02e00593          	li	a1,46
    215c:	c20c                	sw	a1,0(a2)
    215e:	c20c                	sw	a1,0(a2)

00002160 <test_2>:
    2160:	4e09                	li	t3,2
    2162:	4081                	li	ra,0
    2164:	4101                	li	sp,0
    2166:	0020d663          	ble	sp,ra,2172 <test_2+0x12>
    216a:	21c01c63          	bne	zero,t3,2382 <fail>
    216e:	01c01663          	bne	zero,t3,217a <test_3>
    2172:	fe20dee3          	ble	sp,ra,216e <test_2+0xe>
    2176:	21c01663          	bne	zero,t3,2382 <fail>

0000217a <test_3>:
    217a:	4e0d                	li	t3,3
    217c:	4085                	li	ra,1
    217e:	4105                	li	sp,1
    2180:	0020d663          	ble	sp,ra,218c <test_3+0x12>
    2184:	1fc01f63          	bne	zero,t3,2382 <fail>
    2188:	01c01663          	bne	zero,t3,2194 <test_4>
    218c:	fe20dee3          	ble	sp,ra,2188 <test_3+0xe>
    2190:	1fc01963          	bne	zero,t3,2382 <fail>

00002194 <test_4>:
    2194:	4e11                	li	t3,4
    2196:	50fd                	li	ra,-1
    2198:	517d                	li	sp,-1
    219a:	0020d663          	ble	sp,ra,21a6 <test_4+0x12>
    219e:	1fc01263          	bne	zero,t3,2382 <fail>
    21a2:	01c01663          	bne	zero,t3,21ae <test_5>
    21a6:	fe20dee3          	ble	sp,ra,21a2 <test_4+0xe>
    21aa:	1dc01c63          	bne	zero,t3,2382 <fail>

000021ae <test_5>:
    21ae:	4e15                	li	t3,5
    21b0:	4085                	li	ra,1
    21b2:	4101                	li	sp,0
    21b4:	0020d663          	ble	sp,ra,21c0 <test_5+0x12>
    21b8:	1dc01563          	bne	zero,t3,2382 <fail>
    21bc:	01c01663          	bne	zero,t3,21c8 <test_6>
    21c0:	fe20dee3          	ble	sp,ra,21bc <test_5+0xe>
    21c4:	1bc01f63          	bne	zero,t3,2382 <fail>

000021c8 <test_6>:
    21c8:	4e19                	li	t3,6
    21ca:	4085                	li	ra,1
    21cc:	517d                	li	sp,-1
    21ce:	0020d663          	ble	sp,ra,21da <test_6+0x12>
    21d2:	1bc01863          	bne	zero,t3,2382 <fail>
    21d6:	01c01663          	bne	zero,t3,21e2 <test_7>
    21da:	fe20dee3          	ble	sp,ra,21d6 <test_6+0xe>
    21de:	1bc01263          	bne	zero,t3,2382 <fail>

000021e2 <test_7>:
    21e2:	4e1d                	li	t3,7
    21e4:	50fd                	li	ra,-1
    21e6:	5179                	li	sp,-2
    21e8:	0020d663          	ble	sp,ra,21f4 <test_7+0x12>
    21ec:	19c01b63          	bne	zero,t3,2382 <fail>
    21f0:	01c01663          	bne	zero,t3,21fc <test_8>
    21f4:	fe20dee3          	ble	sp,ra,21f0 <test_7+0xe>
    21f8:	19c01563          	bne	zero,t3,2382 <fail>

000021fc <test_8>:
    21fc:	4e21                	li	t3,8
    21fe:	4081                	li	ra,0
    2200:	4105                	li	sp,1
    2202:	0020d463          	ble	sp,ra,220a <test_8+0xe>
    2206:	01c01463          	bne	zero,t3,220e <test_8+0x12>
    220a:	17c01c63          	bne	zero,t3,2382 <fail>
    220e:	fe20dee3          	ble	sp,ra,220a <test_8+0xe>

00002212 <test_9>:
    2212:	4e25                	li	t3,9
    2214:	50fd                	li	ra,-1
    2216:	4105                	li	sp,1
    2218:	0020d463          	ble	sp,ra,2220 <test_9+0xe>
    221c:	01c01463          	bne	zero,t3,2224 <test_9+0x12>
    2220:	17c01163          	bne	zero,t3,2382 <fail>
    2224:	fe20dee3          	ble	sp,ra,2220 <test_9+0xe>

00002228 <test_10>:
    2228:	4e29                	li	t3,10
    222a:	50f9                	li	ra,-2
    222c:	517d                	li	sp,-1
    222e:	0020d463          	ble	sp,ra,2236 <test_10+0xe>
    2232:	01c01463          	bne	zero,t3,223a <test_10+0x12>
    2236:	15c01663          	bne	zero,t3,2382 <fail>
    223a:	fe20dee3          	ble	sp,ra,2236 <test_10+0xe>

0000223e <test_11>:
    223e:	4e2d                	li	t3,11
    2240:	50f9                	li	ra,-2
    2242:	4105                	li	sp,1
    2244:	0020d463          	ble	sp,ra,224c <test_11+0xe>
    2248:	01c01463          	bne	zero,t3,2250 <test_11+0x12>
    224c:	13c01b63          	bne	zero,t3,2382 <fail>
    2250:	fe20dee3          	ble	sp,ra,224c <test_11+0xe>

00002254 <test_12>:
    2254:	4e31                	li	t3,12
    2256:	4201                	li	tp,0
    2258:	50fd                	li	ra,-1
    225a:	4101                	li	sp,0
    225c:	1220d363          	ble	sp,ra,2382 <fail>
    2260:	0205                	addi	tp,tp,1
    2262:	4289                	li	t0,2
    2264:	fe521ae3          	bne	tp,t0,2258 <test_12+0x4>

00002268 <test_13>:
    2268:	4e35                	li	t3,13
    226a:	4201                	li	tp,0
    226c:	50fd                	li	ra,-1
    226e:	4101                	li	sp,0
    2270:	0001                	nop
    2272:	1020d863          	ble	sp,ra,2382 <fail>
    2276:	0205                	addi	tp,tp,1
    2278:	4289                	li	t0,2
    227a:	fe5219e3          	bne	tp,t0,226c <test_13+0x4>

0000227e <test_14>:
    227e:	4e39                	li	t3,14
    2280:	4201                	li	tp,0
    2282:	50fd                	li	ra,-1
    2284:	4101                	li	sp,0
    2286:	0001                	nop
    2288:	0001                	nop
    228a:	0e20dc63          	ble	sp,ra,2382 <fail>
    228e:	0205                	addi	tp,tp,1
    2290:	4289                	li	t0,2
    2292:	fe5218e3          	bne	tp,t0,2282 <test_14+0x4>

00002296 <test_15>:
    2296:	4e3d                	li	t3,15
    2298:	4201                	li	tp,0
    229a:	50fd                	li	ra,-1
    229c:	0001                	nop
    229e:	4101                	li	sp,0
    22a0:	0e20d163          	ble	sp,ra,2382 <fail>
    22a4:	0205                	addi	tp,tp,1
    22a6:	4289                	li	t0,2
    22a8:	fe5219e3          	bne	tp,t0,229a <test_15+0x4>

000022ac <test_16>:
    22ac:	4e41                	li	t3,16
    22ae:	4201                	li	tp,0
    22b0:	50fd                	li	ra,-1
    22b2:	0001                	nop
    22b4:	4101                	li	sp,0
    22b6:	0001                	nop
    22b8:	0c20d563          	ble	sp,ra,2382 <fail>
    22bc:	0205                	addi	tp,tp,1
    22be:	4289                	li	t0,2
    22c0:	fe5218e3          	bne	tp,t0,22b0 <test_16+0x4>

000022c4 <test_17>:
    22c4:	4e45                	li	t3,17
    22c6:	4201                	li	tp,0
    22c8:	50fd                	li	ra,-1
    22ca:	0001                	nop
    22cc:	0001                	nop
    22ce:	4101                	li	sp,0
    22d0:	0a20d963          	ble	sp,ra,2382 <fail>
    22d4:	0205                	addi	tp,tp,1
    22d6:	4289                	li	t0,2
    22d8:	fe5218e3          	bne	tp,t0,22c8 <test_17+0x4>

000022dc <test_18>:
    22dc:	4e49                	li	t3,18
    22de:	4201                	li	tp,0
    22e0:	50fd                	li	ra,-1
    22e2:	4101                	li	sp,0
    22e4:	0820df63          	ble	sp,ra,2382 <fail>
    22e8:	0205                	addi	tp,tp,1
    22ea:	4289                	li	t0,2
    22ec:	fe521ae3          	bne	tp,t0,22e0 <test_18+0x4>

000022f0 <test_19>:
    22f0:	4e4d                	li	t3,19
    22f2:	4201                	li	tp,0
    22f4:	50fd                	li	ra,-1
    22f6:	4101                	li	sp,0
    22f8:	0001                	nop
    22fa:	0820d463          	ble	sp,ra,2382 <fail>
    22fe:	0205                	addi	tp,tp,1
    2300:	4289                	li	t0,2
    2302:	fe5219e3          	bne	tp,t0,22f4 <test_19+0x4>

00002306 <test_20>:
    2306:	4e51                	li	t3,20
    2308:	4201                	li	tp,0
    230a:	50fd                	li	ra,-1
    230c:	4101                	li	sp,0
    230e:	0001                	nop
    2310:	0001                	nop
    2312:	0620d863          	ble	sp,ra,2382 <fail>
    2316:	0205                	addi	tp,tp,1
    2318:	4289                	li	t0,2
    231a:	fe5218e3          	bne	tp,t0,230a <test_20+0x4>

0000231e <test_21>:
    231e:	4e55                	li	t3,21
    2320:	4201                	li	tp,0
    2322:	50fd                	li	ra,-1
    2324:	0001                	nop
    2326:	4101                	li	sp,0
    2328:	0420dd63          	ble	sp,ra,2382 <fail>
    232c:	0205                	addi	tp,tp,1
    232e:	4289                	li	t0,2
    2330:	fe5219e3          	bne	tp,t0,2322 <test_21+0x4>

00002334 <test_22>:
    2334:	4e59                	li	t3,22
    2336:	4201                	li	tp,0
    2338:	50fd                	li	ra,-1
    233a:	0001                	nop
    233c:	4101                	li	sp,0
    233e:	0001                	nop
    2340:	0420d163          	ble	sp,ra,2382 <fail>
    2344:	0205                	addi	tp,tp,1
    2346:	4289                	li	t0,2
    2348:	fe5218e3          	bne	tp,t0,2338 <test_22+0x4>

0000234c <test_23>:
    234c:	4e5d                	li	t3,23
    234e:	4201                	li	tp,0
    2350:	50fd                	li	ra,-1
    2352:	0001                	nop
    2354:	0001                	nop
    2356:	4101                	li	sp,0
    2358:	0220d563          	ble	sp,ra,2382 <fail>
    235c:	0205                	addi	tp,tp,1
    235e:	4289                	li	t0,2
    2360:	fe5218e3          	bne	tp,t0,2350 <test_23+0x4>

00002364 <test_24>:
    2364:	4085                	li	ra,1
    2366:	0000d663          	bgez	ra,2372 <test_24+0xe>
    236a:	0085                	addi	ra,ra,1
    236c:	0085                	addi	ra,ra,1
    236e:	0085                	addi	ra,ra,1
    2370:	0085                	addi	ra,ra,1
    2372:	0085                	addi	ra,ra,1
    2374:	0085                	addi	ra,ra,1
    2376:	4e8d                	li	t4,3
    2378:	4e61                	li	t3,24
    237a:	01d09463          	bne	ra,t4,2382 <fail>
    237e:	03c01563          	bne	zero,t3,23a8 <pass>

00002382 <fail>:
    2382:	10010537          	lui	a0,0x10010
    2386:	00450513          	addi	a0,a0,4 # 10010004 <_sp+0xfffed24>
    238a:	04500593          	li	a1,69
    238e:	05200613          	li	a2,82
    2392:	04f00693          	li	a3,79
    2396:	00a00713          	li	a4,10
    239a:	c10c                	sw	a1,0(a0)
    239c:	c110                	sw	a2,0(a0)
    239e:	c110                	sw	a2,0(a0)
    23a0:	c114                	sw	a3,0(a0)
    23a2:	c110                	sw	a2,0(a0)
    23a4:	c118                	sw	a4,0(a0)
    23a6:	9002                	ebreak

000023a8 <pass>:
    23a8:	10010537          	lui	a0,0x10010
    23ac:	00450513          	addi	a0,a0,4 # 10010004 <_sp+0xfffed24>
    23b0:	04f00593          	li	a1,79
    23b4:	04b00613          	li	a2,75
    23b8:	00a00693          	li	a3,10
    23bc:	c10c                	sw	a1,0(a0)
    23be:	c110                	sw	a2,0(a0)
    23c0:	c114                	sw	a3,0(a0)
    23c2:	000f0113          	mv	sp,t5
    23c6:	ffc12183          	lw	gp,-4(sp)
    23ca:	ff812083          	lw	ra,-8(sp)
    23ce:	e59fd06f          	j	226 <bge_ret>

000023d2 <srai>:
    23d2:	00010f13          	mv	t5,sp
    23d6:	fe312e23          	sw	gp,-4(sp)
    23da:	fe112c23          	sw	ra,-8(sp)
    23de:	84818513          	addi	a0,gp,-1976 # 10164 <srai_data>
    23e2:	10010637          	lui	a2,0x10010
    23e6:	00460613          	addi	a2,a2,4 # 10010004 <_sp+0xfffed24>

000023ea <.prname_next>:
    23ea:	00050583          	lb	a1,0(a0)
    23ee:	00058663          	beqz	a1,23fa <.prname_done>
    23f2:	c20c                	sw	a1,0(a2)
    23f4:	0505                	addi	a0,a0,1
    23f6:	ff5ff06f          	j	23ea <.prname_next>

000023fa <.prname_done>:
    23fa:	02e00593          	li	a1,46
    23fe:	c20c                	sw	a1,0(a2)
    2400:	c20c                	sw	a1,0(a2)

00002402 <test_2>:
    2402:	4081                	li	ra,0
    2404:	4000d193          	srai	gp,ra,0x0
    2408:	4e81                	li	t4,0
    240a:	4e09                	li	t3,2
    240c:	25d19263          	bne	gp,t4,2650 <fail>

00002410 <test_3>:
    2410:	800000b7          	lui	ra,0x80000
    2414:	4010d193          	srai	gp,ra,0x1
    2418:	c0000eb7          	lui	t4,0xc0000
    241c:	4e0d                	li	t3,3
    241e:	23d19963          	bne	gp,t4,2650 <fail>

00002422 <test_4>:
    2422:	800000b7          	lui	ra,0x80000
    2426:	4070d193          	srai	gp,ra,0x7
    242a:	ff000eb7          	lui	t4,0xff000
    242e:	4e11                	li	t3,4
    2430:	23d19063          	bne	gp,t4,2650 <fail>

00002434 <test_5>:
    2434:	800000b7          	lui	ra,0x80000
    2438:	40e0d193          	srai	gp,ra,0xe
    243c:	fffe0eb7          	lui	t4,0xfffe0
    2440:	4e15                	li	t3,5
    2442:	21d19763          	bne	gp,t4,2650 <fail>

00002446 <test_6>:
    2446:	800000b7          	lui	ra,0x80000
    244a:	00108093          	addi	ra,ra,1 # 80000001 <pulp__FC+0x80000002>
    244e:	41f0d193          	srai	gp,ra,0x1f
    2452:	fff00e93          	li	t4,-1
    2456:	4e19                	li	t3,6
    2458:	1fd19c63          	bne	gp,t4,2650 <fail>

0000245c <test_7>:
    245c:	800000b7          	lui	ra,0x80000
    2460:	fff08093          	addi	ra,ra,-1 # 7fffffff <pulp__FC+0x80000000>
    2464:	4000d193          	srai	gp,ra,0x0
    2468:	80000eb7          	lui	t4,0x80000
    246c:	fffe8e93          	addi	t4,t4,-1 # 7fffffff <pulp__FC+0x80000000>
    2470:	4e1d                	li	t3,7
    2472:	1dd19f63          	bne	gp,t4,2650 <fail>

00002476 <test_8>:
    2476:	800000b7          	lui	ra,0x80000
    247a:	fff08093          	addi	ra,ra,-1 # 7fffffff <pulp__FC+0x80000000>
    247e:	4010d193          	srai	gp,ra,0x1
    2482:	40000eb7          	lui	t4,0x40000
    2486:	fffe8e93          	addi	t4,t4,-1 # 3fffffff <_sp+0x3ffeed1f>
    248a:	4e21                	li	t3,8
    248c:	1dd19263          	bne	gp,t4,2650 <fail>

00002490 <test_9>:
    2490:	800000b7          	lui	ra,0x80000
    2494:	fff08093          	addi	ra,ra,-1 # 7fffffff <pulp__FC+0x80000000>
    2498:	4070d193          	srai	gp,ra,0x7
    249c:	01000eb7          	lui	t4,0x1000
    24a0:	fffe8e93          	addi	t4,t4,-1 # ffffff <_sp+0xfeed1f>
    24a4:	4e25                	li	t3,9
    24a6:	1bd19563          	bne	gp,t4,2650 <fail>

000024aa <test_10>:
    24aa:	800000b7          	lui	ra,0x80000
    24ae:	fff08093          	addi	ra,ra,-1 # 7fffffff <pulp__FC+0x80000000>
    24b2:	40e0d193          	srai	gp,ra,0xe
    24b6:	00020eb7          	lui	t4,0x20
    24ba:	fffe8e93          	addi	t4,t4,-1 # 1ffff <_sp+0xed1f>
    24be:	4e29                	li	t3,10
    24c0:	19d19863          	bne	gp,t4,2650 <fail>

000024c4 <test_11>:
    24c4:	800000b7          	lui	ra,0x80000
    24c8:	fff08093          	addi	ra,ra,-1 # 7fffffff <pulp__FC+0x80000000>
    24cc:	41f0d193          	srai	gp,ra,0x1f
    24d0:	4e81                	li	t4,0
    24d2:	4e2d                	li	t3,11
    24d4:	17d19e63          	bne	gp,t4,2650 <fail>

000024d8 <test_12>:
    24d8:	818180b7          	lui	ra,0x81818
    24dc:	18108093          	addi	ra,ra,385 # 81818181 <pulp__FC+0x81818182>
    24e0:	4000d193          	srai	gp,ra,0x0
    24e4:	81818eb7          	lui	t4,0x81818
    24e8:	181e8e93          	addi	t4,t4,385 # 81818181 <pulp__FC+0x81818182>
    24ec:	4e31                	li	t3,12
    24ee:	17d19163          	bne	gp,t4,2650 <fail>

000024f2 <test_13>:
    24f2:	818180b7          	lui	ra,0x81818
    24f6:	18108093          	addi	ra,ra,385 # 81818181 <pulp__FC+0x81818182>
    24fa:	4010d193          	srai	gp,ra,0x1
    24fe:	c0c0ceb7          	lui	t4,0xc0c0c
    2502:	0c0e8e93          	addi	t4,t4,192 # c0c0c0c0 <pulp__FC+0xc0c0c0c1>
    2506:	4e35                	li	t3,13
    2508:	15d19463          	bne	gp,t4,2650 <fail>

0000250c <test_14>:
    250c:	818180b7          	lui	ra,0x81818
    2510:	18108093          	addi	ra,ra,385 # 81818181 <pulp__FC+0x81818182>
    2514:	4070d193          	srai	gp,ra,0x7
    2518:	ff030eb7          	lui	t4,0xff030
    251c:	303e8e93          	addi	t4,t4,771 # ff030303 <pulp__FC+0xff030304>
    2520:	4e39                	li	t3,14
    2522:	13d19763          	bne	gp,t4,2650 <fail>

00002526 <test_15>:
    2526:	818180b7          	lui	ra,0x81818
    252a:	18108093          	addi	ra,ra,385 # 81818181 <pulp__FC+0x81818182>
    252e:	40e0d193          	srai	gp,ra,0xe
    2532:	fffe0eb7          	lui	t4,0xfffe0
    2536:	606e8e93          	addi	t4,t4,1542 # fffe0606 <pulp__FC+0xfffe0607>
    253a:	4e3d                	li	t3,15
    253c:	11d19a63          	bne	gp,t4,2650 <fail>

00002540 <test_16>:
    2540:	818180b7          	lui	ra,0x81818
    2544:	18108093          	addi	ra,ra,385 # 81818181 <pulp__FC+0x81818182>
    2548:	41f0d193          	srai	gp,ra,0x1f
    254c:	fff00e93          	li	t4,-1
    2550:	4e41                	li	t3,16
    2552:	0fd19f63          	bne	gp,t4,2650 <fail>

00002556 <test_17>:
    2556:	800000b7          	lui	ra,0x80000
    255a:	4070d093          	srai	ra,ra,0x7
    255e:	ff000eb7          	lui	t4,0xff000
    2562:	4e45                	li	t3,17
    2564:	0fd09663          	bne	ra,t4,2650 <fail>

00002568 <test_18>:
    2568:	4201                	li	tp,0
    256a:	800000b7          	lui	ra,0x80000
    256e:	4070d193          	srai	gp,ra,0x7
    2572:	00018313          	mv	t1,gp
    2576:	0205                	addi	tp,tp,1
    2578:	4289                	li	t0,2
    257a:	fe5218e3          	bne	tp,t0,256a <test_18+0x2>
    257e:	ff000eb7          	lui	t4,0xff000
    2582:	4e49                	li	t3,18
    2584:	0dd31663          	bne	t1,t4,2650 <fail>

00002588 <test_19>:
    2588:	4201                	li	tp,0
    258a:	800000b7          	lui	ra,0x80000
    258e:	40e0d193          	srai	gp,ra,0xe
    2592:	0001                	nop
    2594:	00018313          	mv	t1,gp
    2598:	0205                	addi	tp,tp,1
    259a:	4289                	li	t0,2
    259c:	fe5217e3          	bne	tp,t0,258a <test_19+0x2>
    25a0:	fffe0eb7          	lui	t4,0xfffe0
    25a4:	4e4d                	li	t3,19
    25a6:	0bd31563          	bne	t1,t4,2650 <fail>

000025aa <test_20>:
    25aa:	4201                	li	tp,0
    25ac:	800000b7          	lui	ra,0x80000
    25b0:	00108093          	addi	ra,ra,1 # 80000001 <pulp__FC+0x80000002>
    25b4:	41f0d193          	srai	gp,ra,0x1f
    25b8:	0001                	nop
    25ba:	0001                	nop
    25bc:	00018313          	mv	t1,gp
    25c0:	0205                	addi	tp,tp,1
    25c2:	4289                	li	t0,2
    25c4:	fe5214e3          	bne	tp,t0,25ac <test_20+0x2>
    25c8:	fff00e93          	li	t4,-1
    25cc:	4e51                	li	t3,20
    25ce:	09d31163          	bne	t1,t4,2650 <fail>

000025d2 <test_21>:
    25d2:	4201                	li	tp,0
    25d4:	800000b7          	lui	ra,0x80000
    25d8:	4070d193          	srai	gp,ra,0x7
    25dc:	0205                	addi	tp,tp,1
    25de:	4289                	li	t0,2
    25e0:	fe521ae3          	bne	tp,t0,25d4 <test_21+0x2>
    25e4:	ff000eb7          	lui	t4,0xff000
    25e8:	4e55                	li	t3,21
    25ea:	07d19363          	bne	gp,t4,2650 <fail>

000025ee <test_22>:
    25ee:	4201                	li	tp,0
    25f0:	800000b7          	lui	ra,0x80000
    25f4:	0001                	nop
    25f6:	40e0d193          	srai	gp,ra,0xe
    25fa:	0205                	addi	tp,tp,1
    25fc:	4289                	li	t0,2
    25fe:	fe5219e3          	bne	tp,t0,25f0 <test_22+0x2>
    2602:	fffe0eb7          	lui	t4,0xfffe0
    2606:	4e59                	li	t3,22
    2608:	05d19463          	bne	gp,t4,2650 <fail>

0000260c <test_23>:
    260c:	4201                	li	tp,0
    260e:	800000b7          	lui	ra,0x80000
    2612:	00108093          	addi	ra,ra,1 # 80000001 <pulp__FC+0x80000002>
    2616:	0001                	nop
    2618:	0001                	nop
    261a:	41f0d193          	srai	gp,ra,0x1f
    261e:	0205                	addi	tp,tp,1
    2620:	4289                	li	t0,2
    2622:	fe5216e3          	bne	tp,t0,260e <test_23+0x2>
    2626:	fff00e93          	li	t4,-1
    262a:	4e5d                	li	t3,23
    262c:	03d19263          	bne	gp,t4,2650 <fail>

00002630 <test_24>:
    2630:	41f05093          	srai	ra,zero,0x1f
    2634:	4e81                	li	t4,0
    2636:	4e61                	li	t3,24
    2638:	01d09c63          	bne	ra,t4,2650 <fail>

0000263c <test_25>:
    263c:	02100093          	li	ra,33
    2640:	4140d013          	srai	zero,ra,0x14
    2644:	4e81                	li	t4,0
    2646:	4e65                	li	t3,25
    2648:	01d01463          	bne	zero,t4,2650 <fail>
    264c:	03c01563          	bne	zero,t3,2676 <pass>

00002650 <fail>:
    2650:	10010537          	lui	a0,0x10010
    2654:	00450513          	addi	a0,a0,4 # 10010004 <_sp+0xfffed24>
    2658:	04500593          	li	a1,69
    265c:	05200613          	li	a2,82
    2660:	04f00693          	li	a3,79
    2664:	00a00713          	li	a4,10
    2668:	c10c                	sw	a1,0(a0)
    266a:	c110                	sw	a2,0(a0)
    266c:	c110                	sw	a2,0(a0)
    266e:	c114                	sw	a3,0(a0)
    2670:	c110                	sw	a2,0(a0)
    2672:	c118                	sw	a4,0(a0)
    2674:	9002                	ebreak

00002676 <pass>:
    2676:	10010537          	lui	a0,0x10010
    267a:	00450513          	addi	a0,a0,4 # 10010004 <_sp+0xfffed24>
    267e:	04f00593          	li	a1,79
    2682:	04b00613          	li	a2,75
    2686:	00a00693          	li	a3,10
    268a:	c10c                	sw	a1,0(a0)
    268c:	c110                	sw	a2,0(a0)
    268e:	c114                	sw	a3,0(a0)
    2690:	000f0113          	mv	sp,t5
    2694:	ffc12183          	lw	gp,-4(sp)
    2698:	ff812083          	lw	ra,-8(sp)
    269c:	c1bfd06f          	j	2b6 <srai_ret>

000026a0 <bltu>:
    26a0:	00010f13          	mv	t5,sp
    26a4:	fe312e23          	sw	gp,-4(sp)
    26a8:	fe112c23          	sw	ra,-8(sp)
    26ac:	85018513          	addi	a0,gp,-1968 # 1016c <bltu_data>
    26b0:	10010637          	lui	a2,0x10010
    26b4:	00460613          	addi	a2,a2,4 # 10010004 <_sp+0xfffed24>

000026b8 <.prname_next>:
    26b8:	00050583          	lb	a1,0(a0)
    26bc:	00058663          	beqz	a1,26c8 <.prname_done>
    26c0:	c20c                	sw	a1,0(a2)
    26c2:	0505                	addi	a0,a0,1
    26c4:	ff5ff06f          	j	26b8 <.prname_next>

000026c8 <.prname_done>:
    26c8:	02e00593          	li	a1,46
    26cc:	c20c                	sw	a1,0(a2)
    26ce:	c20c                	sw	a1,0(a2)

000026d0 <test_2>:
    26d0:	4e09                	li	t3,2
    26d2:	4081                	li	ra,0
    26d4:	4105                	li	sp,1
    26d6:	0020e663          	bltu	ra,sp,26e2 <test_2+0x12>
    26da:	23c01f63          	bne	zero,t3,2918 <fail>
    26de:	01c01663          	bne	zero,t3,26ea <test_3>
    26e2:	fe20eee3          	bltu	ra,sp,26de <test_2+0xe>
    26e6:	23c01963          	bne	zero,t3,2918 <fail>

000026ea <test_3>:
    26ea:	4e0d                	li	t3,3
    26ec:	ffe00093          	li	ra,-2
    26f0:	fff00113          	li	sp,-1
    26f4:	0020e663          	bltu	ra,sp,2700 <test_3+0x16>
    26f8:	23c01063          	bne	zero,t3,2918 <fail>
    26fc:	01c01663          	bne	zero,t3,2708 <test_4>
    2700:	fe20eee3          	bltu	ra,sp,26fc <test_3+0x12>
    2704:	21c01a63          	bne	zero,t3,2918 <fail>

00002708 <test_4>:
    2708:	4e11                	li	t3,4
    270a:	4081                	li	ra,0
    270c:	fff00113          	li	sp,-1
    2710:	0020e663          	bltu	ra,sp,271c <test_4+0x14>
    2714:	21c01263          	bne	zero,t3,2918 <fail>
    2718:	01c01663          	bne	zero,t3,2724 <test_5>
    271c:	fe20eee3          	bltu	ra,sp,2718 <test_4+0x10>
    2720:	1fc01c63          	bne	zero,t3,2918 <fail>

00002724 <test_5>:
    2724:	4e15                	li	t3,5
    2726:	4085                	li	ra,1
    2728:	4101                	li	sp,0
    272a:	0020e463          	bltu	ra,sp,2732 <test_5+0xe>
    272e:	01c01463          	bne	zero,t3,2736 <test_5+0x12>
    2732:	1fc01363          	bne	zero,t3,2918 <fail>
    2736:	fe20eee3          	bltu	ra,sp,2732 <test_5+0xe>

0000273a <test_6>:
    273a:	4e19                	li	t3,6
    273c:	fff00093          	li	ra,-1
    2740:	ffe00113          	li	sp,-2
    2744:	0020e463          	bltu	ra,sp,274c <test_6+0x12>
    2748:	01c01463          	bne	zero,t3,2750 <test_6+0x16>
    274c:	1dc01663          	bne	zero,t3,2918 <fail>
    2750:	fe20eee3          	bltu	ra,sp,274c <test_6+0x12>

00002754 <test_7>:
    2754:	4e1d                	li	t3,7
    2756:	fff00093          	li	ra,-1
    275a:	4101                	li	sp,0
    275c:	0020e463          	bltu	ra,sp,2764 <test_7+0x10>
    2760:	01c01463          	bne	zero,t3,2768 <test_7+0x14>
    2764:	1bc01a63          	bne	zero,t3,2918 <fail>
    2768:	fe20eee3          	bltu	ra,sp,2764 <test_7+0x10>

0000276c <test_8>:
    276c:	4e21                	li	t3,8
    276e:	800000b7          	lui	ra,0x80000
    2772:	80000137          	lui	sp,0x80000
    2776:	fff10113          	addi	sp,sp,-1 # 7fffffff <pulp__FC+0x80000000>
    277a:	0020e463          	bltu	ra,sp,2782 <test_8+0x16>
    277e:	01c01463          	bne	zero,t3,2786 <test_8+0x1a>
    2782:	19c01b63          	bne	zero,t3,2918 <fail>
    2786:	fe20eee3          	bltu	ra,sp,2782 <test_8+0x16>

0000278a <test_9>:
    278a:	4e25                	li	t3,9
    278c:	4201                	li	tp,0
    278e:	f00000b7          	lui	ra,0xf0000
    2792:	f0000137          	lui	sp,0xf0000
    2796:	fff10113          	addi	sp,sp,-1 # efffffff <pulp__FC+0xf0000000>
    279a:	1620ef63          	bltu	ra,sp,2918 <fail>
    279e:	0205                	addi	tp,tp,1
    27a0:	4289                	li	t0,2
    27a2:	fe5216e3          	bne	tp,t0,278e <test_9+0x4>

000027a6 <test_10>:
    27a6:	4e29                	li	t3,10
    27a8:	4201                	li	tp,0
    27aa:	f00000b7          	lui	ra,0xf0000
    27ae:	f0000137          	lui	sp,0xf0000
    27b2:	fff10113          	addi	sp,sp,-1 # efffffff <pulp__FC+0xf0000000>
    27b6:	0001                	nop
    27b8:	1620e063          	bltu	ra,sp,2918 <fail>
    27bc:	0205                	addi	tp,tp,1
    27be:	4289                	li	t0,2
    27c0:	fe5215e3          	bne	tp,t0,27aa <test_10+0x4>

000027c4 <test_11>:
    27c4:	4e2d                	li	t3,11
    27c6:	4201                	li	tp,0
    27c8:	f00000b7          	lui	ra,0xf0000
    27cc:	f0000137          	lui	sp,0xf0000
    27d0:	fff10113          	addi	sp,sp,-1 # efffffff <pulp__FC+0xf0000000>
    27d4:	0001                	nop
    27d6:	0001                	nop
    27d8:	1420e063          	bltu	ra,sp,2918 <fail>
    27dc:	0205                	addi	tp,tp,1
    27de:	4289                	li	t0,2
    27e0:	fe5214e3          	bne	tp,t0,27c8 <test_11+0x4>

000027e4 <test_12>:
    27e4:	4e31                	li	t3,12
    27e6:	4201                	li	tp,0
    27e8:	f00000b7          	lui	ra,0xf0000
    27ec:	0001                	nop
    27ee:	f0000137          	lui	sp,0xf0000
    27f2:	fff10113          	addi	sp,sp,-1 # efffffff <pulp__FC+0xf0000000>
    27f6:	1220e163          	bltu	ra,sp,2918 <fail>
    27fa:	0205                	addi	tp,tp,1
    27fc:	4289                	li	t0,2
    27fe:	fe5215e3          	bne	tp,t0,27e8 <test_12+0x4>

00002802 <test_13>:
    2802:	4e35                	li	t3,13
    2804:	4201                	li	tp,0
    2806:	f00000b7          	lui	ra,0xf0000
    280a:	0001                	nop
    280c:	f0000137          	lui	sp,0xf0000
    2810:	fff10113          	addi	sp,sp,-1 # efffffff <pulp__FC+0xf0000000>
    2814:	0001                	nop
    2816:	1020e163          	bltu	ra,sp,2918 <fail>
    281a:	0205                	addi	tp,tp,1
    281c:	4289                	li	t0,2
    281e:	fe5214e3          	bne	tp,t0,2806 <test_13+0x4>

00002822 <test_14>:
    2822:	4e39                	li	t3,14
    2824:	4201                	li	tp,0
    2826:	f00000b7          	lui	ra,0xf0000
    282a:	0001                	nop
    282c:	0001                	nop
    282e:	f0000137          	lui	sp,0xf0000
    2832:	fff10113          	addi	sp,sp,-1 # efffffff <pulp__FC+0xf0000000>
    2836:	0e20e163          	bltu	ra,sp,2918 <fail>
    283a:	0205                	addi	tp,tp,1
    283c:	4289                	li	t0,2
    283e:	fe5214e3          	bne	tp,t0,2826 <test_14+0x4>

00002842 <test_15>:
    2842:	4e3d                	li	t3,15
    2844:	4201                	li	tp,0
    2846:	f00000b7          	lui	ra,0xf0000
    284a:	f0000137          	lui	sp,0xf0000
    284e:	fff10113          	addi	sp,sp,-1 # efffffff <pulp__FC+0xf0000000>
    2852:	0c20e363          	bltu	ra,sp,2918 <fail>
    2856:	0205                	addi	tp,tp,1
    2858:	4289                	li	t0,2
    285a:	fe5216e3          	bne	tp,t0,2846 <test_15+0x4>

0000285e <test_16>:
    285e:	4e41                	li	t3,16
    2860:	4201                	li	tp,0
    2862:	f00000b7          	lui	ra,0xf0000
    2866:	f0000137          	lui	sp,0xf0000
    286a:	fff10113          	addi	sp,sp,-1 # efffffff <pulp__FC+0xf0000000>
    286e:	0001                	nop
    2870:	0a20e463          	bltu	ra,sp,2918 <fail>
    2874:	0205                	addi	tp,tp,1
    2876:	4289                	li	t0,2
    2878:	fe5215e3          	bne	tp,t0,2862 <test_16+0x4>

0000287c <test_17>:
    287c:	4e45                	li	t3,17
    287e:	4201                	li	tp,0
    2880:	f00000b7          	lui	ra,0xf0000
    2884:	f0000137          	lui	sp,0xf0000
    2888:	fff10113          	addi	sp,sp,-1 # efffffff <pulp__FC+0xf0000000>
    288c:	0001                	nop
    288e:	0001                	nop
    2890:	0820e463          	bltu	ra,sp,2918 <fail>
    2894:	0205                	addi	tp,tp,1
    2896:	4289                	li	t0,2
    2898:	fe5214e3          	bne	tp,t0,2880 <test_17+0x4>

0000289c <test_18>:
    289c:	4e49                	li	t3,18
    289e:	4201                	li	tp,0
    28a0:	f00000b7          	lui	ra,0xf0000
    28a4:	0001                	nop
    28a6:	f0000137          	lui	sp,0xf0000
    28aa:	fff10113          	addi	sp,sp,-1 # efffffff <pulp__FC+0xf0000000>
    28ae:	0620e563          	bltu	ra,sp,2918 <fail>
    28b2:	0205                	addi	tp,tp,1
    28b4:	4289                	li	t0,2
    28b6:	fe5215e3          	bne	tp,t0,28a0 <test_18+0x4>

000028ba <test_19>:
    28ba:	4e4d                	li	t3,19
    28bc:	4201                	li	tp,0
    28be:	f00000b7          	lui	ra,0xf0000
    28c2:	0001                	nop
    28c4:	f0000137          	lui	sp,0xf0000
    28c8:	fff10113          	addi	sp,sp,-1 # efffffff <pulp__FC+0xf0000000>
    28cc:	0001                	nop
    28ce:	0420e563          	bltu	ra,sp,2918 <fail>
    28d2:	0205                	addi	tp,tp,1
    28d4:	4289                	li	t0,2
    28d6:	fe5214e3          	bne	tp,t0,28be <test_19+0x4>

000028da <test_20>:
    28da:	4e51                	li	t3,20
    28dc:	4201                	li	tp,0
    28de:	f00000b7          	lui	ra,0xf0000
    28e2:	0001                	nop
    28e4:	0001                	nop
    28e6:	f0000137          	lui	sp,0xf0000
    28ea:	fff10113          	addi	sp,sp,-1 # efffffff <pulp__FC+0xf0000000>
    28ee:	0220e563          	bltu	ra,sp,2918 <fail>
    28f2:	0205                	addi	tp,tp,1
    28f4:	4289                	li	t0,2
    28f6:	fe5214e3          	bne	tp,t0,28de <test_20+0x4>

000028fa <test_21>:
    28fa:	4085                	li	ra,1
    28fc:	00106663          	bltu	zero,ra,2908 <test_21+0xe>
    2900:	0085                	addi	ra,ra,1
    2902:	0085                	addi	ra,ra,1
    2904:	0085                	addi	ra,ra,1
    2906:	0085                	addi	ra,ra,1
    2908:	0085                	addi	ra,ra,1
    290a:	0085                	addi	ra,ra,1
    290c:	4e8d                	li	t4,3
    290e:	4e55                	li	t3,21
    2910:	01d09463          	bne	ra,t4,2918 <fail>
    2914:	03c01563          	bne	zero,t3,293e <pass>

00002918 <fail>:
    2918:	10010537          	lui	a0,0x10010
    291c:	00450513          	addi	a0,a0,4 # 10010004 <_sp+0xfffed24>
    2920:	04500593          	li	a1,69
    2924:	05200613          	li	a2,82
    2928:	04f00693          	li	a3,79
    292c:	00a00713          	li	a4,10
    2930:	c10c                	sw	a1,0(a0)
    2932:	c110                	sw	a2,0(a0)
    2934:	c110                	sw	a2,0(a0)
    2936:	c114                	sw	a3,0(a0)
    2938:	c110                	sw	a2,0(a0)
    293a:	c118                	sw	a4,0(a0)
    293c:	9002                	ebreak

0000293e <pass>:
    293e:	10010537          	lui	a0,0x10010
    2942:	00450513          	addi	a0,a0,4 # 10010004 <_sp+0xfffed24>
    2946:	04f00593          	li	a1,79
    294a:	04b00613          	li	a2,75
    294e:	00a00693          	li	a3,10
    2952:	c10c                	sw	a1,0(a0)
    2954:	c110                	sw	a2,0(a0)
    2956:	c114                	sw	a3,0(a0)
    2958:	000f0113          	mv	sp,t5
    295c:	ffc12183          	lw	gp,-4(sp)
    2960:	ff812083          	lw	ra,-8(sp)
    2964:	8cbfd06f          	j	22e <bltu_ret>

00002968 <sra>:
    2968:	00010f13          	mv	t5,sp
    296c:	fe312e23          	sw	gp,-4(sp)
    2970:	fe112c23          	sw	ra,-8(sp)
    2974:	85818513          	addi	a0,gp,-1960 # 10174 <sra_data>
    2978:	10010637          	lui	a2,0x10010
    297c:	00460613          	addi	a2,a2,4 # 10010004 <_sp+0xfffed24>

00002980 <.prname_next>:
    2980:	00050583          	lb	a1,0(a0)
    2984:	00058663          	beqz	a1,2990 <.prname_done>
    2988:	c20c                	sw	a1,0(a2)
    298a:	0505                	addi	a0,a0,1
    298c:	ff5ff06f          	j	2980 <.prname_next>

00002990 <.prname_done>:
    2990:	02e00593          	li	a1,46
    2994:	c20c                	sw	a1,0(a2)
    2996:	c20c                	sw	a1,0(a2)

00002998 <test_2>:
    2998:	800000b7          	lui	ra,0x80000
    299c:	4101                	li	sp,0
    299e:	4020d1b3          	sra	gp,ra,sp
    29a2:	80000eb7          	lui	t4,0x80000
    29a6:	4e09                	li	t3,2
    29a8:	49d19163          	bne	gp,t4,2e2a <fail>

000029ac <test_3>:
    29ac:	800000b7          	lui	ra,0x80000
    29b0:	4105                	li	sp,1
    29b2:	4020d1b3          	sra	gp,ra,sp
    29b6:	c0000eb7          	lui	t4,0xc0000
    29ba:	4e0d                	li	t3,3
    29bc:	47d19763          	bne	gp,t4,2e2a <fail>

000029c0 <test_4>:
    29c0:	800000b7          	lui	ra,0x80000
    29c4:	411d                	li	sp,7
    29c6:	4020d1b3          	sra	gp,ra,sp
    29ca:	ff000eb7          	lui	t4,0xff000
    29ce:	4e11                	li	t3,4
    29d0:	45d19d63          	bne	gp,t4,2e2a <fail>

000029d4 <test_5>:
    29d4:	800000b7          	lui	ra,0x80000
    29d8:	4139                	li	sp,14
    29da:	4020d1b3          	sra	gp,ra,sp
    29de:	fffe0eb7          	lui	t4,0xfffe0
    29e2:	4e15                	li	t3,5
    29e4:	45d19363          	bne	gp,t4,2e2a <fail>

000029e8 <test_6>:
    29e8:	800000b7          	lui	ra,0x80000
    29ec:	00108093          	addi	ra,ra,1 # 80000001 <pulp__FC+0x80000002>
    29f0:	417d                	li	sp,31
    29f2:	4020d1b3          	sra	gp,ra,sp
    29f6:	fff00e93          	li	t4,-1
    29fa:	4e19                	li	t3,6
    29fc:	43d19763          	bne	gp,t4,2e2a <fail>

00002a00 <test_7>:
    2a00:	800000b7          	lui	ra,0x80000
    2a04:	fff08093          	addi	ra,ra,-1 # 7fffffff <pulp__FC+0x80000000>
    2a08:	4101                	li	sp,0
    2a0a:	4020d1b3          	sra	gp,ra,sp
    2a0e:	80000eb7          	lui	t4,0x80000
    2a12:	fffe8e93          	addi	t4,t4,-1 # 7fffffff <pulp__FC+0x80000000>
    2a16:	4e1d                	li	t3,7
    2a18:	41d19963          	bne	gp,t4,2e2a <fail>

00002a1c <test_8>:
    2a1c:	800000b7          	lui	ra,0x80000
    2a20:	fff08093          	addi	ra,ra,-1 # 7fffffff <pulp__FC+0x80000000>
    2a24:	4105                	li	sp,1
    2a26:	4020d1b3          	sra	gp,ra,sp
    2a2a:	40000eb7          	lui	t4,0x40000
    2a2e:	fffe8e93          	addi	t4,t4,-1 # 3fffffff <_sp+0x3ffeed1f>
    2a32:	4e21                	li	t3,8
    2a34:	3fd19b63          	bne	gp,t4,2e2a <fail>

00002a38 <test_9>:
    2a38:	800000b7          	lui	ra,0x80000
    2a3c:	fff08093          	addi	ra,ra,-1 # 7fffffff <pulp__FC+0x80000000>
    2a40:	411d                	li	sp,7
    2a42:	4020d1b3          	sra	gp,ra,sp
    2a46:	01000eb7          	lui	t4,0x1000
    2a4a:	fffe8e93          	addi	t4,t4,-1 # ffffff <_sp+0xfeed1f>
    2a4e:	4e25                	li	t3,9
    2a50:	3dd19d63          	bne	gp,t4,2e2a <fail>

00002a54 <test_10>:
    2a54:	800000b7          	lui	ra,0x80000
    2a58:	fff08093          	addi	ra,ra,-1 # 7fffffff <pulp__FC+0x80000000>
    2a5c:	4139                	li	sp,14
    2a5e:	4020d1b3          	sra	gp,ra,sp
    2a62:	00020eb7          	lui	t4,0x20
    2a66:	fffe8e93          	addi	t4,t4,-1 # 1ffff <_sp+0xed1f>
    2a6a:	4e29                	li	t3,10
    2a6c:	3bd19f63          	bne	gp,t4,2e2a <fail>

00002a70 <test_11>:
    2a70:	800000b7          	lui	ra,0x80000
    2a74:	fff08093          	addi	ra,ra,-1 # 7fffffff <pulp__FC+0x80000000>
    2a78:	417d                	li	sp,31
    2a7a:	4020d1b3          	sra	gp,ra,sp
    2a7e:	4e81                	li	t4,0
    2a80:	4e2d                	li	t3,11
    2a82:	3bd19463          	bne	gp,t4,2e2a <fail>

00002a86 <test_12>:
    2a86:	818180b7          	lui	ra,0x81818
    2a8a:	18108093          	addi	ra,ra,385 # 81818181 <pulp__FC+0x81818182>
    2a8e:	4101                	li	sp,0
    2a90:	4020d1b3          	sra	gp,ra,sp
    2a94:	81818eb7          	lui	t4,0x81818
    2a98:	181e8e93          	addi	t4,t4,385 # 81818181 <pulp__FC+0x81818182>
    2a9c:	4e31                	li	t3,12
    2a9e:	39d19663          	bne	gp,t4,2e2a <fail>

00002aa2 <test_13>:
    2aa2:	818180b7          	lui	ra,0x81818
    2aa6:	18108093          	addi	ra,ra,385 # 81818181 <pulp__FC+0x81818182>
    2aaa:	4105                	li	sp,1
    2aac:	4020d1b3          	sra	gp,ra,sp
    2ab0:	c0c0ceb7          	lui	t4,0xc0c0c
    2ab4:	0c0e8e93          	addi	t4,t4,192 # c0c0c0c0 <pulp__FC+0xc0c0c0c1>
    2ab8:	4e35                	li	t3,13
    2aba:	37d19863          	bne	gp,t4,2e2a <fail>

00002abe <test_14>:
    2abe:	818180b7          	lui	ra,0x81818
    2ac2:	18108093          	addi	ra,ra,385 # 81818181 <pulp__FC+0x81818182>
    2ac6:	411d                	li	sp,7
    2ac8:	4020d1b3          	sra	gp,ra,sp
    2acc:	ff030eb7          	lui	t4,0xff030
    2ad0:	303e8e93          	addi	t4,t4,771 # ff030303 <pulp__FC+0xff030304>
    2ad4:	4e39                	li	t3,14
    2ad6:	35d19a63          	bne	gp,t4,2e2a <fail>

00002ada <test_15>:
    2ada:	818180b7          	lui	ra,0x81818
    2ade:	18108093          	addi	ra,ra,385 # 81818181 <pulp__FC+0x81818182>
    2ae2:	4139                	li	sp,14
    2ae4:	4020d1b3          	sra	gp,ra,sp
    2ae8:	fffe0eb7          	lui	t4,0xfffe0
    2aec:	606e8e93          	addi	t4,t4,1542 # fffe0606 <pulp__FC+0xfffe0607>
    2af0:	4e3d                	li	t3,15
    2af2:	33d19c63          	bne	gp,t4,2e2a <fail>

00002af6 <test_16>:
    2af6:	818180b7          	lui	ra,0x81818
    2afa:	18108093          	addi	ra,ra,385 # 81818181 <pulp__FC+0x81818182>
    2afe:	417d                	li	sp,31
    2b00:	4020d1b3          	sra	gp,ra,sp
    2b04:	fff00e93          	li	t4,-1
    2b08:	4e41                	li	t3,16
    2b0a:	33d19063          	bne	gp,t4,2e2a <fail>

00002b0e <test_17>:
    2b0e:	818180b7          	lui	ra,0x81818
    2b12:	18108093          	addi	ra,ra,385 # 81818181 <pulp__FC+0x81818182>
    2b16:	fc000113          	li	sp,-64
    2b1a:	4020d1b3          	sra	gp,ra,sp
    2b1e:	81818eb7          	lui	t4,0x81818
    2b22:	181e8e93          	addi	t4,t4,385 # 81818181 <pulp__FC+0x81818182>
    2b26:	4e45                	li	t3,17
    2b28:	31d19163          	bne	gp,t4,2e2a <fail>

00002b2c <test_18>:
    2b2c:	818180b7          	lui	ra,0x81818
    2b30:	18108093          	addi	ra,ra,385 # 81818181 <pulp__FC+0x81818182>
    2b34:	fc100113          	li	sp,-63
    2b38:	4020d1b3          	sra	gp,ra,sp
    2b3c:	c0c0ceb7          	lui	t4,0xc0c0c
    2b40:	0c0e8e93          	addi	t4,t4,192 # c0c0c0c0 <pulp__FC+0xc0c0c0c1>
    2b44:	4e49                	li	t3,18
    2b46:	2fd19263          	bne	gp,t4,2e2a <fail>

00002b4a <test_19>:
    2b4a:	818180b7          	lui	ra,0x81818
    2b4e:	18108093          	addi	ra,ra,385 # 81818181 <pulp__FC+0x81818182>
    2b52:	fc700113          	li	sp,-57
    2b56:	4020d1b3          	sra	gp,ra,sp
    2b5a:	ff030eb7          	lui	t4,0xff030
    2b5e:	303e8e93          	addi	t4,t4,771 # ff030303 <pulp__FC+0xff030304>
    2b62:	4e4d                	li	t3,19
    2b64:	2dd19363          	bne	gp,t4,2e2a <fail>

00002b68 <test_20>:
    2b68:	818180b7          	lui	ra,0x81818
    2b6c:	18108093          	addi	ra,ra,385 # 81818181 <pulp__FC+0x81818182>
    2b70:	fce00113          	li	sp,-50
    2b74:	4020d1b3          	sra	gp,ra,sp
    2b78:	fffe0eb7          	lui	t4,0xfffe0
    2b7c:	606e8e93          	addi	t4,t4,1542 # fffe0606 <pulp__FC+0xfffe0607>
    2b80:	4e51                	li	t3,20
    2b82:	2bd19463          	bne	gp,t4,2e2a <fail>

00002b86 <test_21>:
    2b86:	818180b7          	lui	ra,0x81818
    2b8a:	18108093          	addi	ra,ra,385 # 81818181 <pulp__FC+0x81818182>
    2b8e:	fff00113          	li	sp,-1
    2b92:	4020d1b3          	sra	gp,ra,sp
    2b96:	fff00e93          	li	t4,-1
    2b9a:	4e55                	li	t3,21
    2b9c:	29d19763          	bne	gp,t4,2e2a <fail>

00002ba0 <test_22>:
    2ba0:	800000b7          	lui	ra,0x80000
    2ba4:	411d                	li	sp,7
    2ba6:	4020d0b3          	sra	ra,ra,sp
    2baa:	ff000eb7          	lui	t4,0xff000
    2bae:	4e59                	li	t3,22
    2bb0:	27d09d63          	bne	ra,t4,2e2a <fail>

00002bb4 <test_23>:
    2bb4:	800000b7          	lui	ra,0x80000
    2bb8:	4139                	li	sp,14
    2bba:	4020d133          	sra	sp,ra,sp
    2bbe:	fffe0eb7          	lui	t4,0xfffe0
    2bc2:	4e5d                	li	t3,23
    2bc4:	27d11363          	bne	sp,t4,2e2a <fail>

00002bc8 <test_24>:
    2bc8:	409d                	li	ra,7
    2bca:	4010d0b3          	sra	ra,ra,ra
    2bce:	4e81                	li	t4,0
    2bd0:	4e61                	li	t3,24
    2bd2:	25d09c63          	bne	ra,t4,2e2a <fail>

00002bd6 <test_25>:
    2bd6:	4201                	li	tp,0
    2bd8:	800000b7          	lui	ra,0x80000
    2bdc:	411d                	li	sp,7
    2bde:	4020d1b3          	sra	gp,ra,sp
    2be2:	00018313          	mv	t1,gp
    2be6:	0205                	addi	tp,tp,1
    2be8:	4289                	li	t0,2
    2bea:	fe5217e3          	bne	tp,t0,2bd8 <test_25+0x2>
    2bee:	ff000eb7          	lui	t4,0xff000
    2bf2:	4e65                	li	t3,25
    2bf4:	23d31b63          	bne	t1,t4,2e2a <fail>

00002bf8 <test_26>:
    2bf8:	4201                	li	tp,0
    2bfa:	800000b7          	lui	ra,0x80000
    2bfe:	4139                	li	sp,14
    2c00:	4020d1b3          	sra	gp,ra,sp
    2c04:	0001                	nop
    2c06:	00018313          	mv	t1,gp
    2c0a:	0205                	addi	tp,tp,1
    2c0c:	4289                	li	t0,2
    2c0e:	fe5216e3          	bne	tp,t0,2bfa <test_26+0x2>
    2c12:	fffe0eb7          	lui	t4,0xfffe0
    2c16:	4e69                	li	t3,26
    2c18:	21d31963          	bne	t1,t4,2e2a <fail>

00002c1c <test_27>:
    2c1c:	4201                	li	tp,0
    2c1e:	800000b7          	lui	ra,0x80000
    2c22:	417d                	li	sp,31
    2c24:	4020d1b3          	sra	gp,ra,sp
    2c28:	0001                	nop
    2c2a:	0001                	nop
    2c2c:	00018313          	mv	t1,gp
    2c30:	0205                	addi	tp,tp,1
    2c32:	4289                	li	t0,2
    2c34:	fe5215e3          	bne	tp,t0,2c1e <test_27+0x2>
    2c38:	fff00e93          	li	t4,-1
    2c3c:	4e6d                	li	t3,27
    2c3e:	1fd31663          	bne	t1,t4,2e2a <fail>

00002c42 <test_28>:
    2c42:	4201                	li	tp,0
    2c44:	800000b7          	lui	ra,0x80000
    2c48:	411d                	li	sp,7
    2c4a:	4020d1b3          	sra	gp,ra,sp
    2c4e:	0205                	addi	tp,tp,1
    2c50:	4289                	li	t0,2
    2c52:	fe5219e3          	bne	tp,t0,2c44 <test_28+0x2>
    2c56:	ff000eb7          	lui	t4,0xff000
    2c5a:	4e71                	li	t3,28
    2c5c:	1dd19763          	bne	gp,t4,2e2a <fail>

00002c60 <test_29>:
    2c60:	4201                	li	tp,0
    2c62:	800000b7          	lui	ra,0x80000
    2c66:	4139                	li	sp,14
    2c68:	0001                	nop
    2c6a:	4020d1b3          	sra	gp,ra,sp
    2c6e:	0205                	addi	tp,tp,1
    2c70:	4289                	li	t0,2
    2c72:	fe5218e3          	bne	tp,t0,2c62 <test_29+0x2>
    2c76:	fffe0eb7          	lui	t4,0xfffe0
    2c7a:	4e75                	li	t3,29
    2c7c:	1bd19763          	bne	gp,t4,2e2a <fail>

00002c80 <test_30>:
    2c80:	4201                	li	tp,0
    2c82:	800000b7          	lui	ra,0x80000
    2c86:	417d                	li	sp,31
    2c88:	0001                	nop
    2c8a:	0001                	nop
    2c8c:	4020d1b3          	sra	gp,ra,sp
    2c90:	0205                	addi	tp,tp,1
    2c92:	4289                	li	t0,2
    2c94:	fe5217e3          	bne	tp,t0,2c82 <test_30+0x2>
    2c98:	fff00e93          	li	t4,-1
    2c9c:	4e79                	li	t3,30
    2c9e:	19d19663          	bne	gp,t4,2e2a <fail>

00002ca2 <test_31>:
    2ca2:	4201                	li	tp,0
    2ca4:	800000b7          	lui	ra,0x80000
    2ca8:	0001                	nop
    2caa:	411d                	li	sp,7
    2cac:	4020d1b3          	sra	gp,ra,sp
    2cb0:	0205                	addi	tp,tp,1
    2cb2:	4289                	li	t0,2
    2cb4:	fe5218e3          	bne	tp,t0,2ca4 <test_31+0x2>
    2cb8:	ff000eb7          	lui	t4,0xff000
    2cbc:	4e7d                	li	t3,31
    2cbe:	17d19663          	bne	gp,t4,2e2a <fail>

00002cc2 <test_32>:
    2cc2:	4201                	li	tp,0
    2cc4:	800000b7          	lui	ra,0x80000
    2cc8:	0001                	nop
    2cca:	4139                	li	sp,14
    2ccc:	0001                	nop
    2cce:	4020d1b3          	sra	gp,ra,sp
    2cd2:	0205                	addi	tp,tp,1
    2cd4:	4289                	li	t0,2
    2cd6:	fe5217e3          	bne	tp,t0,2cc4 <test_32+0x2>
    2cda:	fffe0eb7          	lui	t4,0xfffe0
    2cde:	02000e13          	li	t3,32
    2ce2:	15d19463          	bne	gp,t4,2e2a <fail>

00002ce6 <test_33>:
    2ce6:	4201                	li	tp,0
    2ce8:	800000b7          	lui	ra,0x80000
    2cec:	0001                	nop
    2cee:	0001                	nop
    2cf0:	417d                	li	sp,31
    2cf2:	4020d1b3          	sra	gp,ra,sp
    2cf6:	0205                	addi	tp,tp,1
    2cf8:	4289                	li	t0,2
    2cfa:	fe5217e3          	bne	tp,t0,2ce8 <test_33+0x2>
    2cfe:	fff00e93          	li	t4,-1
    2d02:	02100e13          	li	t3,33
    2d06:	13d19263          	bne	gp,t4,2e2a <fail>

00002d0a <test_34>:
    2d0a:	4201                	li	tp,0
    2d0c:	411d                	li	sp,7
    2d0e:	800000b7          	lui	ra,0x80000
    2d12:	4020d1b3          	sra	gp,ra,sp
    2d16:	0205                	addi	tp,tp,1
    2d18:	4289                	li	t0,2
    2d1a:	fe5219e3          	bne	tp,t0,2d0c <test_34+0x2>
    2d1e:	ff000eb7          	lui	t4,0xff000
    2d22:	02200e13          	li	t3,34
    2d26:	11d19263          	bne	gp,t4,2e2a <fail>

00002d2a <test_35>:
    2d2a:	4201                	li	tp,0
    2d2c:	4139                	li	sp,14
    2d2e:	800000b7          	lui	ra,0x80000
    2d32:	0001                	nop
    2d34:	4020d1b3          	sra	gp,ra,sp
    2d38:	0205                	addi	tp,tp,1
    2d3a:	4289                	li	t0,2
    2d3c:	fe5218e3          	bne	tp,t0,2d2c <test_35+0x2>
    2d40:	fffe0eb7          	lui	t4,0xfffe0
    2d44:	02300e13          	li	t3,35
    2d48:	0fd19163          	bne	gp,t4,2e2a <fail>

00002d4c <test_36>:
    2d4c:	4201                	li	tp,0
    2d4e:	417d                	li	sp,31
    2d50:	800000b7          	lui	ra,0x80000
    2d54:	0001                	nop
    2d56:	0001                	nop
    2d58:	4020d1b3          	sra	gp,ra,sp
    2d5c:	0205                	addi	tp,tp,1
    2d5e:	4289                	li	t0,2
    2d60:	fe5217e3          	bne	tp,t0,2d4e <test_36+0x2>
    2d64:	fff00e93          	li	t4,-1
    2d68:	02400e13          	li	t3,36
    2d6c:	0bd19f63          	bne	gp,t4,2e2a <fail>

00002d70 <test_37>:
    2d70:	4201                	li	tp,0
    2d72:	411d                	li	sp,7
    2d74:	0001                	nop
    2d76:	800000b7          	lui	ra,0x80000
    2d7a:	4020d1b3          	sra	gp,ra,sp
    2d7e:	0205                	addi	tp,tp,1
    2d80:	4289                	li	t0,2
    2d82:	fe5218e3          	bne	tp,t0,2d72 <test_37+0x2>
    2d86:	ff000eb7          	lui	t4,0xff000
    2d8a:	02500e13          	li	t3,37
    2d8e:	09d19e63          	bne	gp,t4,2e2a <fail>

00002d92 <test_38>:
    2d92:	4201                	li	tp,0
    2d94:	4139                	li	sp,14
    2d96:	0001                	nop
    2d98:	800000b7          	lui	ra,0x80000
    2d9c:	0001                	nop
    2d9e:	4020d1b3          	sra	gp,ra,sp
    2da2:	0205                	addi	tp,tp,1
    2da4:	4289                	li	t0,2
    2da6:	fe5217e3          	bne	tp,t0,2d94 <test_38+0x2>
    2daa:	fffe0eb7          	lui	t4,0xfffe0
    2dae:	02600e13          	li	t3,38
    2db2:	07d19c63          	bne	gp,t4,2e2a <fail>

00002db6 <test_39>:
    2db6:	4201                	li	tp,0
    2db8:	417d                	li	sp,31
    2dba:	0001                	nop
    2dbc:	0001                	nop
    2dbe:	800000b7          	lui	ra,0x80000
    2dc2:	4020d1b3          	sra	gp,ra,sp
    2dc6:	0205                	addi	tp,tp,1
    2dc8:	4289                	li	t0,2
    2dca:	fe5217e3          	bne	tp,t0,2db8 <test_39+0x2>
    2dce:	fff00e93          	li	t4,-1
    2dd2:	02700e13          	li	t3,39
    2dd6:	05d19a63          	bne	gp,t4,2e2a <fail>

00002dda <test_40>:
    2dda:	40bd                	li	ra,15
    2ddc:	40105133          	sra	sp,zero,ra
    2de0:	4e81                	li	t4,0
    2de2:	02800e13          	li	t3,40
    2de6:	05d11263          	bne	sp,t4,2e2a <fail>

00002dea <test_41>:
    2dea:	02000093          	li	ra,32
    2dee:	4000d133          	sra	sp,ra,zero
    2df2:	02000e93          	li	t4,32
    2df6:	02900e13          	li	t3,41
    2dfa:	03d11863          	bne	sp,t4,2e2a <fail>

00002dfe <test_42>:
    2dfe:	400050b3          	sra	ra,zero,zero
    2e02:	4e81                	li	t4,0
    2e04:	02a00e13          	li	t3,42
    2e08:	03d09163          	bne	ra,t4,2e2a <fail>

00002e0c <test_43>:
    2e0c:	40000093          	li	ra,1024
    2e10:	00001137          	lui	sp,0x1
    2e14:	80010113          	addi	sp,sp,-2048 # 800 <test_22+0x24>
    2e18:	4020d033          	sra	zero,ra,sp
    2e1c:	4e81                	li	t4,0
    2e1e:	02b00e13          	li	t3,43
    2e22:	01d01463          	bne	zero,t4,2e2a <fail>
    2e26:	03c01563          	bne	zero,t3,2e50 <pass>

00002e2a <fail>:
    2e2a:	10010537          	lui	a0,0x10010
    2e2e:	00450513          	addi	a0,a0,4 # 10010004 <_sp+0xfffed24>
    2e32:	04500593          	li	a1,69
    2e36:	05200613          	li	a2,82
    2e3a:	04f00693          	li	a3,79
    2e3e:	00a00713          	li	a4,10
    2e42:	c10c                	sw	a1,0(a0)
    2e44:	c110                	sw	a2,0(a0)
    2e46:	c110                	sw	a2,0(a0)
    2e48:	c114                	sw	a3,0(a0)
    2e4a:	c110                	sw	a2,0(a0)
    2e4c:	c118                	sw	a4,0(a0)
    2e4e:	9002                	ebreak

00002e50 <pass>:
    2e50:	10010537          	lui	a0,0x10010
    2e54:	00450513          	addi	a0,a0,4 # 10010004 <_sp+0xfffed24>
    2e58:	04f00593          	li	a1,79
    2e5c:	04b00613          	li	a2,75
    2e60:	00a00693          	li	a3,10
    2e64:	c10c                	sw	a1,0(a0)
    2e66:	c110                	sw	a2,0(a0)
    2e68:	c114                	sw	a3,0(a0)
    2e6a:	000f0113          	mv	sp,t5
    2e6e:	ffc12183          	lw	gp,-4(sp)
    2e72:	ff812083          	lw	ra,-8(sp)
    2e76:	c78fd06f          	j	2ee <sra_ret>

00002e7a <srli>:
    2e7a:	00010f13          	mv	t5,sp
    2e7e:	fe312e23          	sw	gp,-4(sp)
    2e82:	fe112c23          	sw	ra,-8(sp)
    2e86:	85c18513          	addi	a0,gp,-1956 # 10178 <srli_data>
    2e8a:	10010637          	lui	a2,0x10010
    2e8e:	00460613          	addi	a2,a2,4 # 10010004 <_sp+0xfffed24>

00002e92 <.prname_next>:
    2e92:	00050583          	lb	a1,0(a0)
    2e96:	00058663          	beqz	a1,2ea2 <.prname_done>
    2e9a:	c20c                	sw	a1,0(a2)
    2e9c:	0505                	addi	a0,a0,1
    2e9e:	ff5ff06f          	j	2e92 <.prname_next>

00002ea2 <.prname_done>:
    2ea2:	02e00593          	li	a1,46
    2ea6:	c20c                	sw	a1,0(a2)
    2ea8:	c20c                	sw	a1,0(a2)

00002eaa <test_2>:
    2eaa:	ffff80b7          	lui	ra,0xffff8
    2eae:	0000d193          	srli	gp,ra,0x0
    2eb2:	ffff8eb7          	lui	t4,0xffff8
    2eb6:	4e09                	li	t3,2
    2eb8:	23d19f63          	bne	gp,t4,30f6 <fail>

00002ebc <test_3>:
    2ebc:	ffff80b7          	lui	ra,0xffff8
    2ec0:	0010d193          	srli	gp,ra,0x1
    2ec4:	7fffceb7          	lui	t4,0x7fffc
    2ec8:	4e0d                	li	t3,3
    2eca:	23d19663          	bne	gp,t4,30f6 <fail>

00002ece <test_4>:
    2ece:	ffff80b7          	lui	ra,0xffff8
    2ed2:	0070d193          	srli	gp,ra,0x7
    2ed6:	02000eb7          	lui	t4,0x2000
    2eda:	f00e8e93          	addi	t4,t4,-256 # 1ffff00 <_sp+0x1feec20>
    2ede:	4e11                	li	t3,4
    2ee0:	21d19b63          	bne	gp,t4,30f6 <fail>

00002ee4 <test_5>:
    2ee4:	ffff80b7          	lui	ra,0xffff8
    2ee8:	00e0d193          	srli	gp,ra,0xe
    2eec:	00040eb7          	lui	t4,0x40
    2ef0:	ffee8e93          	addi	t4,t4,-2 # 3fffe <_sp+0x2ed1e>
    2ef4:	4e15                	li	t3,5
    2ef6:	21d19063          	bne	gp,t4,30f6 <fail>

00002efa <test_6>:
    2efa:	ffff80b7          	lui	ra,0xffff8
    2efe:	00108093          	addi	ra,ra,1 # ffff8001 <pulp__FC+0xffff8002>
    2f02:	00f0d193          	srli	gp,ra,0xf
    2f06:	00020eb7          	lui	t4,0x20
    2f0a:	fffe8e93          	addi	t4,t4,-1 # 1ffff <_sp+0xed1f>
    2f0e:	4e19                	li	t3,6
    2f10:	1fd19363          	bne	gp,t4,30f6 <fail>

00002f14 <test_7>:
    2f14:	fff00093          	li	ra,-1
    2f18:	0000d193          	srli	gp,ra,0x0
    2f1c:	fff00e93          	li	t4,-1
    2f20:	4e1d                	li	t3,7
    2f22:	1dd19a63          	bne	gp,t4,30f6 <fail>

00002f26 <test_8>:
    2f26:	fff00093          	li	ra,-1
    2f2a:	0010d193          	srli	gp,ra,0x1
    2f2e:	80000eb7          	lui	t4,0x80000
    2f32:	fffe8e93          	addi	t4,t4,-1 # 7fffffff <pulp__FC+0x80000000>
    2f36:	4e21                	li	t3,8
    2f38:	1bd19f63          	bne	gp,t4,30f6 <fail>

00002f3c <test_9>:
    2f3c:	fff00093          	li	ra,-1
    2f40:	0070d193          	srli	gp,ra,0x7
    2f44:	02000eb7          	lui	t4,0x2000
    2f48:	fffe8e93          	addi	t4,t4,-1 # 1ffffff <_sp+0x1feed1f>
    2f4c:	4e25                	li	t3,9
    2f4e:	1bd19463          	bne	gp,t4,30f6 <fail>

00002f52 <test_10>:
    2f52:	fff00093          	li	ra,-1
    2f56:	00e0d193          	srli	gp,ra,0xe
    2f5a:	00040eb7          	lui	t4,0x40
    2f5e:	fffe8e93          	addi	t4,t4,-1 # 3ffff <_sp+0x2ed1f>
    2f62:	4e29                	li	t3,10
    2f64:	19d19963          	bne	gp,t4,30f6 <fail>

00002f68 <test_11>:
    2f68:	fff00093          	li	ra,-1
    2f6c:	01f0d193          	srli	gp,ra,0x1f
    2f70:	4e85                	li	t4,1
    2f72:	4e2d                	li	t3,11
    2f74:	19d19163          	bne	gp,t4,30f6 <fail>

00002f78 <test_12>:
    2f78:	212120b7          	lui	ra,0x21212
    2f7c:	12108093          	addi	ra,ra,289 # 21212121 <_sp+0x21200e41>
    2f80:	0000d193          	srli	gp,ra,0x0
    2f84:	21212eb7          	lui	t4,0x21212
    2f88:	121e8e93          	addi	t4,t4,289 # 21212121 <_sp+0x21200e41>
    2f8c:	4e31                	li	t3,12
    2f8e:	17d19463          	bne	gp,t4,30f6 <fail>

00002f92 <test_13>:
    2f92:	212120b7          	lui	ra,0x21212
    2f96:	12108093          	addi	ra,ra,289 # 21212121 <_sp+0x21200e41>
    2f9a:	0010d193          	srli	gp,ra,0x1
    2f9e:	10909eb7          	lui	t4,0x10909
    2fa2:	090e8e93          	addi	t4,t4,144 # 10909090 <_sp+0x108f7db0>
    2fa6:	4e35                	li	t3,13
    2fa8:	15d19763          	bne	gp,t4,30f6 <fail>

00002fac <test_14>:
    2fac:	212120b7          	lui	ra,0x21212
    2fb0:	12108093          	addi	ra,ra,289 # 21212121 <_sp+0x21200e41>
    2fb4:	0070d193          	srli	gp,ra,0x7
    2fb8:	00424eb7          	lui	t4,0x424
    2fbc:	242e8e93          	addi	t4,t4,578 # 424242 <_sp+0x412f62>
    2fc0:	4e39                	li	t3,14
    2fc2:	13d19a63          	bne	gp,t4,30f6 <fail>

00002fc6 <test_15>:
    2fc6:	212120b7          	lui	ra,0x21212
    2fca:	12108093          	addi	ra,ra,289 # 21212121 <_sp+0x21200e41>
    2fce:	00e0d193          	srli	gp,ra,0xe
    2fd2:	00008eb7          	lui	t4,0x8
    2fd6:	484e8e93          	addi	t4,t4,1156 # 8484 <insn+0x4>
    2fda:	4e3d                	li	t3,15
    2fdc:	11d19d63          	bne	gp,t4,30f6 <fail>

00002fe0 <test_16>:
    2fe0:	212120b7          	lui	ra,0x21212
    2fe4:	12108093          	addi	ra,ra,289 # 21212121 <_sp+0x21200e41>
    2fe8:	01f0d193          	srli	gp,ra,0x1f
    2fec:	4e81                	li	t4,0
    2fee:	4e41                	li	t3,16
    2ff0:	11d19363          	bne	gp,t4,30f6 <fail>

00002ff4 <test_21>:
    2ff4:	ffff80b7          	lui	ra,0xffff8
    2ff8:	0010d093          	srli	ra,ra,0x1
    2ffc:	7fffceb7          	lui	t4,0x7fffc
    3000:	4e55                	li	t3,21
    3002:	0fd09a63          	bne	ra,t4,30f6 <fail>

00003006 <test_22>:
    3006:	4201                	li	tp,0
    3008:	ffff80b7          	lui	ra,0xffff8
    300c:	0010d193          	srli	gp,ra,0x1
    3010:	00018313          	mv	t1,gp
    3014:	0205                	addi	tp,tp,1
    3016:	4289                	li	t0,2
    3018:	fe5218e3          	bne	tp,t0,3008 <test_22+0x2>
    301c:	7fffceb7          	lui	t4,0x7fffc
    3020:	4e59                	li	t3,22
    3022:	0dd31a63          	bne	t1,t4,30f6 <fail>

00003026 <test_23>:
    3026:	4201                	li	tp,0
    3028:	ffff80b7          	lui	ra,0xffff8
    302c:	00e0d193          	srli	gp,ra,0xe
    3030:	0001                	nop
    3032:	00018313          	mv	t1,gp
    3036:	0205                	addi	tp,tp,1
    3038:	4289                	li	t0,2
    303a:	fe5217e3          	bne	tp,t0,3028 <test_23+0x2>
    303e:	00040eb7          	lui	t4,0x40
    3042:	ffee8e93          	addi	t4,t4,-2 # 3fffe <_sp+0x2ed1e>
    3046:	4e5d                	li	t3,23
    3048:	0bd31763          	bne	t1,t4,30f6 <fail>

0000304c <test_24>:
    304c:	4201                	li	tp,0
    304e:	ffff80b7          	lui	ra,0xffff8
    3052:	00f0d193          	srli	gp,ra,0xf
    3056:	0001                	nop
    3058:	0001                	nop
    305a:	00018313          	mv	t1,gp
    305e:	0205                	addi	tp,tp,1
    3060:	4289                	li	t0,2
    3062:	fe5216e3          	bne	tp,t0,304e <test_24+0x2>
    3066:	00020eb7          	lui	t4,0x20
    306a:	fffe8e93          	addi	t4,t4,-1 # 1ffff <_sp+0xed1f>
    306e:	4e61                	li	t3,24
    3070:	09d31363          	bne	t1,t4,30f6 <fail>

00003074 <test_25>:
    3074:	4201                	li	tp,0
    3076:	ffff80b7          	lui	ra,0xffff8
    307a:	0010d193          	srli	gp,ra,0x1
    307e:	0205                	addi	tp,tp,1
    3080:	4289                	li	t0,2
    3082:	fe521ae3          	bne	tp,t0,3076 <test_25+0x2>
    3086:	7fffceb7          	lui	t4,0x7fffc
    308a:	4e65                	li	t3,25
    308c:	07d19563          	bne	gp,t4,30f6 <fail>

00003090 <test_26>:
    3090:	4201                	li	tp,0
    3092:	ffff80b7          	lui	ra,0xffff8
    3096:	0001                	nop
    3098:	00e0d193          	srli	gp,ra,0xe
    309c:	0205                	addi	tp,tp,1
    309e:	4289                	li	t0,2
    30a0:	fe5219e3          	bne	tp,t0,3092 <test_26+0x2>
    30a4:	00040eb7          	lui	t4,0x40
    30a8:	ffee8e93          	addi	t4,t4,-2 # 3fffe <_sp+0x2ed1e>
    30ac:	4e69                	li	t3,26
    30ae:	05d19463          	bne	gp,t4,30f6 <fail>

000030b2 <test_27>:
    30b2:	4201                	li	tp,0
    30b4:	ffff80b7          	lui	ra,0xffff8
    30b8:	0001                	nop
    30ba:	0001                	nop
    30bc:	00f0d193          	srli	gp,ra,0xf
    30c0:	0205                	addi	tp,tp,1
    30c2:	4289                	li	t0,2
    30c4:	fe5218e3          	bne	tp,t0,30b4 <test_27+0x2>
    30c8:	00020eb7          	lui	t4,0x20
    30cc:	fffe8e93          	addi	t4,t4,-1 # 1ffff <_sp+0xed1f>
    30d0:	4e6d                	li	t3,27
    30d2:	03d19263          	bne	gp,t4,30f6 <fail>

000030d6 <test_28>:
    30d6:	01f05093          	srli	ra,zero,0x1f
    30da:	4e81                	li	t4,0
    30dc:	4e71                	li	t3,28
    30de:	01d09c63          	bne	ra,t4,30f6 <fail>

000030e2 <test_29>:
    30e2:	02100093          	li	ra,33
    30e6:	0140d013          	srli	zero,ra,0x14
    30ea:	4e81                	li	t4,0
    30ec:	4e75                	li	t3,29
    30ee:	01d01463          	bne	zero,t4,30f6 <fail>
    30f2:	03c01563          	bne	zero,t3,311c <pass>

000030f6 <fail>:
    30f6:	10010537          	lui	a0,0x10010
    30fa:	00450513          	addi	a0,a0,4 # 10010004 <_sp+0xfffed24>
    30fe:	04500593          	li	a1,69
    3102:	05200613          	li	a2,82
    3106:	04f00693          	li	a3,79
    310a:	00a00713          	li	a4,10
    310e:	c10c                	sw	a1,0(a0)
    3110:	c110                	sw	a2,0(a0)
    3112:	c110                	sw	a2,0(a0)
    3114:	c114                	sw	a3,0(a0)
    3116:	c110                	sw	a2,0(a0)
    3118:	c118                	sw	a4,0(a0)
    311a:	9002                	ebreak

0000311c <pass>:
    311c:	10010537          	lui	a0,0x10010
    3120:	00450513          	addi	a0,a0,4 # 10010004 <_sp+0xfffed24>
    3124:	04f00593          	li	a1,79
    3128:	04b00613          	li	a2,75
    312c:	00a00693          	li	a3,10
    3130:	c10c                	sw	a1,0(a0)
    3132:	c110                	sw	a2,0(a0)
    3134:	c114                	sw	a3,0(a0)
    3136:	000f0113          	mv	sp,t5
    313a:	ffc12183          	lw	gp,-4(sp)
    313e:	ff812083          	lw	ra,-8(sp)
    3142:	96cfd06f          	j	2ae <srli_ret>

00003146 <beq>:
    3146:	00010f13          	mv	t5,sp
    314a:	fe312e23          	sw	gp,-4(sp)
    314e:	fe112c23          	sw	ra,-8(sp)
    3152:	86418513          	addi	a0,gp,-1948 # 10180 <beq_data>
    3156:	10010637          	lui	a2,0x10010
    315a:	00460613          	addi	a2,a2,4 # 10010004 <_sp+0xfffed24>

0000315e <.prname_next>:
    315e:	00050583          	lb	a1,0(a0)
    3162:	00058663          	beqz	a1,316e <.prname_done>
    3166:	c20c                	sw	a1,0(a2)
    3168:	0505                	addi	a0,a0,1
    316a:	ff5ff06f          	j	315e <.prname_next>

0000316e <.prname_done>:
    316e:	02e00593          	li	a1,46
    3172:	c20c                	sw	a1,0(a2)
    3174:	c20c                	sw	a1,0(a2)

00003176 <test_2>:
    3176:	4e09                	li	t3,2
    3178:	4081                	li	ra,0
    317a:	4101                	li	sp,0
    317c:	00208663          	beq	ra,sp,3188 <test_2+0x12>
    3180:	1dc01563          	bne	zero,t3,334a <fail>
    3184:	01c01663          	bne	zero,t3,3190 <test_3>
    3188:	fe208ee3          	beq	ra,sp,3184 <test_2+0xe>
    318c:	1bc01f63          	bne	zero,t3,334a <fail>

00003190 <test_3>:
    3190:	4e0d                	li	t3,3
    3192:	4085                	li	ra,1
    3194:	4105                	li	sp,1
    3196:	00208663          	beq	ra,sp,31a2 <test_3+0x12>
    319a:	1bc01863          	bne	zero,t3,334a <fail>
    319e:	01c01663          	bne	zero,t3,31aa <test_4>
    31a2:	fe208ee3          	beq	ra,sp,319e <test_3+0xe>
    31a6:	1bc01263          	bne	zero,t3,334a <fail>

000031aa <test_4>:
    31aa:	4e11                	li	t3,4
    31ac:	50fd                	li	ra,-1
    31ae:	517d                	li	sp,-1
    31b0:	00208663          	beq	ra,sp,31bc <test_4+0x12>
    31b4:	19c01b63          	bne	zero,t3,334a <fail>
    31b8:	01c01663          	bne	zero,t3,31c4 <test_5>
    31bc:	fe208ee3          	beq	ra,sp,31b8 <test_4+0xe>
    31c0:	19c01563          	bne	zero,t3,334a <fail>

000031c4 <test_5>:
    31c4:	4e15                	li	t3,5
    31c6:	4081                	li	ra,0
    31c8:	4105                	li	sp,1
    31ca:	00208463          	beq	ra,sp,31d2 <test_5+0xe>
    31ce:	01c01463          	bne	zero,t3,31d6 <test_5+0x12>
    31d2:	17c01c63          	bne	zero,t3,334a <fail>
    31d6:	fe208ee3          	beq	ra,sp,31d2 <test_5+0xe>

000031da <test_6>:
    31da:	4e19                	li	t3,6
    31dc:	4085                	li	ra,1
    31de:	4101                	li	sp,0
    31e0:	00208463          	beq	ra,sp,31e8 <test_6+0xe>
    31e4:	01c01463          	bne	zero,t3,31ec <test_6+0x12>
    31e8:	17c01163          	bne	zero,t3,334a <fail>
    31ec:	fe208ee3          	beq	ra,sp,31e8 <test_6+0xe>

000031f0 <test_7>:
    31f0:	4e1d                	li	t3,7
    31f2:	50fd                	li	ra,-1
    31f4:	4105                	li	sp,1
    31f6:	00208463          	beq	ra,sp,31fe <test_7+0xe>
    31fa:	01c01463          	bne	zero,t3,3202 <test_7+0x12>
    31fe:	15c01663          	bne	zero,t3,334a <fail>
    3202:	fe208ee3          	beq	ra,sp,31fe <test_7+0xe>

00003206 <test_8>:
    3206:	4e21                	li	t3,8
    3208:	4085                	li	ra,1
    320a:	517d                	li	sp,-1
    320c:	00208463          	beq	ra,sp,3214 <test_8+0xe>
    3210:	01c01463          	bne	zero,t3,3218 <test_8+0x12>
    3214:	13c01b63          	bne	zero,t3,334a <fail>
    3218:	fe208ee3          	beq	ra,sp,3214 <test_8+0xe>

0000321c <test_9>:
    321c:	4e25                	li	t3,9
    321e:	4201                	li	tp,0
    3220:	4081                	li	ra,0
    3222:	517d                	li	sp,-1
    3224:	12208363          	beq	ra,sp,334a <fail>
    3228:	0205                	addi	tp,tp,1
    322a:	4289                	li	t0,2
    322c:	fe521ae3          	bne	tp,t0,3220 <test_9+0x4>

00003230 <test_10>:
    3230:	4e29                	li	t3,10
    3232:	4201                	li	tp,0
    3234:	4081                	li	ra,0
    3236:	517d                	li	sp,-1
    3238:	0001                	nop
    323a:	10208863          	beq	ra,sp,334a <fail>
    323e:	0205                	addi	tp,tp,1
    3240:	4289                	li	t0,2
    3242:	fe5219e3          	bne	tp,t0,3234 <test_10+0x4>

00003246 <test_11>:
    3246:	4e2d                	li	t3,11
    3248:	4201                	li	tp,0
    324a:	4081                	li	ra,0
    324c:	517d                	li	sp,-1
    324e:	0001                	nop
    3250:	0001                	nop
    3252:	0e208c63          	beq	ra,sp,334a <fail>
    3256:	0205                	addi	tp,tp,1
    3258:	4289                	li	t0,2
    325a:	fe5218e3          	bne	tp,t0,324a <test_11+0x4>

0000325e <test_12>:
    325e:	4e31                	li	t3,12
    3260:	4201                	li	tp,0
    3262:	4081                	li	ra,0
    3264:	0001                	nop
    3266:	517d                	li	sp,-1
    3268:	0e208163          	beq	ra,sp,334a <fail>
    326c:	0205                	addi	tp,tp,1
    326e:	4289                	li	t0,2
    3270:	fe5219e3          	bne	tp,t0,3262 <test_12+0x4>

00003274 <test_13>:
    3274:	4e35                	li	t3,13
    3276:	4201                	li	tp,0
    3278:	4081                	li	ra,0
    327a:	0001                	nop
    327c:	517d                	li	sp,-1
    327e:	0001                	nop
    3280:	0c208563          	beq	ra,sp,334a <fail>
    3284:	0205                	addi	tp,tp,1
    3286:	4289                	li	t0,2
    3288:	fe5218e3          	bne	tp,t0,3278 <test_13+0x4>

0000328c <test_14>:
    328c:	4e39                	li	t3,14
    328e:	4201                	li	tp,0
    3290:	4081                	li	ra,0
    3292:	0001                	nop
    3294:	0001                	nop
    3296:	517d                	li	sp,-1
    3298:	0a208963          	beq	ra,sp,334a <fail>
    329c:	0205                	addi	tp,tp,1
    329e:	4289                	li	t0,2
    32a0:	fe5218e3          	bne	tp,t0,3290 <test_14+0x4>

000032a4 <test_15>:
    32a4:	4e3d                	li	t3,15
    32a6:	4201                	li	tp,0
    32a8:	4081                	li	ra,0
    32aa:	517d                	li	sp,-1
    32ac:	08208f63          	beq	ra,sp,334a <fail>
    32b0:	0205                	addi	tp,tp,1
    32b2:	4289                	li	t0,2
    32b4:	fe521ae3          	bne	tp,t0,32a8 <test_15+0x4>

000032b8 <test_16>:
    32b8:	4e41                	li	t3,16
    32ba:	4201                	li	tp,0
    32bc:	4081                	li	ra,0
    32be:	517d                	li	sp,-1
    32c0:	0001                	nop
    32c2:	08208463          	beq	ra,sp,334a <fail>
    32c6:	0205                	addi	tp,tp,1
    32c8:	4289                	li	t0,2
    32ca:	fe5219e3          	bne	tp,t0,32bc <test_16+0x4>

000032ce <test_17>:
    32ce:	4e45                	li	t3,17
    32d0:	4201                	li	tp,0
    32d2:	4081                	li	ra,0
    32d4:	517d                	li	sp,-1
    32d6:	0001                	nop
    32d8:	0001                	nop
    32da:	06208863          	beq	ra,sp,334a <fail>
    32de:	0205                	addi	tp,tp,1
    32e0:	4289                	li	t0,2
    32e2:	fe5218e3          	bne	tp,t0,32d2 <test_17+0x4>

000032e6 <test_18>:
    32e6:	4e49                	li	t3,18
    32e8:	4201                	li	tp,0
    32ea:	4081                	li	ra,0
    32ec:	0001                	nop
    32ee:	517d                	li	sp,-1
    32f0:	04208d63          	beq	ra,sp,334a <fail>
    32f4:	0205                	addi	tp,tp,1
    32f6:	4289                	li	t0,2
    32f8:	fe5219e3          	bne	tp,t0,32ea <test_18+0x4>

000032fc <test_19>:
    32fc:	4e4d                	li	t3,19
    32fe:	4201                	li	tp,0
    3300:	4081                	li	ra,0
    3302:	0001                	nop
    3304:	517d                	li	sp,-1
    3306:	0001                	nop
    3308:	04208163          	beq	ra,sp,334a <fail>
    330c:	0205                	addi	tp,tp,1
    330e:	4289                	li	t0,2
    3310:	fe5218e3          	bne	tp,t0,3300 <test_19+0x4>

00003314 <test_20>:
    3314:	4e51                	li	t3,20
    3316:	4201                	li	tp,0
    3318:	4081                	li	ra,0
    331a:	0001                	nop
    331c:	0001                	nop
    331e:	517d                	li	sp,-1
    3320:	02208563          	beq	ra,sp,334a <fail>
    3324:	0205                	addi	tp,tp,1
    3326:	4289                	li	t0,2
    3328:	fe5218e3          	bne	tp,t0,3318 <test_20+0x4>

0000332c <test_21>:
    332c:	4085                	li	ra,1
    332e:	00000663          	beqz	zero,333a <test_21+0xe>
    3332:	0085                	addi	ra,ra,1
    3334:	0085                	addi	ra,ra,1
    3336:	0085                	addi	ra,ra,1
    3338:	0085                	addi	ra,ra,1
    333a:	0085                	addi	ra,ra,1
    333c:	0085                	addi	ra,ra,1
    333e:	4e8d                	li	t4,3
    3340:	4e55                	li	t3,21
    3342:	01d09463          	bne	ra,t4,334a <fail>
    3346:	03c01563          	bne	zero,t3,3370 <pass>

0000334a <fail>:
    334a:	10010537          	lui	a0,0x10010
    334e:	00450513          	addi	a0,a0,4 # 10010004 <_sp+0xfffed24>
    3352:	04500593          	li	a1,69
    3356:	05200613          	li	a2,82
    335a:	04f00693          	li	a3,79
    335e:	00a00713          	li	a4,10
    3362:	c10c                	sw	a1,0(a0)
    3364:	c110                	sw	a2,0(a0)
    3366:	c110                	sw	a2,0(a0)
    3368:	c114                	sw	a3,0(a0)
    336a:	c110                	sw	a2,0(a0)
    336c:	c118                	sw	a4,0(a0)
    336e:	9002                	ebreak

00003370 <pass>:
    3370:	10010537          	lui	a0,0x10010
    3374:	00450513          	addi	a0,a0,4 # 10010004 <_sp+0xfffed24>
    3378:	04f00593          	li	a1,79
    337c:	04b00613          	li	a2,75
    3380:	00a00693          	li	a3,10
    3384:	c10c                	sw	a1,0(a0)
    3386:	c110                	sw	a2,0(a0)
    3388:	c114                	sw	a3,0(a0)
    338a:	000f0113          	mv	sp,t5
    338e:	ffc12183          	lw	gp,-4(sp)
    3392:	ff812083          	lw	ra,-8(sp)
    3396:	e79fc06f          	j	20e <beq_ret>
    339a:	0000                	unimp
    339c:	0000                	unimp
	...

000033a0 <auipc>:
    33a0:	00010f13          	mv	t5,sp
    33a4:	fe312e23          	sw	gp,-4(sp)
    33a8:	fe112c23          	sw	ra,-8(sp)
    33ac:	86818513          	addi	a0,gp,-1944 # 10184 <auipc_data>
    33b0:	10010637          	lui	a2,0x10010
    33b4:	00460613          	addi	a2,a2,4 # 10010004 <_sp+0xfffed24>

000033b8 <.prname_next>:
    33b8:	00050583          	lb	a1,0(a0)
    33bc:	00058663          	beqz	a1,33c8 <.prname_done>
    33c0:	c20c                	sw	a1,0(a2)
    33c2:	0505                	addi	a0,a0,1
    33c4:	ff5ff06f          	j	33b8 <.prname_next>

000033c8 <.prname_done>:
    33c8:	02e00593          	li	a1,46
    33cc:	c20c                	sw	a1,0(a2)
    33ce:	c20c                	sw	a1,0(a2)

000033d0 <test_2>:
    33d0:	00002517          	auipc	a0,0x2
    33d4:	71c50513          	addi	a0,a0,1820 # 5aec <test_27+0x16>
    33d8:	004005ef          	jal	a1,33dc <test_2+0xc>
    33dc:	8d0d                	sub	a0,a0,a1
    33de:	00002eb7          	lui	t4,0x2
    33e2:	710e8e93          	addi	t4,t4,1808 # 2710 <test_4+0x8>
    33e6:	4e09                	li	t3,2
    33e8:	03d51463          	bne	a0,t4,3410 <fail>

000033ec <test_3>:
    33ec:	00000013          	nop
    33f0:	ffffe517          	auipc	a0,0xffffe
    33f4:	8fc50513          	addi	a0,a0,-1796 # cec <test_25+0xe>
    33f8:	004005ef          	jal	a1,33fc <test_3+0x10>
    33fc:	8d0d                	sub	a0,a0,a1
    33fe:	ffffeeb7          	lui	t4,0xffffe
    3402:	8f0e8e93          	addi	t4,t4,-1808 # ffffd8f0 <pulp__FC+0xffffd8f1>
    3406:	4e0d                	li	t3,3
    3408:	01d51463          	bne	a0,t4,3410 <fail>
    340c:	03c01563          	bne	zero,t3,3436 <pass>

00003410 <fail>:
    3410:	10010537          	lui	a0,0x10010
    3414:	00450513          	addi	a0,a0,4 # 10010004 <_sp+0xfffed24>
    3418:	04500593          	li	a1,69
    341c:	05200613          	li	a2,82
    3420:	04f00693          	li	a3,79
    3424:	00a00713          	li	a4,10
    3428:	c10c                	sw	a1,0(a0)
    342a:	c110                	sw	a2,0(a0)
    342c:	c110                	sw	a2,0(a0)
    342e:	c114                	sw	a3,0(a0)
    3430:	c110                	sw	a2,0(a0)
    3432:	c118                	sw	a4,0(a0)
    3434:	9002                	ebreak

00003436 <pass>:
    3436:	10010537          	lui	a0,0x10010
    343a:	00450513          	addi	a0,a0,4 # 10010004 <_sp+0xfffed24>
    343e:	04f00593          	li	a1,79
    3442:	04b00613          	li	a2,75
    3446:	00a00693          	li	a3,10
    344a:	c10c                	sw	a1,0(a0)
    344c:	c110                	sw	a2,0(a0)
    344e:	c114                	sw	a3,0(a0)
    3450:	000f0113          	mv	sp,t5
    3454:	ffc12183          	lw	gp,-4(sp)
    3458:	ff812083          	lw	ra,-8(sp)
    345c:	d93fc06f          	j	1ee <auipc_ret>
    3460:	0000                	unimp
	...

00003464 <sw>:
    3464:	00010f13          	mv	t5,sp
    3468:	fe312e23          	sw	gp,-4(sp)
    346c:	fe112c23          	sw	ra,-8(sp)
    3470:	87018513          	addi	a0,gp,-1936 # 1018c <sw_data>
    3474:	10010637          	lui	a2,0x10010
    3478:	00460613          	addi	a2,a2,4 # 10010004 <_sp+0xfffed24>

0000347c <.prname_next>:
    347c:	00050583          	lb	a1,0(a0)
    3480:	00058663          	beqz	a1,348c <.prname_done>
    3484:	c20c                	sw	a1,0(a2)
    3486:	0505                	addi	a0,a0,1
    3488:	ff5ff06f          	j	347c <.prname_next>

0000348c <.prname_done>:
    348c:	02e00593          	li	a1,46
    3490:	c20c                	sw	a1,0(a2)
    3492:	c20c                	sw	a1,0(a2)

00003494 <test_2>:
    3494:	0000d097          	auipc	ra,0xd
    3498:	cfc08093          	addi	ra,ra,-772 # 10190 <tdat>
    349c:	00aa0137          	lui	sp,0xaa0
    34a0:	0aa10113          	addi	sp,sp,170 # aa00aa <_sp+0xa8edca>
    34a4:	0020a023          	sw	sp,0(ra)
    34a8:	0000a183          	lw	gp,0(ra)
    34ac:	00aa0eb7          	lui	t4,0xaa0
    34b0:	0aae8e93          	addi	t4,t4,170 # aa00aa <_sp+0xa8edca>
    34b4:	4e09                	li	t3,2
    34b6:	39d19e63          	bne	gp,t4,3852 <fail>

000034ba <test_3>:
    34ba:	0000d097          	auipc	ra,0xd
    34be:	cd608093          	addi	ra,ra,-810 # 10190 <tdat>
    34c2:	aa00b137          	lui	sp,0xaa00b
    34c6:	a0010113          	addi	sp,sp,-1536 # aa00aa00 <pulp__FC+0xaa00aa01>
    34ca:	0020a223          	sw	sp,4(ra)
    34ce:	0040a183          	lw	gp,4(ra)
    34d2:	aa00beb7          	lui	t4,0xaa00b
    34d6:	a00e8e93          	addi	t4,t4,-1536 # aa00aa00 <pulp__FC+0xaa00aa01>
    34da:	4e0d                	li	t3,3
    34dc:	37d19b63          	bne	gp,t4,3852 <fail>

000034e0 <test_4>:
    34e0:	0000d097          	auipc	ra,0xd
    34e4:	cb008093          	addi	ra,ra,-848 # 10190 <tdat>
    34e8:	0aa01137          	lui	sp,0xaa01
    34ec:	aa010113          	addi	sp,sp,-1376 # aa00aa0 <_sp+0xa9ef7c0>
    34f0:	0020a423          	sw	sp,8(ra)
    34f4:	0080a183          	lw	gp,8(ra)
    34f8:	0aa01eb7          	lui	t4,0xaa01
    34fc:	aa0e8e93          	addi	t4,t4,-1376 # aa00aa0 <_sp+0xa9ef7c0>
    3500:	4e11                	li	t3,4
    3502:	35d19863          	bne	gp,t4,3852 <fail>

00003506 <test_5>:
    3506:	0000d097          	auipc	ra,0xd
    350a:	c8a08093          	addi	ra,ra,-886 # 10190 <tdat>
    350e:	a00aa137          	lui	sp,0xa00aa
    3512:	00a10113          	addi	sp,sp,10 # a00aa00a <pulp__FC+0xa00aa00b>
    3516:	0020a623          	sw	sp,12(ra)
    351a:	00c0a183          	lw	gp,12(ra)
    351e:	a00aaeb7          	lui	t4,0xa00aa
    3522:	00ae8e93          	addi	t4,t4,10 # a00aa00a <pulp__FC+0xa00aa00b>
    3526:	4e15                	li	t3,5
    3528:	33d19563          	bne	gp,t4,3852 <fail>

0000352c <test_6>:
    352c:	0000d097          	auipc	ra,0xd
    3530:	c8008093          	addi	ra,ra,-896 # 101ac <tdat8>
    3534:	00aa0137          	lui	sp,0xaa0
    3538:	0aa10113          	addi	sp,sp,170 # aa00aa <_sp+0xa8edca>
    353c:	fe20aa23          	sw	sp,-12(ra)
    3540:	ff40a183          	lw	gp,-12(ra)
    3544:	00aa0eb7          	lui	t4,0xaa0
    3548:	0aae8e93          	addi	t4,t4,170 # aa00aa <_sp+0xa8edca>
    354c:	4e19                	li	t3,6
    354e:	31d19263          	bne	gp,t4,3852 <fail>

00003552 <test_7>:
    3552:	0000d097          	auipc	ra,0xd
    3556:	c5a08093          	addi	ra,ra,-934 # 101ac <tdat8>
    355a:	aa00b137          	lui	sp,0xaa00b
    355e:	a0010113          	addi	sp,sp,-1536 # aa00aa00 <pulp__FC+0xaa00aa01>
    3562:	fe20ac23          	sw	sp,-8(ra)
    3566:	ff80a183          	lw	gp,-8(ra)
    356a:	aa00beb7          	lui	t4,0xaa00b
    356e:	a00e8e93          	addi	t4,t4,-1536 # aa00aa00 <pulp__FC+0xaa00aa01>
    3572:	4e1d                	li	t3,7
    3574:	2dd19f63          	bne	gp,t4,3852 <fail>

00003578 <test_8>:
    3578:	0000d097          	auipc	ra,0xd
    357c:	c3408093          	addi	ra,ra,-972 # 101ac <tdat8>
    3580:	0aa01137          	lui	sp,0xaa01
    3584:	aa010113          	addi	sp,sp,-1376 # aa00aa0 <_sp+0xa9ef7c0>
    3588:	fe20ae23          	sw	sp,-4(ra)
    358c:	ffc0a183          	lw	gp,-4(ra)
    3590:	0aa01eb7          	lui	t4,0xaa01
    3594:	aa0e8e93          	addi	t4,t4,-1376 # aa00aa0 <_sp+0xa9ef7c0>
    3598:	4e21                	li	t3,8
    359a:	2bd19c63          	bne	gp,t4,3852 <fail>

0000359e <test_9>:
    359e:	0000d097          	auipc	ra,0xd
    35a2:	c0e08093          	addi	ra,ra,-1010 # 101ac <tdat8>
    35a6:	a00aa137          	lui	sp,0xa00aa
    35aa:	00a10113          	addi	sp,sp,10 # a00aa00a <pulp__FC+0xa00aa00b>
    35ae:	0020a023          	sw	sp,0(ra)
    35b2:	0000a183          	lw	gp,0(ra)
    35b6:	a00aaeb7          	lui	t4,0xa00aa
    35ba:	00ae8e93          	addi	t4,t4,10 # a00aa00a <pulp__FC+0xa00aa00b>
    35be:	4e25                	li	t3,9
    35c0:	29d19963          	bne	gp,t4,3852 <fail>

000035c4 <test_10>:
    35c4:	0000d097          	auipc	ra,0xd
    35c8:	bec08093          	addi	ra,ra,-1044 # 101b0 <tdat9>
    35cc:	12345137          	lui	sp,0x12345
    35d0:	67810113          	addi	sp,sp,1656 # 12345678 <_sp+0x12334398>
    35d4:	fe008213          	addi	tp,ra,-32
    35d8:	02222023          	sw	sp,32(tp) # 20 <__vector_start+0x20>
    35dc:	0000a183          	lw	gp,0(ra)
    35e0:	12345eb7          	lui	t4,0x12345
    35e4:	678e8e93          	addi	t4,t4,1656 # 12345678 <_sp+0x12334398>
    35e8:	4e29                	li	t3,10
    35ea:	27d19463          	bne	gp,t4,3852 <fail>

000035ee <test_11>:
    35ee:	0000d097          	auipc	ra,0xd
    35f2:	bc208093          	addi	ra,ra,-1086 # 101b0 <tdat9>
    35f6:	58213137          	lui	sp,0x58213
    35fa:	09810113          	addi	sp,sp,152 # 58213098 <_sp+0x58201db8>
    35fe:	10f5                	addi	ra,ra,-3
    3600:	0020a3a3          	sw	sp,7(ra)
    3604:	0000d217          	auipc	tp,0xd
    3608:	bb020213          	addi	tp,tp,-1104 # 101b4 <tdat10>
    360c:	00022183          	lw	gp,0(tp) # 0 <__vector_start>
    3610:	58213eb7          	lui	t4,0x58213
    3614:	098e8e93          	addi	t4,t4,152 # 58213098 <_sp+0x58201db8>
    3618:	4e2d                	li	t3,11
    361a:	23d19c63          	bne	gp,t4,3852 <fail>

0000361e <test_12>:
    361e:	4e31                	li	t3,12
    3620:	4201                	li	tp,0
    3622:	aabbd0b7          	lui	ra,0xaabbd
    3626:	cdd08093          	addi	ra,ra,-803 # aabbccdd <pulp__FC+0xaabbccde>
    362a:	0000d117          	auipc	sp,0xd
    362e:	b6610113          	addi	sp,sp,-1178 # 10190 <tdat>
    3632:	c006                	sw	ra,0(sp)
    3634:	4182                	lw	gp,0(sp)
    3636:	aabbdeb7          	lui	t4,0xaabbd
    363a:	cdde8e93          	addi	t4,t4,-803 # aabbccdd <pulp__FC+0xaabbccde>
    363e:	21d19a63          	bne	gp,t4,3852 <fail>
    3642:	0205                	addi	tp,tp,1
    3644:	4289                	li	t0,2
    3646:	fc521ee3          	bne	tp,t0,3622 <test_12+0x4>

0000364a <test_13>:
    364a:	4e35                	li	t3,13
    364c:	4201                	li	tp,0
    364e:	daabc0b7          	lui	ra,0xdaabc
    3652:	ccd08093          	addi	ra,ra,-819 # daabbccd <pulp__FC+0xdaabbcce>
    3656:	0000d117          	auipc	sp,0xd
    365a:	b3a10113          	addi	sp,sp,-1222 # 10190 <tdat>
    365e:	0001                	nop
    3660:	c206                	sw	ra,4(sp)
    3662:	4192                	lw	gp,4(sp)
    3664:	daabceb7          	lui	t4,0xdaabc
    3668:	ccde8e93          	addi	t4,t4,-819 # daabbccd <pulp__FC+0xdaabbcce>
    366c:	1fd19363          	bne	gp,t4,3852 <fail>
    3670:	0205                	addi	tp,tp,1
    3672:	4289                	li	t0,2
    3674:	fc521de3          	bne	tp,t0,364e <test_13+0x4>

00003678 <test_14>:
    3678:	4e39                	li	t3,14
    367a:	4201                	li	tp,0
    367c:	ddaac0b7          	lui	ra,0xddaac
    3680:	bcc08093          	addi	ra,ra,-1076 # ddaabbcc <pulp__FC+0xddaabbcd>
    3684:	0000d117          	auipc	sp,0xd
    3688:	b0c10113          	addi	sp,sp,-1268 # 10190 <tdat>
    368c:	0001                	nop
    368e:	0001                	nop
    3690:	c406                	sw	ra,8(sp)
    3692:	41a2                	lw	gp,8(sp)
    3694:	ddaaceb7          	lui	t4,0xddaac
    3698:	bcce8e93          	addi	t4,t4,-1076 # ddaabbcc <pulp__FC+0xddaabbcd>
    369c:	1bd19b63          	bne	gp,t4,3852 <fail>
    36a0:	0205                	addi	tp,tp,1
    36a2:	4289                	li	t0,2
    36a4:	fc521ce3          	bne	tp,t0,367c <test_14+0x4>

000036a8 <test_15>:
    36a8:	4e3d                	li	t3,15
    36aa:	4201                	li	tp,0
    36ac:	cddab0b7          	lui	ra,0xcddab
    36b0:	bbc08093          	addi	ra,ra,-1092 # cddaabbc <pulp__FC+0xcddaabbd>
    36b4:	0001                	nop
    36b6:	0000d117          	auipc	sp,0xd
    36ba:	ada10113          	addi	sp,sp,-1318 # 10190 <tdat>
    36be:	c606                	sw	ra,12(sp)
    36c0:	41b2                	lw	gp,12(sp)
    36c2:	cddabeb7          	lui	t4,0xcddab
    36c6:	bbce8e93          	addi	t4,t4,-1092 # cddaabbc <pulp__FC+0xcddaabbd>
    36ca:	19d19463          	bne	gp,t4,3852 <fail>
    36ce:	0205                	addi	tp,tp,1
    36d0:	4289                	li	t0,2
    36d2:	fc521de3          	bne	tp,t0,36ac <test_15+0x4>

000036d6 <test_16>:
    36d6:	4e41                	li	t3,16
    36d8:	4201                	li	tp,0
    36da:	ccddb0b7          	lui	ra,0xccddb
    36de:	abb08093          	addi	ra,ra,-1349 # ccddaabb <pulp__FC+0xccddaabc>
    36e2:	0001                	nop
    36e4:	0000d117          	auipc	sp,0xd
    36e8:	aac10113          	addi	sp,sp,-1364 # 10190 <tdat>
    36ec:	0001                	nop
    36ee:	c806                	sw	ra,16(sp)
    36f0:	41c2                	lw	gp,16(sp)
    36f2:	ccddbeb7          	lui	t4,0xccddb
    36f6:	abbe8e93          	addi	t4,t4,-1349 # ccddaabb <pulp__FC+0xccddaabc>
    36fa:	15d19c63          	bne	gp,t4,3852 <fail>
    36fe:	0205                	addi	tp,tp,1
    3700:	4289                	li	t0,2
    3702:	fc521ce3          	bne	tp,t0,36da <test_16+0x4>

00003706 <test_17>:
    3706:	4e45                	li	t3,17
    3708:	4201                	li	tp,0
    370a:	bccde0b7          	lui	ra,0xbccde
    370e:	aab08093          	addi	ra,ra,-1365 # bccddaab <pulp__FC+0xbccddaac>
    3712:	0001                	nop
    3714:	0001                	nop
    3716:	0000d117          	auipc	sp,0xd
    371a:	a7a10113          	addi	sp,sp,-1414 # 10190 <tdat>
    371e:	ca06                	sw	ra,20(sp)
    3720:	41d2                	lw	gp,20(sp)
    3722:	bccdeeb7          	lui	t4,0xbccde
    3726:	aabe8e93          	addi	t4,t4,-1365 # bccddaab <pulp__FC+0xbccddaac>
    372a:	13d19463          	bne	gp,t4,3852 <fail>
    372e:	0205                	addi	tp,tp,1
    3730:	4289                	li	t0,2
    3732:	fc521ce3          	bne	tp,t0,370a <test_17+0x4>

00003736 <test_18>:
    3736:	4e49                	li	t3,18
    3738:	4201                	li	tp,0
    373a:	0000d117          	auipc	sp,0xd
    373e:	a5610113          	addi	sp,sp,-1450 # 10190 <tdat>
    3742:	001120b7          	lui	ra,0x112
    3746:	23308093          	addi	ra,ra,563 # 112233 <_sp+0x100f53>
    374a:	c006                	sw	ra,0(sp)
    374c:	4182                	lw	gp,0(sp)
    374e:	00112eb7          	lui	t4,0x112
    3752:	233e8e93          	addi	t4,t4,563 # 112233 <_sp+0x100f53>
    3756:	0fd19e63          	bne	gp,t4,3852 <fail>
    375a:	0205                	addi	tp,tp,1
    375c:	4289                	li	t0,2
    375e:	fc521ee3          	bne	tp,t0,373a <test_18+0x4>

00003762 <test_19>:
    3762:	4e4d                	li	t3,19
    3764:	4201                	li	tp,0
    3766:	0000d117          	auipc	sp,0xd
    376a:	a2a10113          	addi	sp,sp,-1494 # 10190 <tdat>
    376e:	300110b7          	lui	ra,0x30011
    3772:	22308093          	addi	ra,ra,547 # 30011223 <_sp+0x2fffff43>
    3776:	0001                	nop
    3778:	c206                	sw	ra,4(sp)
    377a:	4192                	lw	gp,4(sp)
    377c:	30011eb7          	lui	t4,0x30011
    3780:	223e8e93          	addi	t4,t4,547 # 30011223 <_sp+0x2fffff43>
    3784:	0dd19763          	bne	gp,t4,3852 <fail>
    3788:	0205                	addi	tp,tp,1
    378a:	4289                	li	t0,2
    378c:	fc521de3          	bne	tp,t0,3766 <test_19+0x4>

00003790 <test_20>:
    3790:	4e51                	li	t3,20
    3792:	4201                	li	tp,0
    3794:	0000d117          	auipc	sp,0xd
    3798:	9fc10113          	addi	sp,sp,-1540 # 10190 <tdat>
    379c:	330010b7          	lui	ra,0x33001
    37a0:	12208093          	addi	ra,ra,290 # 33001122 <_sp+0x32fefe42>
    37a4:	0001                	nop
    37a6:	0001                	nop
    37a8:	c406                	sw	ra,8(sp)
    37aa:	41a2                	lw	gp,8(sp)
    37ac:	33001eb7          	lui	t4,0x33001
    37b0:	122e8e93          	addi	t4,t4,290 # 33001122 <_sp+0x32fefe42>
    37b4:	09d19f63          	bne	gp,t4,3852 <fail>
    37b8:	0205                	addi	tp,tp,1
    37ba:	4289                	li	t0,2
    37bc:	fc521ce3          	bne	tp,t0,3794 <test_20+0x4>

000037c0 <test_21>:
    37c0:	4e55                	li	t3,21
    37c2:	4201                	li	tp,0
    37c4:	0000d117          	auipc	sp,0xd
    37c8:	9cc10113          	addi	sp,sp,-1588 # 10190 <tdat>
    37cc:	0001                	nop
    37ce:	233000b7          	lui	ra,0x23300
    37d2:	11208093          	addi	ra,ra,274 # 23300112 <_sp+0x232eee32>
    37d6:	c606                	sw	ra,12(sp)
    37d8:	41b2                	lw	gp,12(sp)
    37da:	23300eb7          	lui	t4,0x23300
    37de:	112e8e93          	addi	t4,t4,274 # 23300112 <_sp+0x232eee32>
    37e2:	07d19863          	bne	gp,t4,3852 <fail>
    37e6:	0205                	addi	tp,tp,1
    37e8:	4289                	li	t0,2
    37ea:	fc521de3          	bne	tp,t0,37c4 <test_21+0x4>

000037ee <test_22>:
    37ee:	4e59                	li	t3,22
    37f0:	4201                	li	tp,0
    37f2:	0000d117          	auipc	sp,0xd
    37f6:	99e10113          	addi	sp,sp,-1634 # 10190 <tdat>
    37fa:	0001                	nop
    37fc:	223300b7          	lui	ra,0x22330
    3800:	01108093          	addi	ra,ra,17 # 22330011 <_sp+0x2231ed31>
    3804:	0001                	nop
    3806:	c806                	sw	ra,16(sp)
    3808:	41c2                	lw	gp,16(sp)
    380a:	22330eb7          	lui	t4,0x22330
    380e:	011e8e93          	addi	t4,t4,17 # 22330011 <_sp+0x2231ed31>
    3812:	05d19063          	bne	gp,t4,3852 <fail>
    3816:	0205                	addi	tp,tp,1
    3818:	4289                	li	t0,2
    381a:	fc521ce3          	bne	tp,t0,37f2 <test_22+0x4>

0000381e <test_23>:
    381e:	4e5d                	li	t3,23
    3820:	4201                	li	tp,0
    3822:	0000d117          	auipc	sp,0xd
    3826:	96e10113          	addi	sp,sp,-1682 # 10190 <tdat>
    382a:	0001                	nop
    382c:	0001                	nop
    382e:	122330b7          	lui	ra,0x12233
    3832:	00108093          	addi	ra,ra,1 # 12233001 <_sp+0x12221d21>
    3836:	ca06                	sw	ra,20(sp)
    3838:	41d2                	lw	gp,20(sp)
    383a:	12233eb7          	lui	t4,0x12233
    383e:	001e8e93          	addi	t4,t4,1 # 12233001 <_sp+0x12221d21>
    3842:	01d19863          	bne	gp,t4,3852 <fail>
    3846:	0205                	addi	tp,tp,1
    3848:	4289                	li	t0,2
    384a:	fc521ce3          	bne	tp,t0,3822 <test_23+0x4>
    384e:	03c01563          	bne	zero,t3,3878 <pass>

00003852 <fail>:
    3852:	10010537          	lui	a0,0x10010
    3856:	00450513          	addi	a0,a0,4 # 10010004 <_sp+0xfffed24>
    385a:	04500593          	li	a1,69
    385e:	05200613          	li	a2,82
    3862:	04f00693          	li	a3,79
    3866:	00a00713          	li	a4,10
    386a:	c10c                	sw	a1,0(a0)
    386c:	c110                	sw	a2,0(a0)
    386e:	c110                	sw	a2,0(a0)
    3870:	c114                	sw	a3,0(a0)
    3872:	c110                	sw	a2,0(a0)
    3874:	c118                	sw	a4,0(a0)
    3876:	9002                	ebreak

00003878 <pass>:
    3878:	10010537          	lui	a0,0x10010
    387c:	00450513          	addi	a0,a0,4 # 10010004 <_sp+0xfffed24>
    3880:	04f00593          	li	a1,79
    3884:	04b00613          	li	a2,75
    3888:	00a00693          	li	a3,10
    388c:	c10c                	sw	a1,0(a0)
    388e:	c110                	sw	a2,0(a0)
    3890:	c114                	sw	a3,0(a0)
    3892:	000f0113          	mv	sp,t5
    3896:	ffc12183          	lw	gp,-4(sp)
    389a:	ff812083          	lw	ra,-8(sp)
    389e:	9d9fc06f          	j	276 <sw_ret>

000038a2 <jalr>:
    38a2:	00010f13          	mv	t5,sp
    38a6:	fe312e23          	sw	gp,-4(sp)
    38aa:	fe112c23          	sw	ra,-8(sp)
    38ae:	89c18513          	addi	a0,gp,-1892 # 101b8 <jalr_data>
    38b2:	10010637          	lui	a2,0x10010
    38b6:	00460613          	addi	a2,a2,4 # 10010004 <_sp+0xfffed24>

000038ba <.prname_next>:
    38ba:	00050583          	lb	a1,0(a0)
    38be:	00058863          	beqz	a1,38ce <.prname_done>
    38c2:	00b62023          	sw	a1,0(a2)
    38c6:	00150513          	addi	a0,a0,1
    38ca:	ff1ff06f          	j	38ba <.prname_next>

000038ce <.prname_done>:
    38ce:	02e00593          	li	a1,46
    38d2:	00b62023          	sw	a1,0(a2)
    38d6:	00b62023          	sw	a1,0(a2)

000038da <test_2>:
    38da:	00200e13          	li	t3,2
    38de:	00000f93          	li	t6,0
    38e2:	00000117          	auipc	sp,0x0
    38e6:	01810113          	addi	sp,sp,24 # 38fa <target_2>

000038ea <linkaddr_2>:
    38ea:	000109e7          	jalr	s3,sp
    38ee:	00000013          	nop
    38f2:	00000013          	nop
    38f6:	0e40006f          	j	39da <fail>

000038fa <target_2>:
    38fa:	00000097          	auipc	ra,0x0
    38fe:	ff008093          	addi	ra,ra,-16 # 38ea <linkaddr_2>
    3902:	00408093          	addi	ra,ra,4
    3906:	0d309a63          	bne	ra,s3,39da <fail>

0000390a <test_3>:
    390a:	00300e13          	li	t3,3
    390e:	00000f93          	li	t6,0
    3912:	00000197          	auipc	gp,0x0
    3916:	01418193          	addi	gp,gp,20 # 3926 <target_3>

0000391a <linkaddr_3>:
    391a:	00018067          	jr	gp
    391e:	00000013          	nop
    3922:	0b80006f          	j	39da <fail>

00003926 <target_3>:
    3926:	0a0f9a63          	bnez	t6,39da <fail>

0000392a <test_4>:
    392a:	00400e13          	li	t3,4
    392e:	00000213          	li	tp,0
    3932:	00000317          	auipc	t1,0x0
    3936:	01030313          	addi	t1,t1,16 # 3942 <test_4+0x18>
    393a:	000309e7          	jalr	s3,t1
    393e:	09c01e63          	bne	zero,t3,39da <fail>
    3942:	00120213          	addi	tp,tp,1 # 1 <__vector_start+0x1>
    3946:	00200293          	li	t0,2
    394a:	fe5214e3          	bne	tp,t0,3932 <test_4+0x8>

0000394e <test_5>:
    394e:	00500e13          	li	t3,5
    3952:	00000213          	li	tp,0
    3956:	00000317          	auipc	t1,0x0
    395a:	01430313          	addi	t1,t1,20 # 396a <test_5+0x1c>
    395e:	00000013          	nop
    3962:	000309e7          	jalr	s3,t1
    3966:	07c01a63          	bne	zero,t3,39da <fail>
    396a:	00120213          	addi	tp,tp,1 # 1 <__vector_start+0x1>
    396e:	00200293          	li	t0,2
    3972:	fe5212e3          	bne	tp,t0,3956 <test_5+0x8>

00003976 <test_6>:
    3976:	00600e13          	li	t3,6
    397a:	00000213          	li	tp,0
    397e:	00000317          	auipc	t1,0x0
    3982:	01830313          	addi	t1,t1,24 # 3996 <test_6+0x20>
    3986:	00000013          	nop
    398a:	00000013          	nop
    398e:	000309e7          	jalr	s3,t1
    3992:	05c01463          	bne	zero,t3,39da <fail>
    3996:	00120213          	addi	tp,tp,1 # 1 <__vector_start+0x1>
    399a:	00200293          	li	t0,2
    399e:	fe5210e3          	bne	tp,t0,397e <test_6+0x8>

000039a2 <test_7>:
    39a2:	00100093          	li	ra,1
    39a6:	00000117          	auipc	sp,0x0
    39aa:	01c10113          	addi	sp,sp,28 # 39c2 <test_7+0x20>
    39ae:	ffc109e7          	jalr	s3,-4(sp)
    39b2:	00108093          	addi	ra,ra,1
    39b6:	00108093          	addi	ra,ra,1
    39ba:	00108093          	addi	ra,ra,1
    39be:	00108093          	addi	ra,ra,1
    39c2:	00108093          	addi	ra,ra,1
    39c6:	00108093          	addi	ra,ra,1
    39ca:	00400e93          	li	t4,4
    39ce:	00700e13          	li	t3,7
    39d2:	01d09463          	bne	ra,t4,39da <fail>
    39d6:	03c01c63          	bne	zero,t3,3a0e <pass>

000039da <fail>:
    39da:	10010537          	lui	a0,0x10010
    39de:	00450513          	addi	a0,a0,4 # 10010004 <_sp+0xfffed24>
    39e2:	04500593          	li	a1,69
    39e6:	05200613          	li	a2,82
    39ea:	04f00693          	li	a3,79
    39ee:	00a00713          	li	a4,10
    39f2:	00b52023          	sw	a1,0(a0)
    39f6:	00c52023          	sw	a2,0(a0)
    39fa:	00c52023          	sw	a2,0(a0)
    39fe:	00d52023          	sw	a3,0(a0)
    3a02:	00c52023          	sw	a2,0(a0)
    3a06:	00e52023          	sw	a4,0(a0)
    3a0a:	00100073          	ebreak

00003a0e <pass>:
    3a0e:	10010537          	lui	a0,0x10010
    3a12:	00450513          	addi	a0,a0,4 # 10010004 <_sp+0xfffed24>
    3a16:	04f00593          	li	a1,79
    3a1a:	04b00613          	li	a2,75
    3a1e:	00a00693          	li	a3,10
    3a22:	00b52023          	sw	a1,0(a0)
    3a26:	00c52023          	sw	a2,0(a0)
    3a2a:	00d52023          	sw	a3,0(a0)
    3a2e:	000f0113          	mv	sp,t5
    3a32:	ffc12183          	lw	gp,-4(sp)
    3a36:	ff812083          	lw	ra,-8(sp)
    3a3a:	fccfc06f          	j	206 <jalr_ret>

00003a3e <bgeu>:
    3a3e:	00010f13          	mv	t5,sp
    3a42:	fe312e23          	sw	gp,-4(sp)
    3a46:	fe112c23          	sw	ra,-8(sp)
    3a4a:	8a418513          	addi	a0,gp,-1884 # 101c0 <bgeu_data>
    3a4e:	10010637          	lui	a2,0x10010
    3a52:	00460613          	addi	a2,a2,4 # 10010004 <_sp+0xfffed24>

00003a56 <.prname_next>:
    3a56:	00050583          	lb	a1,0(a0)
    3a5a:	00058663          	beqz	a1,3a66 <.prname_done>
    3a5e:	c20c                	sw	a1,0(a2)
    3a60:	0505                	addi	a0,a0,1
    3a62:	ff5ff06f          	j	3a56 <.prname_next>

00003a66 <.prname_done>:
    3a66:	02e00593          	li	a1,46
    3a6a:	c20c                	sw	a1,0(a2)
    3a6c:	c20c                	sw	a1,0(a2)

00003a6e <test_2>:
    3a6e:	4e09                	li	t3,2
    3a70:	4081                	li	ra,0
    3a72:	4101                	li	sp,0
    3a74:	0020f663          	bleu	sp,ra,3a80 <test_2+0x12>
    3a78:	29c01863          	bne	zero,t3,3d08 <fail>
    3a7c:	01c01663          	bne	zero,t3,3a88 <test_3>
    3a80:	fe20fee3          	bleu	sp,ra,3a7c <test_2+0xe>
    3a84:	29c01263          	bne	zero,t3,3d08 <fail>

00003a88 <test_3>:
    3a88:	4e0d                	li	t3,3
    3a8a:	4085                	li	ra,1
    3a8c:	4105                	li	sp,1
    3a8e:	0020f663          	bleu	sp,ra,3a9a <test_3+0x12>
    3a92:	27c01b63          	bne	zero,t3,3d08 <fail>
    3a96:	01c01663          	bne	zero,t3,3aa2 <test_4>
    3a9a:	fe20fee3          	bleu	sp,ra,3a96 <test_3+0xe>
    3a9e:	27c01563          	bne	zero,t3,3d08 <fail>

00003aa2 <test_4>:
    3aa2:	4e11                	li	t3,4
    3aa4:	fff00093          	li	ra,-1
    3aa8:	fff00113          	li	sp,-1
    3aac:	0020f663          	bleu	sp,ra,3ab8 <test_4+0x16>
    3ab0:	25c01c63          	bne	zero,t3,3d08 <fail>
    3ab4:	01c01663          	bne	zero,t3,3ac0 <test_5>
    3ab8:	fe20fee3          	bleu	sp,ra,3ab4 <test_4+0x12>
    3abc:	25c01663          	bne	zero,t3,3d08 <fail>

00003ac0 <test_5>:
    3ac0:	4e15                	li	t3,5
    3ac2:	4085                	li	ra,1
    3ac4:	4101                	li	sp,0
    3ac6:	0020f663          	bleu	sp,ra,3ad2 <test_5+0x12>
    3aca:	23c01f63          	bne	zero,t3,3d08 <fail>
    3ace:	01c01663          	bne	zero,t3,3ada <test_6>
    3ad2:	fe20fee3          	bleu	sp,ra,3ace <test_5+0xe>
    3ad6:	23c01963          	bne	zero,t3,3d08 <fail>

00003ada <test_6>:
    3ada:	4e19                	li	t3,6
    3adc:	fff00093          	li	ra,-1
    3ae0:	ffe00113          	li	sp,-2
    3ae4:	0020f663          	bleu	sp,ra,3af0 <test_6+0x16>
    3ae8:	23c01063          	bne	zero,t3,3d08 <fail>
    3aec:	01c01663          	bne	zero,t3,3af8 <test_7>
    3af0:	fe20fee3          	bleu	sp,ra,3aec <test_6+0x12>
    3af4:	21c01a63          	bne	zero,t3,3d08 <fail>

00003af8 <test_7>:
    3af8:	4e1d                	li	t3,7
    3afa:	fff00093          	li	ra,-1
    3afe:	4101                	li	sp,0
    3b00:	0020f663          	bleu	sp,ra,3b0c <test_7+0x14>
    3b04:	21c01263          	bne	zero,t3,3d08 <fail>
    3b08:	01c01663          	bne	zero,t3,3b14 <test_8>
    3b0c:	fe20fee3          	bleu	sp,ra,3b08 <test_7+0x10>
    3b10:	1fc01c63          	bne	zero,t3,3d08 <fail>

00003b14 <test_8>:
    3b14:	4e21                	li	t3,8
    3b16:	4081                	li	ra,0
    3b18:	4105                	li	sp,1
    3b1a:	0020f463          	bleu	sp,ra,3b22 <test_8+0xe>
    3b1e:	01c01463          	bne	zero,t3,3b26 <test_8+0x12>
    3b22:	1fc01363          	bne	zero,t3,3d08 <fail>
    3b26:	fe20fee3          	bleu	sp,ra,3b22 <test_8+0xe>

00003b2a <test_9>:
    3b2a:	4e25                	li	t3,9
    3b2c:	ffe00093          	li	ra,-2
    3b30:	fff00113          	li	sp,-1
    3b34:	0020f463          	bleu	sp,ra,3b3c <test_9+0x12>
    3b38:	01c01463          	bne	zero,t3,3b40 <test_9+0x16>
    3b3c:	1dc01663          	bne	zero,t3,3d08 <fail>
    3b40:	fe20fee3          	bleu	sp,ra,3b3c <test_9+0x12>

00003b44 <test_10>:
    3b44:	4e29                	li	t3,10
    3b46:	4081                	li	ra,0
    3b48:	fff00113          	li	sp,-1
    3b4c:	0020f463          	bleu	sp,ra,3b54 <test_10+0x10>
    3b50:	01c01463          	bne	zero,t3,3b58 <test_10+0x14>
    3b54:	1bc01a63          	bne	zero,t3,3d08 <fail>
    3b58:	fe20fee3          	bleu	sp,ra,3b54 <test_10+0x10>

00003b5c <test_11>:
    3b5c:	4e2d                	li	t3,11
    3b5e:	800000b7          	lui	ra,0x80000
    3b62:	fff08093          	addi	ra,ra,-1 # 7fffffff <pulp__FC+0x80000000>
    3b66:	80000137          	lui	sp,0x80000
    3b6a:	0020f463          	bleu	sp,ra,3b72 <test_11+0x16>
    3b6e:	01c01463          	bne	zero,t3,3b76 <test_11+0x1a>
    3b72:	19c01b63          	bne	zero,t3,3d08 <fail>
    3b76:	fe20fee3          	bleu	sp,ra,3b72 <test_11+0x16>

00003b7a <test_12>:
    3b7a:	4e31                	li	t3,12
    3b7c:	4201                	li	tp,0
    3b7e:	f00000b7          	lui	ra,0xf0000
    3b82:	fff08093          	addi	ra,ra,-1 # efffffff <pulp__FC+0xf0000000>
    3b86:	f0000137          	lui	sp,0xf0000
    3b8a:	1620ff63          	bleu	sp,ra,3d08 <fail>
    3b8e:	0205                	addi	tp,tp,1
    3b90:	4289                	li	t0,2
    3b92:	fe5216e3          	bne	tp,t0,3b7e <test_12+0x4>

00003b96 <test_13>:
    3b96:	4e35                	li	t3,13
    3b98:	4201                	li	tp,0
    3b9a:	f00000b7          	lui	ra,0xf0000
    3b9e:	fff08093          	addi	ra,ra,-1 # efffffff <pulp__FC+0xf0000000>
    3ba2:	f0000137          	lui	sp,0xf0000
    3ba6:	0001                	nop
    3ba8:	1620f063          	bleu	sp,ra,3d08 <fail>
    3bac:	0205                	addi	tp,tp,1
    3bae:	4289                	li	t0,2
    3bb0:	fe5215e3          	bne	tp,t0,3b9a <test_13+0x4>

00003bb4 <test_14>:
    3bb4:	4e39                	li	t3,14
    3bb6:	4201                	li	tp,0
    3bb8:	f00000b7          	lui	ra,0xf0000
    3bbc:	fff08093          	addi	ra,ra,-1 # efffffff <pulp__FC+0xf0000000>
    3bc0:	f0000137          	lui	sp,0xf0000
    3bc4:	0001                	nop
    3bc6:	0001                	nop
    3bc8:	1420f063          	bleu	sp,ra,3d08 <fail>
    3bcc:	0205                	addi	tp,tp,1
    3bce:	4289                	li	t0,2
    3bd0:	fe5214e3          	bne	tp,t0,3bb8 <test_14+0x4>

00003bd4 <test_15>:
    3bd4:	4e3d                	li	t3,15
    3bd6:	4201                	li	tp,0
    3bd8:	f00000b7          	lui	ra,0xf0000
    3bdc:	fff08093          	addi	ra,ra,-1 # efffffff <pulp__FC+0xf0000000>
    3be0:	0001                	nop
    3be2:	f0000137          	lui	sp,0xf0000
    3be6:	1220f163          	bleu	sp,ra,3d08 <fail>
    3bea:	0205                	addi	tp,tp,1
    3bec:	4289                	li	t0,2
    3bee:	fe5215e3          	bne	tp,t0,3bd8 <test_15+0x4>

00003bf2 <test_16>:
    3bf2:	4e41                	li	t3,16
    3bf4:	4201                	li	tp,0
    3bf6:	f00000b7          	lui	ra,0xf0000
    3bfa:	fff08093          	addi	ra,ra,-1 # efffffff <pulp__FC+0xf0000000>
    3bfe:	0001                	nop
    3c00:	f0000137          	lui	sp,0xf0000
    3c04:	0001                	nop
    3c06:	1020f163          	bleu	sp,ra,3d08 <fail>
    3c0a:	0205                	addi	tp,tp,1
    3c0c:	4289                	li	t0,2
    3c0e:	fe5214e3          	bne	tp,t0,3bf6 <test_16+0x4>

00003c12 <test_17>:
    3c12:	4e45                	li	t3,17
    3c14:	4201                	li	tp,0
    3c16:	f00000b7          	lui	ra,0xf0000
    3c1a:	fff08093          	addi	ra,ra,-1 # efffffff <pulp__FC+0xf0000000>
    3c1e:	0001                	nop
    3c20:	0001                	nop
    3c22:	f0000137          	lui	sp,0xf0000
    3c26:	0e20f163          	bleu	sp,ra,3d08 <fail>
    3c2a:	0205                	addi	tp,tp,1
    3c2c:	4289                	li	t0,2
    3c2e:	fe5214e3          	bne	tp,t0,3c16 <test_17+0x4>

00003c32 <test_18>:
    3c32:	4e49                	li	t3,18
    3c34:	4201                	li	tp,0
    3c36:	f00000b7          	lui	ra,0xf0000
    3c3a:	fff08093          	addi	ra,ra,-1 # efffffff <pulp__FC+0xf0000000>
    3c3e:	f0000137          	lui	sp,0xf0000
    3c42:	0c20f363          	bleu	sp,ra,3d08 <fail>
    3c46:	0205                	addi	tp,tp,1
    3c48:	4289                	li	t0,2
    3c4a:	fe5216e3          	bne	tp,t0,3c36 <test_18+0x4>

00003c4e <test_19>:
    3c4e:	4e4d                	li	t3,19
    3c50:	4201                	li	tp,0
    3c52:	f00000b7          	lui	ra,0xf0000
    3c56:	fff08093          	addi	ra,ra,-1 # efffffff <pulp__FC+0xf0000000>
    3c5a:	f0000137          	lui	sp,0xf0000
    3c5e:	0001                	nop
    3c60:	0a20f463          	bleu	sp,ra,3d08 <fail>
    3c64:	0205                	addi	tp,tp,1
    3c66:	4289                	li	t0,2
    3c68:	fe5215e3          	bne	tp,t0,3c52 <test_19+0x4>

00003c6c <test_20>:
    3c6c:	4e51                	li	t3,20
    3c6e:	4201                	li	tp,0
    3c70:	f00000b7          	lui	ra,0xf0000
    3c74:	fff08093          	addi	ra,ra,-1 # efffffff <pulp__FC+0xf0000000>
    3c78:	f0000137          	lui	sp,0xf0000
    3c7c:	0001                	nop
    3c7e:	0001                	nop
    3c80:	0820f463          	bleu	sp,ra,3d08 <fail>
    3c84:	0205                	addi	tp,tp,1
    3c86:	4289                	li	t0,2
    3c88:	fe5214e3          	bne	tp,t0,3c70 <test_20+0x4>

00003c8c <test_21>:
    3c8c:	4e55                	li	t3,21
    3c8e:	4201                	li	tp,0
    3c90:	f00000b7          	lui	ra,0xf0000
    3c94:	fff08093          	addi	ra,ra,-1 # efffffff <pulp__FC+0xf0000000>
    3c98:	0001                	nop
    3c9a:	f0000137          	lui	sp,0xf0000
    3c9e:	0620f563          	bleu	sp,ra,3d08 <fail>
    3ca2:	0205                	addi	tp,tp,1
    3ca4:	4289                	li	t0,2
    3ca6:	fe5215e3          	bne	tp,t0,3c90 <test_21+0x4>

00003caa <test_22>:
    3caa:	4e59                	li	t3,22
    3cac:	4201                	li	tp,0
    3cae:	f00000b7          	lui	ra,0xf0000
    3cb2:	fff08093          	addi	ra,ra,-1 # efffffff <pulp__FC+0xf0000000>
    3cb6:	0001                	nop
    3cb8:	f0000137          	lui	sp,0xf0000
    3cbc:	0001                	nop
    3cbe:	0420f563          	bleu	sp,ra,3d08 <fail>
    3cc2:	0205                	addi	tp,tp,1
    3cc4:	4289                	li	t0,2
    3cc6:	fe5214e3          	bne	tp,t0,3cae <test_22+0x4>

00003cca <test_23>:
    3cca:	4e5d                	li	t3,23
    3ccc:	4201                	li	tp,0
    3cce:	f00000b7          	lui	ra,0xf0000
    3cd2:	fff08093          	addi	ra,ra,-1 # efffffff <pulp__FC+0xf0000000>
    3cd6:	0001                	nop
    3cd8:	0001                	nop
    3cda:	f0000137          	lui	sp,0xf0000
    3cde:	0220f563          	bleu	sp,ra,3d08 <fail>
    3ce2:	0205                	addi	tp,tp,1
    3ce4:	4289                	li	t0,2
    3ce6:	fe5214e3          	bne	tp,t0,3cce <test_23+0x4>

00003cea <test_24>:
    3cea:	4085                	li	ra,1
    3cec:	0000f663          	bleu	zero,ra,3cf8 <test_24+0xe>
    3cf0:	0085                	addi	ra,ra,1
    3cf2:	0085                	addi	ra,ra,1
    3cf4:	0085                	addi	ra,ra,1
    3cf6:	0085                	addi	ra,ra,1
    3cf8:	0085                	addi	ra,ra,1
    3cfa:	0085                	addi	ra,ra,1
    3cfc:	4e8d                	li	t4,3
    3cfe:	4e61                	li	t3,24
    3d00:	01d09463          	bne	ra,t4,3d08 <fail>
    3d04:	03c01563          	bne	zero,t3,3d2e <pass>

00003d08 <fail>:
    3d08:	10010537          	lui	a0,0x10010
    3d0c:	00450513          	addi	a0,a0,4 # 10010004 <_sp+0xfffed24>
    3d10:	04500593          	li	a1,69
    3d14:	05200613          	li	a2,82
    3d18:	04f00693          	li	a3,79
    3d1c:	00a00713          	li	a4,10
    3d20:	c10c                	sw	a1,0(a0)
    3d22:	c110                	sw	a2,0(a0)
    3d24:	c110                	sw	a2,0(a0)
    3d26:	c114                	sw	a3,0(a0)
    3d28:	c110                	sw	a2,0(a0)
    3d2a:	c118                	sw	a4,0(a0)
    3d2c:	9002                	ebreak

00003d2e <pass>:
    3d2e:	10010537          	lui	a0,0x10010
    3d32:	00450513          	addi	a0,a0,4 # 10010004 <_sp+0xfffed24>
    3d36:	04f00593          	li	a1,79
    3d3a:	04b00613          	li	a2,75
    3d3e:	00a00693          	li	a3,10
    3d42:	c10c                	sw	a1,0(a0)
    3d44:	c110                	sw	a2,0(a0)
    3d46:	c114                	sw	a3,0(a0)
    3d48:	000f0113          	mv	sp,t5
    3d4c:	ffc12183          	lw	gp,-4(sp) # effffffc <pulp__FC+0xeffffffd>
    3d50:	ff812083          	lw	ra,-8(sp)
    3d54:	ce2fc06f          	j	236 <bgeu_ret>

00003d58 <xori>:
    3d58:	00010f13          	mv	t5,sp
    3d5c:	fe312e23          	sw	gp,-4(sp)
    3d60:	fe112c23          	sw	ra,-8(sp)
    3d64:	8ac18513          	addi	a0,gp,-1876 # 101c8 <xori_data>
    3d68:	10010637          	lui	a2,0x10010
    3d6c:	00460613          	addi	a2,a2,4 # 10010004 <_sp+0xfffed24>

00003d70 <.prname_next>:
    3d70:	00050583          	lb	a1,0(a0)
    3d74:	00058663          	beqz	a1,3d80 <.prname_done>
    3d78:	c20c                	sw	a1,0(a2)
    3d7a:	0505                	addi	a0,a0,1
    3d7c:	ff5ff06f          	j	3d70 <.prname_next>

00003d80 <.prname_done>:
    3d80:	02e00593          	li	a1,46
    3d84:	c20c                	sw	a1,0(a2)
    3d86:	c20c                	sw	a1,0(a2)

00003d88 <test_2>:
    3d88:	00ff10b7          	lui	ra,0xff1
    3d8c:	f0008093          	addi	ra,ra,-256 # ff0f00 <_sp+0xfdfc20>
    3d90:	f0f0c193          	xori	gp,ra,-241
    3d94:	ff00feb7          	lui	t4,0xff00f
    3d98:	00fe8e93          	addi	t4,t4,15 # ff00f00f <pulp__FC+0xff00f010>
    3d9c:	4e09                	li	t3,2
    3d9e:	19d19163          	bne	gp,t4,3f20 <fail>

00003da2 <test_3>:
    3da2:	0ff010b7          	lui	ra,0xff01
    3da6:	ff008093          	addi	ra,ra,-16 # ff00ff0 <_sp+0xfeefd10>
    3daa:	0f00c193          	xori	gp,ra,240
    3dae:	0ff01eb7          	lui	t4,0xff01
    3db2:	f00e8e93          	addi	t4,t4,-256 # ff00f00 <_sp+0xfeefc20>
    3db6:	4e0d                	li	t3,3
    3db8:	17d19463          	bne	gp,t4,3f20 <fail>

00003dbc <test_4>:
    3dbc:	00ff10b7          	lui	ra,0xff1
    3dc0:	8ff08093          	addi	ra,ra,-1793 # ff08ff <_sp+0xfdf61f>
    3dc4:	70f0c193          	xori	gp,ra,1807
    3dc8:	00ff1eb7          	lui	t4,0xff1
    3dcc:	ff0e8e93          	addi	t4,t4,-16 # ff0ff0 <_sp+0xfdfd10>
    3dd0:	4e11                	li	t3,4
    3dd2:	15d19763          	bne	gp,t4,3f20 <fail>

00003dd6 <test_5>:
    3dd6:	f00ff0b7          	lui	ra,0xf00ff
    3dda:	00f08093          	addi	ra,ra,15 # f00ff00f <pulp__FC+0xf00ff010>
    3dde:	0f00c193          	xori	gp,ra,240
    3de2:	f00ffeb7          	lui	t4,0xf00ff
    3de6:	0ffe8e93          	addi	t4,t4,255 # f00ff0ff <pulp__FC+0xf00ff100>
    3dea:	4e15                	li	t3,5
    3dec:	13d19a63          	bne	gp,t4,3f20 <fail>

00003df0 <test_6>:
    3df0:	ff00f0b7          	lui	ra,0xff00f
    3df4:	70008093          	addi	ra,ra,1792 # ff00f700 <pulp__FC+0xff00f701>
    3df8:	70f0c093          	xori	ra,ra,1807
    3dfc:	ff00feb7          	lui	t4,0xff00f
    3e00:	00fe8e93          	addi	t4,t4,15 # ff00f00f <pulp__FC+0xff00f010>
    3e04:	4e19                	li	t3,6
    3e06:	11d09d63          	bne	ra,t4,3f20 <fail>

00003e0a <test_7>:
    3e0a:	4201                	li	tp,0
    3e0c:	0ff010b7          	lui	ra,0xff01
    3e10:	ff008093          	addi	ra,ra,-16 # ff00ff0 <_sp+0xfeefd10>
    3e14:	0f00c193          	xori	gp,ra,240
    3e18:	00018313          	mv	t1,gp
    3e1c:	0205                	addi	tp,tp,1
    3e1e:	4289                	li	t0,2
    3e20:	fe5216e3          	bne	tp,t0,3e0c <test_7+0x2>
    3e24:	0ff01eb7          	lui	t4,0xff01
    3e28:	f00e8e93          	addi	t4,t4,-256 # ff00f00 <_sp+0xfeefc20>
    3e2c:	4e1d                	li	t3,7
    3e2e:	0fd31963          	bne	t1,t4,3f20 <fail>

00003e32 <test_8>:
    3e32:	4201                	li	tp,0
    3e34:	00ff10b7          	lui	ra,0xff1
    3e38:	8ff08093          	addi	ra,ra,-1793 # ff08ff <_sp+0xfdf61f>
    3e3c:	70f0c193          	xori	gp,ra,1807
    3e40:	0001                	nop
    3e42:	00018313          	mv	t1,gp
    3e46:	0205                	addi	tp,tp,1
    3e48:	4289                	li	t0,2
    3e4a:	fe5215e3          	bne	tp,t0,3e34 <test_8+0x2>
    3e4e:	00ff1eb7          	lui	t4,0xff1
    3e52:	ff0e8e93          	addi	t4,t4,-16 # ff0ff0 <_sp+0xfdfd10>
    3e56:	4e21                	li	t3,8
    3e58:	0dd31463          	bne	t1,t4,3f20 <fail>

00003e5c <test_9>:
    3e5c:	4201                	li	tp,0
    3e5e:	f00ff0b7          	lui	ra,0xf00ff
    3e62:	00f08093          	addi	ra,ra,15 # f00ff00f <pulp__FC+0xf00ff010>
    3e66:	0f00c193          	xori	gp,ra,240
    3e6a:	0001                	nop
    3e6c:	0001                	nop
    3e6e:	00018313          	mv	t1,gp
    3e72:	0205                	addi	tp,tp,1
    3e74:	4289                	li	t0,2
    3e76:	fe5214e3          	bne	tp,t0,3e5e <test_9+0x2>
    3e7a:	f00ffeb7          	lui	t4,0xf00ff
    3e7e:	0ffe8e93          	addi	t4,t4,255 # f00ff0ff <pulp__FC+0xf00ff100>
    3e82:	4e25                	li	t3,9
    3e84:	09d31e63          	bne	t1,t4,3f20 <fail>

00003e88 <test_10>:
    3e88:	4201                	li	tp,0
    3e8a:	0ff010b7          	lui	ra,0xff01
    3e8e:	ff008093          	addi	ra,ra,-16 # ff00ff0 <_sp+0xfeefd10>
    3e92:	0f00c193          	xori	gp,ra,240
    3e96:	0205                	addi	tp,tp,1
    3e98:	4289                	li	t0,2
    3e9a:	fe5218e3          	bne	tp,t0,3e8a <test_10+0x2>
    3e9e:	0ff01eb7          	lui	t4,0xff01
    3ea2:	f00e8e93          	addi	t4,t4,-256 # ff00f00 <_sp+0xfeefc20>
    3ea6:	4e29                	li	t3,10
    3ea8:	07d19c63          	bne	gp,t4,3f20 <fail>

00003eac <test_11>:
    3eac:	4201                	li	tp,0
    3eae:	00ff10b7          	lui	ra,0xff1
    3eb2:	fff08093          	addi	ra,ra,-1 # ff0fff <_sp+0xfdfd1f>
    3eb6:	0001                	nop
    3eb8:	00f0c193          	xori	gp,ra,15
    3ebc:	0205                	addi	tp,tp,1
    3ebe:	4289                	li	t0,2
    3ec0:	fe5217e3          	bne	tp,t0,3eae <test_11+0x2>
    3ec4:	00ff1eb7          	lui	t4,0xff1
    3ec8:	ff0e8e93          	addi	t4,t4,-16 # ff0ff0 <_sp+0xfdfd10>
    3ecc:	4e2d                	li	t3,11
    3ece:	05d19963          	bne	gp,t4,3f20 <fail>

00003ed2 <test_12>:
    3ed2:	4201                	li	tp,0
    3ed4:	f00ff0b7          	lui	ra,0xf00ff
    3ed8:	00f08093          	addi	ra,ra,15 # f00ff00f <pulp__FC+0xf00ff010>
    3edc:	0001                	nop
    3ede:	0001                	nop
    3ee0:	0f00c193          	xori	gp,ra,240
    3ee4:	0205                	addi	tp,tp,1
    3ee6:	4289                	li	t0,2
    3ee8:	fe5216e3          	bne	tp,t0,3ed4 <test_12+0x2>
    3eec:	f00ffeb7          	lui	t4,0xf00ff
    3ef0:	0ffe8e93          	addi	t4,t4,255 # f00ff0ff <pulp__FC+0xf00ff100>
    3ef4:	4e31                	li	t3,12
    3ef6:	03d19563          	bne	gp,t4,3f20 <fail>

00003efa <test_13>:
    3efa:	0f004093          	xori	ra,zero,240
    3efe:	0f000e93          	li	t4,240
    3f02:	4e35                	li	t3,13
    3f04:	01d09e63          	bne	ra,t4,3f20 <fail>

00003f08 <test_14>:
    3f08:	00ff00b7          	lui	ra,0xff0
    3f0c:	0ff08093          	addi	ra,ra,255 # ff00ff <_sp+0xfdee1f>
    3f10:	70f0c013          	xori	zero,ra,1807
    3f14:	4e81                	li	t4,0
    3f16:	4e39                	li	t3,14
    3f18:	01d01463          	bne	zero,t4,3f20 <fail>
    3f1c:	03c01563          	bne	zero,t3,3f46 <pass>

00003f20 <fail>:
    3f20:	10010537          	lui	a0,0x10010
    3f24:	00450513          	addi	a0,a0,4 # 10010004 <_sp+0xfffed24>
    3f28:	04500593          	li	a1,69
    3f2c:	05200613          	li	a2,82
    3f30:	04f00693          	li	a3,79
    3f34:	00a00713          	li	a4,10
    3f38:	c10c                	sw	a1,0(a0)
    3f3a:	c110                	sw	a2,0(a0)
    3f3c:	c110                	sw	a2,0(a0)
    3f3e:	c114                	sw	a3,0(a0)
    3f40:	c110                	sw	a2,0(a0)
    3f42:	c118                	sw	a4,0(a0)
    3f44:	9002                	ebreak

00003f46 <pass>:
    3f46:	10010537          	lui	a0,0x10010
    3f4a:	00450513          	addi	a0,a0,4 # 10010004 <_sp+0xfffed24>
    3f4e:	04f00593          	li	a1,79
    3f52:	04b00613          	li	a2,75
    3f56:	00a00693          	li	a3,10
    3f5a:	c10c                	sw	a1,0(a0)
    3f5c:	c110                	sw	a2,0(a0)
    3f5e:	c114                	sw	a3,0(a0)
    3f60:	000f0113          	mv	sp,t5
    3f64:	ffc12183          	lw	gp,-4(sp)
    3f68:	ff812083          	lw	ra,-8(sp)
    3f6c:	b22fc06f          	j	28e <xori_ret>

00003f70 <lw>:
    3f70:	00010f13          	mv	t5,sp
    3f74:	fe312e23          	sw	gp,-4(sp)
    3f78:	fe112c23          	sw	ra,-8(sp)
    3f7c:	8b418513          	addi	a0,gp,-1868 # 101d0 <lw_data>
    3f80:	10010637          	lui	a2,0x10010
    3f84:	00460613          	addi	a2,a2,4 # 10010004 <_sp+0xfffed24>

00003f88 <.prname_next>:
    3f88:	00050583          	lb	a1,0(a0)
    3f8c:	00058663          	beqz	a1,3f98 <.prname_done>
    3f90:	c20c                	sw	a1,0(a2)
    3f92:	0505                	addi	a0,a0,1
    3f94:	ff5ff06f          	j	3f88 <.prname_next>

00003f98 <.prname_done>:
    3f98:	02e00593          	li	a1,46
    3f9c:	c20c                	sw	a1,0(a2)
    3f9e:	c20c                	sw	a1,0(a2)

00003fa0 <test_2>:
    3fa0:	0000c097          	auipc	ra,0xc
    3fa4:	23408093          	addi	ra,ra,564 # 101d4 <tdat>
    3fa8:	0000a183          	lw	gp,0(ra)
    3fac:	00ff0eb7          	lui	t4,0xff0
    3fb0:	0ffe8e93          	addi	t4,t4,255 # ff00ff <_sp+0xfdee1f>
    3fb4:	4e09                	li	t3,2
    3fb6:	21d19a63          	bne	gp,t4,41ca <fail>

00003fba <test_3>:
    3fba:	0000c097          	auipc	ra,0xc
    3fbe:	21a08093          	addi	ra,ra,538 # 101d4 <tdat>
    3fc2:	0040a183          	lw	gp,4(ra)
    3fc6:	ff010eb7          	lui	t4,0xff010
    3fca:	f00e8e93          	addi	t4,t4,-256 # ff00ff00 <pulp__FC+0xff00ff01>
    3fce:	4e0d                	li	t3,3
    3fd0:	1fd19d63          	bne	gp,t4,41ca <fail>

00003fd4 <test_4>:
    3fd4:	0000c097          	auipc	ra,0xc
    3fd8:	20008093          	addi	ra,ra,512 # 101d4 <tdat>
    3fdc:	0080a183          	lw	gp,8(ra)
    3fe0:	0ff01eb7          	lui	t4,0xff01
    3fe4:	ff0e8e93          	addi	t4,t4,-16 # ff00ff0 <_sp+0xfeefd10>
    3fe8:	4e11                	li	t3,4
    3fea:	1fd19063          	bne	gp,t4,41ca <fail>

00003fee <test_5>:
    3fee:	0000c097          	auipc	ra,0xc
    3ff2:	1e608093          	addi	ra,ra,486 # 101d4 <tdat>
    3ff6:	00c0a183          	lw	gp,12(ra)
    3ffa:	f00ffeb7          	lui	t4,0xf00ff
    3ffe:	00fe8e93          	addi	t4,t4,15 # f00ff00f <pulp__FC+0xf00ff010>
    4002:	4e15                	li	t3,5
    4004:	1dd19363          	bne	gp,t4,41ca <fail>

00004008 <test_6>:
    4008:	0000c097          	auipc	ra,0xc
    400c:	1d808093          	addi	ra,ra,472 # 101e0 <tdat4>
    4010:	ff40a183          	lw	gp,-12(ra)
    4014:	00ff0eb7          	lui	t4,0xff0
    4018:	0ffe8e93          	addi	t4,t4,255 # ff00ff <_sp+0xfdee1f>
    401c:	4e19                	li	t3,6
    401e:	1bd19663          	bne	gp,t4,41ca <fail>

00004022 <test_7>:
    4022:	0000c097          	auipc	ra,0xc
    4026:	1be08093          	addi	ra,ra,446 # 101e0 <tdat4>
    402a:	ff80a183          	lw	gp,-8(ra)
    402e:	ff010eb7          	lui	t4,0xff010
    4032:	f00e8e93          	addi	t4,t4,-256 # ff00ff00 <pulp__FC+0xff00ff01>
    4036:	4e1d                	li	t3,7
    4038:	19d19963          	bne	gp,t4,41ca <fail>

0000403c <test_8>:
    403c:	0000c097          	auipc	ra,0xc
    4040:	1a408093          	addi	ra,ra,420 # 101e0 <tdat4>
    4044:	ffc0a183          	lw	gp,-4(ra)
    4048:	0ff01eb7          	lui	t4,0xff01
    404c:	ff0e8e93          	addi	t4,t4,-16 # ff00ff0 <_sp+0xfeefd10>
    4050:	4e21                	li	t3,8
    4052:	17d19c63          	bne	gp,t4,41ca <fail>

00004056 <test_9>:
    4056:	0000c097          	auipc	ra,0xc
    405a:	18a08093          	addi	ra,ra,394 # 101e0 <tdat4>
    405e:	0000a183          	lw	gp,0(ra)
    4062:	f00ffeb7          	lui	t4,0xf00ff
    4066:	00fe8e93          	addi	t4,t4,15 # f00ff00f <pulp__FC+0xf00ff010>
    406a:	4e25                	li	t3,9
    406c:	15d19f63          	bne	gp,t4,41ca <fail>

00004070 <test_10>:
    4070:	0000c097          	auipc	ra,0xc
    4074:	16408093          	addi	ra,ra,356 # 101d4 <tdat>
    4078:	1081                	addi	ra,ra,-32
    407a:	0200a183          	lw	gp,32(ra)
    407e:	00ff0eb7          	lui	t4,0xff0
    4082:	0ffe8e93          	addi	t4,t4,255 # ff00ff <_sp+0xfdee1f>
    4086:	4e29                	li	t3,10
    4088:	15d19163          	bne	gp,t4,41ca <fail>

0000408c <test_11>:
    408c:	0000c097          	auipc	ra,0xc
    4090:	14808093          	addi	ra,ra,328 # 101d4 <tdat>
    4094:	10f5                	addi	ra,ra,-3
    4096:	0070a183          	lw	gp,7(ra)
    409a:	ff010eb7          	lui	t4,0xff010
    409e:	f00e8e93          	addi	t4,t4,-256 # ff00ff00 <pulp__FC+0xff00ff01>
    40a2:	4e2d                	li	t3,11
    40a4:	13d19363          	bne	gp,t4,41ca <fail>

000040a8 <test_12>:
    40a8:	4e31                	li	t3,12
    40aa:	4201                	li	tp,0
    40ac:	0000c097          	auipc	ra,0xc
    40b0:	12c08093          	addi	ra,ra,300 # 101d8 <tdat2>
    40b4:	0040a183          	lw	gp,4(ra)
    40b8:	00018313          	mv	t1,gp
    40bc:	0ff01eb7          	lui	t4,0xff01
    40c0:	ff0e8e93          	addi	t4,t4,-16 # ff00ff0 <_sp+0xfeefd10>
    40c4:	11d31363          	bne	t1,t4,41ca <fail>
    40c8:	0205                	addi	tp,tp,1
    40ca:	4289                	li	t0,2
    40cc:	fe5210e3          	bne	tp,t0,40ac <test_12+0x4>

000040d0 <test_13>:
    40d0:	4e35                	li	t3,13
    40d2:	4201                	li	tp,0
    40d4:	0000c097          	auipc	ra,0xc
    40d8:	10808093          	addi	ra,ra,264 # 101dc <tdat3>
    40dc:	0040a183          	lw	gp,4(ra)
    40e0:	0001                	nop
    40e2:	00018313          	mv	t1,gp
    40e6:	f00ffeb7          	lui	t4,0xf00ff
    40ea:	00fe8e93          	addi	t4,t4,15 # f00ff00f <pulp__FC+0xf00ff010>
    40ee:	0dd31e63          	bne	t1,t4,41ca <fail>
    40f2:	0205                	addi	tp,tp,1
    40f4:	4289                	li	t0,2
    40f6:	fc521fe3          	bne	tp,t0,40d4 <test_13+0x4>

000040fa <test_14>:
    40fa:	4e39                	li	t3,14
    40fc:	4201                	li	tp,0
    40fe:	0000c097          	auipc	ra,0xc
    4102:	0d608093          	addi	ra,ra,214 # 101d4 <tdat>
    4106:	0040a183          	lw	gp,4(ra)
    410a:	0001                	nop
    410c:	0001                	nop
    410e:	00018313          	mv	t1,gp
    4112:	ff010eb7          	lui	t4,0xff010
    4116:	f00e8e93          	addi	t4,t4,-256 # ff00ff00 <pulp__FC+0xff00ff01>
    411a:	0bd31863          	bne	t1,t4,41ca <fail>
    411e:	0205                	addi	tp,tp,1
    4120:	4289                	li	t0,2
    4122:	fc521ee3          	bne	tp,t0,40fe <test_14+0x4>

00004126 <test_15>:
    4126:	4e3d                	li	t3,15
    4128:	4201                	li	tp,0
    412a:	0000c097          	auipc	ra,0xc
    412e:	0ae08093          	addi	ra,ra,174 # 101d8 <tdat2>
    4132:	0040a183          	lw	gp,4(ra)
    4136:	0ff01eb7          	lui	t4,0xff01
    413a:	ff0e8e93          	addi	t4,t4,-16 # ff00ff0 <_sp+0xfeefd10>
    413e:	09d19663          	bne	gp,t4,41ca <fail>
    4142:	0205                	addi	tp,tp,1
    4144:	4289                	li	t0,2
    4146:	fe5212e3          	bne	tp,t0,412a <test_15+0x4>

0000414a <test_16>:
    414a:	4e41                	li	t3,16
    414c:	4201                	li	tp,0
    414e:	0000c097          	auipc	ra,0xc
    4152:	08e08093          	addi	ra,ra,142 # 101dc <tdat3>
    4156:	0001                	nop
    4158:	0040a183          	lw	gp,4(ra)
    415c:	f00ffeb7          	lui	t4,0xf00ff
    4160:	00fe8e93          	addi	t4,t4,15 # f00ff00f <pulp__FC+0xf00ff010>
    4164:	07d19363          	bne	gp,t4,41ca <fail>
    4168:	0205                	addi	tp,tp,1
    416a:	4289                	li	t0,2
    416c:	fe5211e3          	bne	tp,t0,414e <test_16+0x4>

00004170 <test_17>:
    4170:	4e45                	li	t3,17
    4172:	4201                	li	tp,0
    4174:	0000c097          	auipc	ra,0xc
    4178:	06008093          	addi	ra,ra,96 # 101d4 <tdat>
    417c:	0001                	nop
    417e:	0001                	nop
    4180:	0040a183          	lw	gp,4(ra)
    4184:	ff010eb7          	lui	t4,0xff010
    4188:	f00e8e93          	addi	t4,t4,-256 # ff00ff00 <pulp__FC+0xff00ff01>
    418c:	03d19f63          	bne	gp,t4,41ca <fail>
    4190:	0205                	addi	tp,tp,1
    4192:	4289                	li	t0,2
    4194:	fe5210e3          	bne	tp,t0,4174 <test_17+0x4>

00004198 <test_18>:
    4198:	0000c197          	auipc	gp,0xc
    419c:	03c18193          	addi	gp,gp,60 # 101d4 <tdat>
    41a0:	0001a103          	lw	sp,0(gp) # 1091c <__global_pointer$>
    41a4:	4109                	li	sp,2
    41a6:	4e89                	li	t4,2
    41a8:	4e49                	li	t3,18
    41aa:	03d11063          	bne	sp,t4,41ca <fail>

000041ae <test_19>:
    41ae:	0000c197          	auipc	gp,0xc
    41b2:	02618193          	addi	gp,gp,38 # 101d4 <tdat>
    41b6:	0001a103          	lw	sp,0(gp) # 1091c <__global_pointer$>
    41ba:	0001                	nop
    41bc:	4109                	li	sp,2
    41be:	4e89                	li	t4,2
    41c0:	4e4d                	li	t3,19
    41c2:	01d11463          	bne	sp,t4,41ca <fail>
    41c6:	03c01563          	bne	zero,t3,41f0 <pass>

000041ca <fail>:
    41ca:	10010537          	lui	a0,0x10010
    41ce:	00450513          	addi	a0,a0,4 # 10010004 <_sp+0xfffed24>
    41d2:	04500593          	li	a1,69
    41d6:	05200613          	li	a2,82
    41da:	04f00693          	li	a3,79
    41de:	00a00713          	li	a4,10
    41e2:	c10c                	sw	a1,0(a0)
    41e4:	c110                	sw	a2,0(a0)
    41e6:	c110                	sw	a2,0(a0)
    41e8:	c114                	sw	a3,0(a0)
    41ea:	c110                	sw	a2,0(a0)
    41ec:	c118                	sw	a4,0(a0)
    41ee:	9002                	ebreak

000041f0 <pass>:
    41f0:	10010537          	lui	a0,0x10010
    41f4:	00450513          	addi	a0,a0,4 # 10010004 <_sp+0xfffed24>
    41f8:	04f00593          	li	a1,79
    41fc:	04b00613          	li	a2,75
    4200:	00a00693          	li	a3,10
    4204:	c10c                	sw	a1,0(a0)
    4206:	c110                	sw	a2,0(a0)
    4208:	c114                	sw	a3,0(a0)
    420a:	000f0113          	mv	sp,t5
    420e:	ffc12183          	lw	gp,-4(sp)
    4212:	ff812083          	lw	ra,-8(sp)
    4216:	838fc06f          	j	24e <lw_ret>

0000421a <srl>:
    421a:	00010f13          	mv	t5,sp
    421e:	fe312e23          	sw	gp,-4(sp)
    4222:	fe112c23          	sw	ra,-8(sp)
    4226:	8c818513          	addi	a0,gp,-1848 # 101e4 <srl_data>
    422a:	10010637          	lui	a2,0x10010
    422e:	00460613          	addi	a2,a2,4 # 10010004 <_sp+0xfffed24>

00004232 <.prname_next>:
    4232:	00050583          	lb	a1,0(a0)
    4236:	00058663          	beqz	a1,4242 <.prname_done>
    423a:	c20c                	sw	a1,0(a2)
    423c:	0505                	addi	a0,a0,1
    423e:	ff5ff06f          	j	4232 <.prname_next>

00004242 <.prname_done>:
    4242:	02e00593          	li	a1,46
    4246:	c20c                	sw	a1,0(a2)
    4248:	c20c                	sw	a1,0(a2)

0000424a <test_2>:
    424a:	ffff80b7          	lui	ra,0xffff8
    424e:	4101                	li	sp,0
    4250:	0020d1b3          	srl	gp,ra,sp
    4254:	ffff8eb7          	lui	t4,0xffff8
    4258:	4e09                	li	t3,2
    425a:	49d19f63          	bne	gp,t4,46f8 <fail>

0000425e <test_3>:
    425e:	ffff80b7          	lui	ra,0xffff8
    4262:	4105                	li	sp,1
    4264:	0020d1b3          	srl	gp,ra,sp
    4268:	7fffceb7          	lui	t4,0x7fffc
    426c:	4e0d                	li	t3,3
    426e:	49d19563          	bne	gp,t4,46f8 <fail>

00004272 <test_4>:
    4272:	ffff80b7          	lui	ra,0xffff8
    4276:	411d                	li	sp,7
    4278:	0020d1b3          	srl	gp,ra,sp
    427c:	02000eb7          	lui	t4,0x2000
    4280:	f00e8e93          	addi	t4,t4,-256 # 1ffff00 <_sp+0x1feec20>
    4284:	4e11                	li	t3,4
    4286:	47d19963          	bne	gp,t4,46f8 <fail>

0000428a <test_5>:
    428a:	ffff80b7          	lui	ra,0xffff8
    428e:	4139                	li	sp,14
    4290:	0020d1b3          	srl	gp,ra,sp
    4294:	00040eb7          	lui	t4,0x40
    4298:	ffee8e93          	addi	t4,t4,-2 # 3fffe <_sp+0x2ed1e>
    429c:	4e15                	li	t3,5
    429e:	45d19d63          	bne	gp,t4,46f8 <fail>

000042a2 <test_6>:
    42a2:	ffff80b7          	lui	ra,0xffff8
    42a6:	00108093          	addi	ra,ra,1 # ffff8001 <pulp__FC+0xffff8002>
    42aa:	413d                	li	sp,15
    42ac:	0020d1b3          	srl	gp,ra,sp
    42b0:	00020eb7          	lui	t4,0x20
    42b4:	fffe8e93          	addi	t4,t4,-1 # 1ffff <_sp+0xed1f>
    42b8:	4e19                	li	t3,6
    42ba:	43d19f63          	bne	gp,t4,46f8 <fail>

000042be <test_7>:
    42be:	fff00093          	li	ra,-1
    42c2:	4101                	li	sp,0
    42c4:	0020d1b3          	srl	gp,ra,sp
    42c8:	fff00e93          	li	t4,-1
    42cc:	4e1d                	li	t3,7
    42ce:	43d19563          	bne	gp,t4,46f8 <fail>

000042d2 <test_8>:
    42d2:	fff00093          	li	ra,-1
    42d6:	4105                	li	sp,1
    42d8:	0020d1b3          	srl	gp,ra,sp
    42dc:	80000eb7          	lui	t4,0x80000
    42e0:	fffe8e93          	addi	t4,t4,-1 # 7fffffff <pulp__FC+0x80000000>
    42e4:	4e21                	li	t3,8
    42e6:	41d19963          	bne	gp,t4,46f8 <fail>

000042ea <test_9>:
    42ea:	fff00093          	li	ra,-1
    42ee:	411d                	li	sp,7
    42f0:	0020d1b3          	srl	gp,ra,sp
    42f4:	02000eb7          	lui	t4,0x2000
    42f8:	fffe8e93          	addi	t4,t4,-1 # 1ffffff <_sp+0x1feed1f>
    42fc:	4e25                	li	t3,9
    42fe:	3fd19d63          	bne	gp,t4,46f8 <fail>

00004302 <test_10>:
    4302:	fff00093          	li	ra,-1
    4306:	4139                	li	sp,14
    4308:	0020d1b3          	srl	gp,ra,sp
    430c:	00040eb7          	lui	t4,0x40
    4310:	fffe8e93          	addi	t4,t4,-1 # 3ffff <_sp+0x2ed1f>
    4314:	4e29                	li	t3,10
    4316:	3fd19163          	bne	gp,t4,46f8 <fail>

0000431a <test_11>:
    431a:	fff00093          	li	ra,-1
    431e:	417d                	li	sp,31
    4320:	0020d1b3          	srl	gp,ra,sp
    4324:	4e85                	li	t4,1
    4326:	4e2d                	li	t3,11
    4328:	3dd19863          	bne	gp,t4,46f8 <fail>

0000432c <test_12>:
    432c:	212120b7          	lui	ra,0x21212
    4330:	12108093          	addi	ra,ra,289 # 21212121 <_sp+0x21200e41>
    4334:	4101                	li	sp,0
    4336:	0020d1b3          	srl	gp,ra,sp
    433a:	21212eb7          	lui	t4,0x21212
    433e:	121e8e93          	addi	t4,t4,289 # 21212121 <_sp+0x21200e41>
    4342:	4e31                	li	t3,12
    4344:	3bd19a63          	bne	gp,t4,46f8 <fail>

00004348 <test_13>:
    4348:	212120b7          	lui	ra,0x21212
    434c:	12108093          	addi	ra,ra,289 # 21212121 <_sp+0x21200e41>
    4350:	4105                	li	sp,1
    4352:	0020d1b3          	srl	gp,ra,sp
    4356:	10909eb7          	lui	t4,0x10909
    435a:	090e8e93          	addi	t4,t4,144 # 10909090 <_sp+0x108f7db0>
    435e:	4e35                	li	t3,13
    4360:	39d19c63          	bne	gp,t4,46f8 <fail>

00004364 <test_14>:
    4364:	212120b7          	lui	ra,0x21212
    4368:	12108093          	addi	ra,ra,289 # 21212121 <_sp+0x21200e41>
    436c:	411d                	li	sp,7
    436e:	0020d1b3          	srl	gp,ra,sp
    4372:	00424eb7          	lui	t4,0x424
    4376:	242e8e93          	addi	t4,t4,578 # 424242 <_sp+0x412f62>
    437a:	4e39                	li	t3,14
    437c:	37d19e63          	bne	gp,t4,46f8 <fail>

00004380 <test_15>:
    4380:	212120b7          	lui	ra,0x21212
    4384:	12108093          	addi	ra,ra,289 # 21212121 <_sp+0x21200e41>
    4388:	4139                	li	sp,14
    438a:	0020d1b3          	srl	gp,ra,sp
    438e:	00008eb7          	lui	t4,0x8
    4392:	484e8e93          	addi	t4,t4,1156 # 8484 <insn+0x4>
    4396:	4e3d                	li	t3,15
    4398:	37d19063          	bne	gp,t4,46f8 <fail>

0000439c <test_16>:
    439c:	212120b7          	lui	ra,0x21212
    43a0:	12108093          	addi	ra,ra,289 # 21212121 <_sp+0x21200e41>
    43a4:	417d                	li	sp,31
    43a6:	0020d1b3          	srl	gp,ra,sp
    43aa:	4e81                	li	t4,0
    43ac:	4e41                	li	t3,16
    43ae:	35d19563          	bne	gp,t4,46f8 <fail>

000043b2 <test_17>:
    43b2:	212120b7          	lui	ra,0x21212
    43b6:	12108093          	addi	ra,ra,289 # 21212121 <_sp+0x21200e41>
    43ba:	fe000113          	li	sp,-32
    43be:	0020d1b3          	srl	gp,ra,sp
    43c2:	21212eb7          	lui	t4,0x21212
    43c6:	121e8e93          	addi	t4,t4,289 # 21212121 <_sp+0x21200e41>
    43ca:	4e45                	li	t3,17
    43cc:	33d19663          	bne	gp,t4,46f8 <fail>

000043d0 <test_18>:
    43d0:	212120b7          	lui	ra,0x21212
    43d4:	12108093          	addi	ra,ra,289 # 21212121 <_sp+0x21200e41>
    43d8:	fe100113          	li	sp,-31
    43dc:	0020d1b3          	srl	gp,ra,sp
    43e0:	10909eb7          	lui	t4,0x10909
    43e4:	090e8e93          	addi	t4,t4,144 # 10909090 <_sp+0x108f7db0>
    43e8:	4e49                	li	t3,18
    43ea:	31d19763          	bne	gp,t4,46f8 <fail>

000043ee <test_19>:
    43ee:	212120b7          	lui	ra,0x21212
    43f2:	12108093          	addi	ra,ra,289 # 21212121 <_sp+0x21200e41>
    43f6:	fe700113          	li	sp,-25
    43fa:	0020d1b3          	srl	gp,ra,sp
    43fe:	00424eb7          	lui	t4,0x424
    4402:	242e8e93          	addi	t4,t4,578 # 424242 <_sp+0x412f62>
    4406:	4e4d                	li	t3,19
    4408:	2fd19863          	bne	gp,t4,46f8 <fail>

0000440c <test_20>:
    440c:	212120b7          	lui	ra,0x21212
    4410:	12108093          	addi	ra,ra,289 # 21212121 <_sp+0x21200e41>
    4414:	fee00113          	li	sp,-18
    4418:	0020d1b3          	srl	gp,ra,sp
    441c:	00008eb7          	lui	t4,0x8
    4420:	484e8e93          	addi	t4,t4,1156 # 8484 <insn+0x4>
    4424:	4e51                	li	t3,20
    4426:	2dd19963          	bne	gp,t4,46f8 <fail>

0000442a <test_21>:
    442a:	212120b7          	lui	ra,0x21212
    442e:	12108093          	addi	ra,ra,289 # 21212121 <_sp+0x21200e41>
    4432:	fff00113          	li	sp,-1
    4436:	0020d1b3          	srl	gp,ra,sp
    443a:	4e81                	li	t4,0
    443c:	4e55                	li	t3,21
    443e:	2bd19d63          	bne	gp,t4,46f8 <fail>

00004442 <test_22>:
    4442:	ffff80b7          	lui	ra,0xffff8
    4446:	4105                	li	sp,1
    4448:	0020d0b3          	srl	ra,ra,sp
    444c:	7fffceb7          	lui	t4,0x7fffc
    4450:	4e59                	li	t3,22
    4452:	2bd09363          	bne	ra,t4,46f8 <fail>

00004456 <test_23>:
    4456:	ffff80b7          	lui	ra,0xffff8
    445a:	4139                	li	sp,14
    445c:	0020d133          	srl	sp,ra,sp
    4460:	00040eb7          	lui	t4,0x40
    4464:	ffee8e93          	addi	t4,t4,-2 # 3fffe <_sp+0x2ed1e>
    4468:	4e5d                	li	t3,23
    446a:	29d11763          	bne	sp,t4,46f8 <fail>

0000446e <test_24>:
    446e:	409d                	li	ra,7
    4470:	0010d0b3          	srl	ra,ra,ra
    4474:	4e81                	li	t4,0
    4476:	4e61                	li	t3,24
    4478:	29d09063          	bne	ra,t4,46f8 <fail>

0000447c <test_25>:
    447c:	4201                	li	tp,0
    447e:	ffff80b7          	lui	ra,0xffff8
    4482:	4105                	li	sp,1
    4484:	0020d1b3          	srl	gp,ra,sp
    4488:	00018313          	mv	t1,gp
    448c:	0205                	addi	tp,tp,1
    448e:	4289                	li	t0,2
    4490:	fe5217e3          	bne	tp,t0,447e <test_25+0x2>
    4494:	7fffceb7          	lui	t4,0x7fffc
    4498:	4e65                	li	t3,25
    449a:	25d31f63          	bne	t1,t4,46f8 <fail>

0000449e <test_26>:
    449e:	4201                	li	tp,0
    44a0:	ffff80b7          	lui	ra,0xffff8
    44a4:	4139                	li	sp,14
    44a6:	0020d1b3          	srl	gp,ra,sp
    44aa:	0001                	nop
    44ac:	00018313          	mv	t1,gp
    44b0:	0205                	addi	tp,tp,1
    44b2:	4289                	li	t0,2
    44b4:	fe5216e3          	bne	tp,t0,44a0 <test_26+0x2>
    44b8:	00040eb7          	lui	t4,0x40
    44bc:	ffee8e93          	addi	t4,t4,-2 # 3fffe <_sp+0x2ed1e>
    44c0:	4e69                	li	t3,26
    44c2:	23d31b63          	bne	t1,t4,46f8 <fail>

000044c6 <test_27>:
    44c6:	4201                	li	tp,0
    44c8:	ffff80b7          	lui	ra,0xffff8
    44cc:	413d                	li	sp,15
    44ce:	0020d1b3          	srl	gp,ra,sp
    44d2:	0001                	nop
    44d4:	0001                	nop
    44d6:	00018313          	mv	t1,gp
    44da:	0205                	addi	tp,tp,1
    44dc:	4289                	li	t0,2
    44de:	fe5215e3          	bne	tp,t0,44c8 <test_27+0x2>
    44e2:	00020eb7          	lui	t4,0x20
    44e6:	fffe8e93          	addi	t4,t4,-1 # 1ffff <_sp+0xed1f>
    44ea:	4e6d                	li	t3,27
    44ec:	21d31663          	bne	t1,t4,46f8 <fail>

000044f0 <test_28>:
    44f0:	4201                	li	tp,0
    44f2:	ffff80b7          	lui	ra,0xffff8
    44f6:	4105                	li	sp,1
    44f8:	0020d1b3          	srl	gp,ra,sp
    44fc:	0205                	addi	tp,tp,1
    44fe:	4289                	li	t0,2
    4500:	fe5219e3          	bne	tp,t0,44f2 <test_28+0x2>
    4504:	7fffceb7          	lui	t4,0x7fffc
    4508:	4e71                	li	t3,28
    450a:	1fd19763          	bne	gp,t4,46f8 <fail>

0000450e <test_29>:
    450e:	4201                	li	tp,0
    4510:	ffff80b7          	lui	ra,0xffff8
    4514:	411d                	li	sp,7
    4516:	0001                	nop
    4518:	0020d1b3          	srl	gp,ra,sp
    451c:	0205                	addi	tp,tp,1
    451e:	4289                	li	t0,2
    4520:	fe5218e3          	bne	tp,t0,4510 <test_29+0x2>
    4524:	02000eb7          	lui	t4,0x2000
    4528:	f00e8e93          	addi	t4,t4,-256 # 1ffff00 <_sp+0x1feec20>
    452c:	4e75                	li	t3,29
    452e:	1dd19563          	bne	gp,t4,46f8 <fail>

00004532 <test_30>:
    4532:	4201                	li	tp,0
    4534:	ffff80b7          	lui	ra,0xffff8
    4538:	413d                	li	sp,15
    453a:	0001                	nop
    453c:	0001                	nop
    453e:	0020d1b3          	srl	gp,ra,sp
    4542:	0205                	addi	tp,tp,1
    4544:	4289                	li	t0,2
    4546:	fe5217e3          	bne	tp,t0,4534 <test_30+0x2>
    454a:	00020eb7          	lui	t4,0x20
    454e:	fffe8e93          	addi	t4,t4,-1 # 1ffff <_sp+0xed1f>
    4552:	4e79                	li	t3,30
    4554:	1bd19263          	bne	gp,t4,46f8 <fail>

00004558 <test_31>:
    4558:	4201                	li	tp,0
    455a:	ffff80b7          	lui	ra,0xffff8
    455e:	0001                	nop
    4560:	4105                	li	sp,1
    4562:	0020d1b3          	srl	gp,ra,sp
    4566:	0205                	addi	tp,tp,1
    4568:	4289                	li	t0,2
    456a:	fe5218e3          	bne	tp,t0,455a <test_31+0x2>
    456e:	7fffceb7          	lui	t4,0x7fffc
    4572:	4e7d                	li	t3,31
    4574:	19d19263          	bne	gp,t4,46f8 <fail>

00004578 <test_32>:
    4578:	4201                	li	tp,0
    457a:	ffff80b7          	lui	ra,0xffff8
    457e:	0001                	nop
    4580:	411d                	li	sp,7
    4582:	0001                	nop
    4584:	0020d1b3          	srl	gp,ra,sp
    4588:	0205                	addi	tp,tp,1
    458a:	4289                	li	t0,2
    458c:	fe5217e3          	bne	tp,t0,457a <test_32+0x2>
    4590:	02000eb7          	lui	t4,0x2000
    4594:	f00e8e93          	addi	t4,t4,-256 # 1ffff00 <_sp+0x1feec20>
    4598:	02000e13          	li	t3,32
    459c:	15d19e63          	bne	gp,t4,46f8 <fail>

000045a0 <test_33>:
    45a0:	4201                	li	tp,0
    45a2:	ffff80b7          	lui	ra,0xffff8
    45a6:	0001                	nop
    45a8:	0001                	nop
    45aa:	413d                	li	sp,15
    45ac:	0020d1b3          	srl	gp,ra,sp
    45b0:	0205                	addi	tp,tp,1
    45b2:	4289                	li	t0,2
    45b4:	fe5217e3          	bne	tp,t0,45a2 <test_33+0x2>
    45b8:	00020eb7          	lui	t4,0x20
    45bc:	fffe8e93          	addi	t4,t4,-1 # 1ffff <_sp+0xed1f>
    45c0:	02100e13          	li	t3,33
    45c4:	13d19a63          	bne	gp,t4,46f8 <fail>

000045c8 <test_34>:
    45c8:	4201                	li	tp,0
    45ca:	4105                	li	sp,1
    45cc:	ffff80b7          	lui	ra,0xffff8
    45d0:	0020d1b3          	srl	gp,ra,sp
    45d4:	0205                	addi	tp,tp,1
    45d6:	4289                	li	t0,2
    45d8:	fe5219e3          	bne	tp,t0,45ca <test_34+0x2>
    45dc:	7fffceb7          	lui	t4,0x7fffc
    45e0:	02200e13          	li	t3,34
    45e4:	11d19a63          	bne	gp,t4,46f8 <fail>

000045e8 <test_35>:
    45e8:	4201                	li	tp,0
    45ea:	411d                	li	sp,7
    45ec:	ffff80b7          	lui	ra,0xffff8
    45f0:	0001                	nop
    45f2:	0020d1b3          	srl	gp,ra,sp
    45f6:	0205                	addi	tp,tp,1
    45f8:	4289                	li	t0,2
    45fa:	fe5218e3          	bne	tp,t0,45ea <test_35+0x2>
    45fe:	02000eb7          	lui	t4,0x2000
    4602:	f00e8e93          	addi	t4,t4,-256 # 1ffff00 <_sp+0x1feec20>
    4606:	02300e13          	li	t3,35
    460a:	0fd19763          	bne	gp,t4,46f8 <fail>

0000460e <test_36>:
    460e:	4201                	li	tp,0
    4610:	413d                	li	sp,15
    4612:	ffff80b7          	lui	ra,0xffff8
    4616:	0001                	nop
    4618:	0001                	nop
    461a:	0020d1b3          	srl	gp,ra,sp
    461e:	0205                	addi	tp,tp,1
    4620:	4289                	li	t0,2
    4622:	fe5217e3          	bne	tp,t0,4610 <test_36+0x2>
    4626:	00020eb7          	lui	t4,0x20
    462a:	fffe8e93          	addi	t4,t4,-1 # 1ffff <_sp+0xed1f>
    462e:	02400e13          	li	t3,36
    4632:	0dd19363          	bne	gp,t4,46f8 <fail>

00004636 <test_37>:
    4636:	4201                	li	tp,0
    4638:	4105                	li	sp,1
    463a:	0001                	nop
    463c:	ffff80b7          	lui	ra,0xffff8
    4640:	0020d1b3          	srl	gp,ra,sp
    4644:	0205                	addi	tp,tp,1
    4646:	4289                	li	t0,2
    4648:	fe5218e3          	bne	tp,t0,4638 <test_37+0x2>
    464c:	7fffceb7          	lui	t4,0x7fffc
    4650:	02500e13          	li	t3,37
    4654:	0bd19263          	bne	gp,t4,46f8 <fail>

00004658 <test_38>:
    4658:	4201                	li	tp,0
    465a:	411d                	li	sp,7
    465c:	0001                	nop
    465e:	ffff80b7          	lui	ra,0xffff8
    4662:	0001                	nop
    4664:	0020d1b3          	srl	gp,ra,sp
    4668:	0205                	addi	tp,tp,1
    466a:	4289                	li	t0,2
    466c:	fe5217e3          	bne	tp,t0,465a <test_38+0x2>
    4670:	02000eb7          	lui	t4,0x2000
    4674:	f00e8e93          	addi	t4,t4,-256 # 1ffff00 <_sp+0x1feec20>
    4678:	02600e13          	li	t3,38
    467c:	07d19e63          	bne	gp,t4,46f8 <fail>

00004680 <test_39>:
    4680:	4201                	li	tp,0
    4682:	413d                	li	sp,15
    4684:	0001                	nop
    4686:	0001                	nop
    4688:	ffff80b7          	lui	ra,0xffff8
    468c:	0020d1b3          	srl	gp,ra,sp
    4690:	0205                	addi	tp,tp,1
    4692:	4289                	li	t0,2
    4694:	fe5217e3          	bne	tp,t0,4682 <test_39+0x2>
    4698:	00020eb7          	lui	t4,0x20
    469c:	fffe8e93          	addi	t4,t4,-1 # 1ffff <_sp+0xed1f>
    46a0:	02700e13          	li	t3,39
    46a4:	05d19a63          	bne	gp,t4,46f8 <fail>

000046a8 <test_40>:
    46a8:	40bd                	li	ra,15
    46aa:	00105133          	srl	sp,zero,ra
    46ae:	4e81                	li	t4,0
    46b0:	02800e13          	li	t3,40
    46b4:	05d11263          	bne	sp,t4,46f8 <fail>

000046b8 <test_41>:
    46b8:	02000093          	li	ra,32
    46bc:	0000d133          	srl	sp,ra,zero
    46c0:	02000e93          	li	t4,32
    46c4:	02900e13          	li	t3,41
    46c8:	03d11863          	bne	sp,t4,46f8 <fail>

000046cc <test_42>:
    46cc:	000050b3          	srl	ra,zero,zero
    46d0:	4e81                	li	t4,0
    46d2:	02a00e13          	li	t3,42
    46d6:	03d09163          	bne	ra,t4,46f8 <fail>

000046da <test_43>:
    46da:	40000093          	li	ra,1024
    46de:	00001137          	lui	sp,0x1
    46e2:	80010113          	addi	sp,sp,-2048 # 800 <test_22+0x24>
    46e6:	0020d033          	srl	zero,ra,sp
    46ea:	4e81                	li	t4,0
    46ec:	02b00e13          	li	t3,43
    46f0:	01d01463          	bne	zero,t4,46f8 <fail>
    46f4:	03c01563          	bne	zero,t3,471e <pass>

000046f8 <fail>:
    46f8:	10010537          	lui	a0,0x10010
    46fc:	00450513          	addi	a0,a0,4 # 10010004 <_sp+0xfffed24>
    4700:	04500593          	li	a1,69
    4704:	05200613          	li	a2,82
    4708:	04f00693          	li	a3,79
    470c:	00a00713          	li	a4,10
    4710:	c10c                	sw	a1,0(a0)
    4712:	c110                	sw	a2,0(a0)
    4714:	c110                	sw	a2,0(a0)
    4716:	c114                	sw	a3,0(a0)
    4718:	c110                	sw	a2,0(a0)
    471a:	c118                	sw	a4,0(a0)
    471c:	9002                	ebreak

0000471e <pass>:
    471e:	10010537          	lui	a0,0x10010
    4722:	00450513          	addi	a0,a0,4 # 10010004 <_sp+0xfffed24>
    4726:	04f00593          	li	a1,79
    472a:	04b00613          	li	a2,75
    472e:	00a00693          	li	a3,10
    4732:	c10c                	sw	a1,0(a0)
    4734:	c110                	sw	a2,0(a0)
    4736:	c114                	sw	a3,0(a0)
    4738:	000f0113          	mv	sp,t5
    473c:	ffc12183          	lw	gp,-4(sp)
    4740:	ff812083          	lw	ra,-8(sp)
    4744:	ba3fb06f          	j	2e6 <srl_ret>

00004748 <add>:
    4748:	00010f13          	mv	t5,sp
    474c:	fe312e23          	sw	gp,-4(sp)
    4750:	fe112c23          	sw	ra,-8(sp)
    4754:	8cc18513          	addi	a0,gp,-1844 # 101e8 <add_data>
    4758:	10010637          	lui	a2,0x10010
    475c:	00460613          	addi	a2,a2,4 # 10010004 <_sp+0xfffed24>

00004760 <.prname_next>:
    4760:	00050583          	lb	a1,0(a0)
    4764:	00058663          	beqz	a1,4770 <.prname_done>
    4768:	c20c                	sw	a1,0(a2)
    476a:	0505                	addi	a0,a0,1
    476c:	ff5ff06f          	j	4760 <.prname_next>

00004770 <.prname_done>:
    4770:	02e00593          	li	a1,46
    4774:	c20c                	sw	a1,0(a2)
    4776:	c20c                	sw	a1,0(a2)

00004778 <test_2>:
    4778:	4081                	li	ra,0
    477a:	4101                	li	sp,0
    477c:	002081b3          	add	gp,ra,sp
    4780:	4e81                	li	t4,0
    4782:	4e09                	li	t3,2
    4784:	37d19d63          	bne	gp,t4,4afe <fail>

00004788 <test_3>:
    4788:	4085                	li	ra,1
    478a:	4105                	li	sp,1
    478c:	002081b3          	add	gp,ra,sp
    4790:	4e89                	li	t4,2
    4792:	4e0d                	li	t3,3
    4794:	37d19563          	bne	gp,t4,4afe <fail>

00004798 <test_4>:
    4798:	408d                	li	ra,3
    479a:	411d                	li	sp,7
    479c:	002081b3          	add	gp,ra,sp
    47a0:	4ea9                	li	t4,10
    47a2:	4e11                	li	t3,4
    47a4:	35d19d63          	bne	gp,t4,4afe <fail>

000047a8 <test_5>:
    47a8:	4081                	li	ra,0
    47aa:	ffff8137          	lui	sp,0xffff8
    47ae:	002081b3          	add	gp,ra,sp
    47b2:	ffff8eb7          	lui	t4,0xffff8
    47b6:	4e15                	li	t3,5
    47b8:	35d19363          	bne	gp,t4,4afe <fail>

000047bc <test_6>:
    47bc:	800000b7          	lui	ra,0x80000
    47c0:	4101                	li	sp,0
    47c2:	002081b3          	add	gp,ra,sp
    47c6:	80000eb7          	lui	t4,0x80000
    47ca:	4e19                	li	t3,6
    47cc:	33d19963          	bne	gp,t4,4afe <fail>

000047d0 <test_7>:
    47d0:	800000b7          	lui	ra,0x80000
    47d4:	ffff8137          	lui	sp,0xffff8
    47d8:	002081b3          	add	gp,ra,sp
    47dc:	7fff8eb7          	lui	t4,0x7fff8
    47e0:	4e1d                	li	t3,7
    47e2:	31d19e63          	bne	gp,t4,4afe <fail>

000047e6 <test_8>:
    47e6:	4081                	li	ra,0
    47e8:	00008137          	lui	sp,0x8
    47ec:	fff10113          	addi	sp,sp,-1 # 7fff <test_11+0x1d>
    47f0:	002081b3          	add	gp,ra,sp
    47f4:	00008eb7          	lui	t4,0x8
    47f8:	fffe8e93          	addi	t4,t4,-1 # 7fff <test_11+0x1d>
    47fc:	4e21                	li	t3,8
    47fe:	31d19063          	bne	gp,t4,4afe <fail>

00004802 <test_9>:
    4802:	800000b7          	lui	ra,0x80000
    4806:	fff08093          	addi	ra,ra,-1 # 7fffffff <pulp__FC+0x80000000>
    480a:	4101                	li	sp,0
    480c:	002081b3          	add	gp,ra,sp
    4810:	80000eb7          	lui	t4,0x80000
    4814:	fffe8e93          	addi	t4,t4,-1 # 7fffffff <pulp__FC+0x80000000>
    4818:	4e25                	li	t3,9
    481a:	2fd19263          	bne	gp,t4,4afe <fail>

0000481e <test_10>:
    481e:	800000b7          	lui	ra,0x80000
    4822:	fff08093          	addi	ra,ra,-1 # 7fffffff <pulp__FC+0x80000000>
    4826:	00008137          	lui	sp,0x8
    482a:	fff10113          	addi	sp,sp,-1 # 7fff <test_11+0x1d>
    482e:	002081b3          	add	gp,ra,sp
    4832:	80008eb7          	lui	t4,0x80008
    4836:	ffee8e93          	addi	t4,t4,-2 # 80007ffe <pulp__FC+0x80007fff>
    483a:	4e29                	li	t3,10
    483c:	2dd19163          	bne	gp,t4,4afe <fail>

00004840 <test_11>:
    4840:	800000b7          	lui	ra,0x80000
    4844:	00008137          	lui	sp,0x8
    4848:	fff10113          	addi	sp,sp,-1 # 7fff <test_11+0x1d>
    484c:	002081b3          	add	gp,ra,sp
    4850:	80008eb7          	lui	t4,0x80008
    4854:	fffe8e93          	addi	t4,t4,-1 # 80007fff <pulp__FC+0x80008000>
    4858:	4e2d                	li	t3,11
    485a:	2bd19263          	bne	gp,t4,4afe <fail>

0000485e <test_12>:
    485e:	800000b7          	lui	ra,0x80000
    4862:	fff08093          	addi	ra,ra,-1 # 7fffffff <pulp__FC+0x80000000>
    4866:	ffff8137          	lui	sp,0xffff8
    486a:	002081b3          	add	gp,ra,sp
    486e:	7fff8eb7          	lui	t4,0x7fff8
    4872:	fffe8e93          	addi	t4,t4,-1 # 7fff7fff <_sp+0x7ffe6d1f>
    4876:	4e31                	li	t3,12
    4878:	29d19363          	bne	gp,t4,4afe <fail>

0000487c <test_13>:
    487c:	4081                	li	ra,0
    487e:	fff00113          	li	sp,-1
    4882:	002081b3          	add	gp,ra,sp
    4886:	fff00e93          	li	t4,-1
    488a:	4e35                	li	t3,13
    488c:	27d19963          	bne	gp,t4,4afe <fail>

00004890 <test_14>:
    4890:	fff00093          	li	ra,-1
    4894:	4105                	li	sp,1
    4896:	002081b3          	add	gp,ra,sp
    489a:	4e81                	li	t4,0
    489c:	4e39                	li	t3,14
    489e:	27d19063          	bne	gp,t4,4afe <fail>

000048a2 <test_15>:
    48a2:	fff00093          	li	ra,-1
    48a6:	fff00113          	li	sp,-1
    48aa:	002081b3          	add	gp,ra,sp
    48ae:	ffe00e93          	li	t4,-2
    48b2:	4e3d                	li	t3,15
    48b4:	25d19563          	bne	gp,t4,4afe <fail>

000048b8 <test_16>:
    48b8:	4085                	li	ra,1
    48ba:	80000137          	lui	sp,0x80000
    48be:	fff10113          	addi	sp,sp,-1 # 7fffffff <pulp__FC+0x80000000>
    48c2:	002081b3          	add	gp,ra,sp
    48c6:	80000eb7          	lui	t4,0x80000
    48ca:	4e41                	li	t3,16
    48cc:	23d19963          	bne	gp,t4,4afe <fail>

000048d0 <test_17>:
    48d0:	40b5                	li	ra,13
    48d2:	412d                	li	sp,11
    48d4:	908a                	add	ra,ra,sp
    48d6:	4ee1                	li	t4,24
    48d8:	4e45                	li	t3,17
    48da:	23d09263          	bne	ra,t4,4afe <fail>

000048de <test_18>:
    48de:	40b9                	li	ra,14
    48e0:	412d                	li	sp,11
    48e2:	9106                	add	sp,sp,ra
    48e4:	4ee5                	li	t4,25
    48e6:	4e49                	li	t3,18
    48e8:	21d11b63          	bne	sp,t4,4afe <fail>

000048ec <test_19>:
    48ec:	40b5                	li	ra,13
    48ee:	9086                	add	ra,ra,ra
    48f0:	4ee9                	li	t4,26
    48f2:	4e4d                	li	t3,19
    48f4:	21d09563          	bne	ra,t4,4afe <fail>

000048f8 <test_20>:
    48f8:	4201                	li	tp,0
    48fa:	40b5                	li	ra,13
    48fc:	412d                	li	sp,11
    48fe:	002081b3          	add	gp,ra,sp
    4902:	00018313          	mv	t1,gp
    4906:	0205                	addi	tp,tp,1
    4908:	4289                	li	t0,2
    490a:	fe5218e3          	bne	tp,t0,48fa <test_20+0x2>
    490e:	4ee1                	li	t4,24
    4910:	4e51                	li	t3,20
    4912:	1fd31663          	bne	t1,t4,4afe <fail>

00004916 <test_21>:
    4916:	4201                	li	tp,0
    4918:	40b9                	li	ra,14
    491a:	412d                	li	sp,11
    491c:	002081b3          	add	gp,ra,sp
    4920:	0001                	nop
    4922:	00018313          	mv	t1,gp
    4926:	0205                	addi	tp,tp,1
    4928:	4289                	li	t0,2
    492a:	fe5217e3          	bne	tp,t0,4918 <test_21+0x2>
    492e:	4ee5                	li	t4,25
    4930:	4e55                	li	t3,21
    4932:	1dd31663          	bne	t1,t4,4afe <fail>

00004936 <test_22>:
    4936:	4201                	li	tp,0
    4938:	40bd                	li	ra,15
    493a:	412d                	li	sp,11
    493c:	002081b3          	add	gp,ra,sp
    4940:	0001                	nop
    4942:	0001                	nop
    4944:	00018313          	mv	t1,gp
    4948:	0205                	addi	tp,tp,1
    494a:	4289                	li	t0,2
    494c:	fe5216e3          	bne	tp,t0,4938 <test_22+0x2>
    4950:	4ee9                	li	t4,26
    4952:	4e59                	li	t3,22
    4954:	1bd31563          	bne	t1,t4,4afe <fail>

00004958 <test_23>:
    4958:	4201                	li	tp,0
    495a:	40b5                	li	ra,13
    495c:	412d                	li	sp,11
    495e:	002081b3          	add	gp,ra,sp
    4962:	0205                	addi	tp,tp,1
    4964:	4289                	li	t0,2
    4966:	fe521ae3          	bne	tp,t0,495a <test_23+0x2>
    496a:	4ee1                	li	t4,24
    496c:	4e5d                	li	t3,23
    496e:	19d19863          	bne	gp,t4,4afe <fail>

00004972 <test_24>:
    4972:	4201                	li	tp,0
    4974:	40b9                	li	ra,14
    4976:	412d                	li	sp,11
    4978:	0001                	nop
    497a:	002081b3          	add	gp,ra,sp
    497e:	0205                	addi	tp,tp,1
    4980:	4289                	li	t0,2
    4982:	fe5219e3          	bne	tp,t0,4974 <test_24+0x2>
    4986:	4ee5                	li	t4,25
    4988:	4e61                	li	t3,24
    498a:	17d19a63          	bne	gp,t4,4afe <fail>

0000498e <test_25>:
    498e:	4201                	li	tp,0
    4990:	40bd                	li	ra,15
    4992:	412d                	li	sp,11
    4994:	0001                	nop
    4996:	0001                	nop
    4998:	002081b3          	add	gp,ra,sp
    499c:	0205                	addi	tp,tp,1
    499e:	4289                	li	t0,2
    49a0:	fe5218e3          	bne	tp,t0,4990 <test_25+0x2>
    49a4:	4ee9                	li	t4,26
    49a6:	4e65                	li	t3,25
    49a8:	15d19b63          	bne	gp,t4,4afe <fail>

000049ac <test_26>:
    49ac:	4201                	li	tp,0
    49ae:	40b5                	li	ra,13
    49b0:	0001                	nop
    49b2:	412d                	li	sp,11
    49b4:	002081b3          	add	gp,ra,sp
    49b8:	0205                	addi	tp,tp,1
    49ba:	4289                	li	t0,2
    49bc:	fe5219e3          	bne	tp,t0,49ae <test_26+0x2>
    49c0:	4ee1                	li	t4,24
    49c2:	4e69                	li	t3,26
    49c4:	13d19d63          	bne	gp,t4,4afe <fail>

000049c8 <test_27>:
    49c8:	4201                	li	tp,0
    49ca:	40b9                	li	ra,14
    49cc:	0001                	nop
    49ce:	412d                	li	sp,11
    49d0:	0001                	nop
    49d2:	002081b3          	add	gp,ra,sp
    49d6:	0205                	addi	tp,tp,1
    49d8:	4289                	li	t0,2
    49da:	fe5218e3          	bne	tp,t0,49ca <test_27+0x2>
    49de:	4ee5                	li	t4,25
    49e0:	4e6d                	li	t3,27
    49e2:	11d19e63          	bne	gp,t4,4afe <fail>

000049e6 <test_28>:
    49e6:	4201                	li	tp,0
    49e8:	40bd                	li	ra,15
    49ea:	0001                	nop
    49ec:	0001                	nop
    49ee:	412d                	li	sp,11
    49f0:	002081b3          	add	gp,ra,sp
    49f4:	0205                	addi	tp,tp,1
    49f6:	4289                	li	t0,2
    49f8:	fe5218e3          	bne	tp,t0,49e8 <test_28+0x2>
    49fc:	4ee9                	li	t4,26
    49fe:	4e71                	li	t3,28
    4a00:	0fd19f63          	bne	gp,t4,4afe <fail>

00004a04 <test_29>:
    4a04:	4201                	li	tp,0
    4a06:	412d                	li	sp,11
    4a08:	40b5                	li	ra,13
    4a0a:	002081b3          	add	gp,ra,sp
    4a0e:	0205                	addi	tp,tp,1
    4a10:	4289                	li	t0,2
    4a12:	fe521ae3          	bne	tp,t0,4a06 <test_29+0x2>
    4a16:	4ee1                	li	t4,24
    4a18:	4e75                	li	t3,29
    4a1a:	0fd19263          	bne	gp,t4,4afe <fail>

00004a1e <test_30>:
    4a1e:	4201                	li	tp,0
    4a20:	412d                	li	sp,11
    4a22:	40b9                	li	ra,14
    4a24:	0001                	nop
    4a26:	002081b3          	add	gp,ra,sp
    4a2a:	0205                	addi	tp,tp,1
    4a2c:	4289                	li	t0,2
    4a2e:	fe5219e3          	bne	tp,t0,4a20 <test_30+0x2>
    4a32:	4ee5                	li	t4,25
    4a34:	4e79                	li	t3,30
    4a36:	0dd19463          	bne	gp,t4,4afe <fail>

00004a3a <test_31>:
    4a3a:	4201                	li	tp,0
    4a3c:	412d                	li	sp,11
    4a3e:	40bd                	li	ra,15
    4a40:	0001                	nop
    4a42:	0001                	nop
    4a44:	002081b3          	add	gp,ra,sp
    4a48:	0205                	addi	tp,tp,1
    4a4a:	4289                	li	t0,2
    4a4c:	fe5218e3          	bne	tp,t0,4a3c <test_31+0x2>
    4a50:	4ee9                	li	t4,26
    4a52:	4e7d                	li	t3,31
    4a54:	0bd19563          	bne	gp,t4,4afe <fail>

00004a58 <test_32>:
    4a58:	4201                	li	tp,0
    4a5a:	412d                	li	sp,11
    4a5c:	0001                	nop
    4a5e:	40b5                	li	ra,13
    4a60:	002081b3          	add	gp,ra,sp
    4a64:	0205                	addi	tp,tp,1
    4a66:	4289                	li	t0,2
    4a68:	fe5219e3          	bne	tp,t0,4a5a <test_32+0x2>
    4a6c:	4ee1                	li	t4,24
    4a6e:	02000e13          	li	t3,32
    4a72:	09d19663          	bne	gp,t4,4afe <fail>

00004a76 <test_33>:
    4a76:	4201                	li	tp,0
    4a78:	412d                	li	sp,11
    4a7a:	0001                	nop
    4a7c:	40b9                	li	ra,14
    4a7e:	0001                	nop
    4a80:	002081b3          	add	gp,ra,sp
    4a84:	0205                	addi	tp,tp,1
    4a86:	4289                	li	t0,2
    4a88:	fe5218e3          	bne	tp,t0,4a78 <test_33+0x2>
    4a8c:	4ee5                	li	t4,25
    4a8e:	02100e13          	li	t3,33
    4a92:	07d19663          	bne	gp,t4,4afe <fail>

00004a96 <test_34>:
    4a96:	4201                	li	tp,0
    4a98:	412d                	li	sp,11
    4a9a:	0001                	nop
    4a9c:	0001                	nop
    4a9e:	40bd                	li	ra,15
    4aa0:	002081b3          	add	gp,ra,sp
    4aa4:	0205                	addi	tp,tp,1
    4aa6:	4289                	li	t0,2
    4aa8:	fe5218e3          	bne	tp,t0,4a98 <test_34+0x2>
    4aac:	4ee9                	li	t4,26
    4aae:	02200e13          	li	t3,34
    4ab2:	05d19663          	bne	gp,t4,4afe <fail>

00004ab6 <test_35>:
    4ab6:	40bd                	li	ra,15
    4ab8:	00100133          	add	sp,zero,ra
    4abc:	4ebd                	li	t4,15
    4abe:	02300e13          	li	t3,35
    4ac2:	03d11e63          	bne	sp,t4,4afe <fail>

00004ac6 <test_36>:
    4ac6:	02000093          	li	ra,32
    4aca:	00008133          	add	sp,ra,zero
    4ace:	02000e93          	li	t4,32
    4ad2:	02400e13          	li	t3,36
    4ad6:	03d11463          	bne	sp,t4,4afe <fail>

00004ada <test_37>:
    4ada:	000000b3          	add	ra,zero,zero
    4ade:	4e81                	li	t4,0
    4ae0:	02500e13          	li	t3,37
    4ae4:	01d09d63          	bne	ra,t4,4afe <fail>

00004ae8 <test_38>:
    4ae8:	40c1                	li	ra,16
    4aea:	4179                	li	sp,30
    4aec:	00208033          	add	zero,ra,sp
    4af0:	4e81                	li	t4,0
    4af2:	02600e13          	li	t3,38
    4af6:	01d01463          	bne	zero,t4,4afe <fail>
    4afa:	03c01563          	bne	zero,t3,4b24 <pass>

00004afe <fail>:
    4afe:	10010537          	lui	a0,0x10010
    4b02:	00450513          	addi	a0,a0,4 # 10010004 <_sp+0xfffed24>
    4b06:	04500593          	li	a1,69
    4b0a:	05200613          	li	a2,82
    4b0e:	04f00693          	li	a3,79
    4b12:	00a00713          	li	a4,10
    4b16:	c10c                	sw	a1,0(a0)
    4b18:	c110                	sw	a2,0(a0)
    4b1a:	c110                	sw	a2,0(a0)
    4b1c:	c114                	sw	a3,0(a0)
    4b1e:	c110                	sw	a2,0(a0)
    4b20:	c118                	sw	a4,0(a0)
    4b22:	9002                	ebreak

00004b24 <pass>:
    4b24:	10010537          	lui	a0,0x10010
    4b28:	00450513          	addi	a0,a0,4 # 10010004 <_sp+0xfffed24>
    4b2c:	04f00593          	li	a1,79
    4b30:	04b00613          	li	a2,75
    4b34:	00a00693          	li	a3,10
    4b38:	c10c                	sw	a1,0(a0)
    4b3a:	c110                	sw	a2,0(a0)
    4b3c:	c114                	sw	a3,0(a0)
    4b3e:	000f0113          	mv	sp,t5
    4b42:	ffc12183          	lw	gp,-4(sp)
    4b46:	ff812083          	lw	ra,-8(sp)
    4b4a:	f74fb06f          	j	2be <add_ret>

00004b4e <slt>:
    4b4e:	00010f13          	mv	t5,sp
    4b52:	fe312e23          	sw	gp,-4(sp)
    4b56:	fe112c23          	sw	ra,-8(sp)
    4b5a:	8d018513          	addi	a0,gp,-1840 # 101ec <slt_data>
    4b5e:	10010637          	lui	a2,0x10010
    4b62:	00460613          	addi	a2,a2,4 # 10010004 <_sp+0xfffed24>

00004b66 <.prname_next>:
    4b66:	00050583          	lb	a1,0(a0)
    4b6a:	00058663          	beqz	a1,4b76 <.prname_done>
    4b6e:	c20c                	sw	a1,0(a2)
    4b70:	0505                	addi	a0,a0,1
    4b72:	ff5ff06f          	j	4b66 <.prname_next>

00004b76 <.prname_done>:
    4b76:	02e00593          	li	a1,46
    4b7a:	c20c                	sw	a1,0(a2)
    4b7c:	c20c                	sw	a1,0(a2)

00004b7e <test_2>:
    4b7e:	4081                	li	ra,0
    4b80:	4101                	li	sp,0
    4b82:	0020a1b3          	slt	gp,ra,sp
    4b86:	4e81                	li	t4,0
    4b88:	4e09                	li	t3,2
    4b8a:	35d19663          	bne	gp,t4,4ed6 <fail>

00004b8e <test_3>:
    4b8e:	4085                	li	ra,1
    4b90:	4105                	li	sp,1
    4b92:	0020a1b3          	slt	gp,ra,sp
    4b96:	4e81                	li	t4,0
    4b98:	4e0d                	li	t3,3
    4b9a:	33d19e63          	bne	gp,t4,4ed6 <fail>

00004b9e <test_4>:
    4b9e:	408d                	li	ra,3
    4ba0:	411d                	li	sp,7
    4ba2:	0020a1b3          	slt	gp,ra,sp
    4ba6:	4e85                	li	t4,1
    4ba8:	4e11                	li	t3,4
    4baa:	33d19663          	bne	gp,t4,4ed6 <fail>

00004bae <test_5>:
    4bae:	409d                	li	ra,7
    4bb0:	410d                	li	sp,3
    4bb2:	0020a1b3          	slt	gp,ra,sp
    4bb6:	4e81                	li	t4,0
    4bb8:	4e15                	li	t3,5
    4bba:	31d19e63          	bne	gp,t4,4ed6 <fail>

00004bbe <test_6>:
    4bbe:	4081                	li	ra,0
    4bc0:	ffff8137          	lui	sp,0xffff8
    4bc4:	0020a1b3          	slt	gp,ra,sp
    4bc8:	4e81                	li	t4,0
    4bca:	4e19                	li	t3,6
    4bcc:	31d19563          	bne	gp,t4,4ed6 <fail>

00004bd0 <test_7>:
    4bd0:	800000b7          	lui	ra,0x80000
    4bd4:	4101                	li	sp,0
    4bd6:	0020a1b3          	slt	gp,ra,sp
    4bda:	4e85                	li	t4,1
    4bdc:	4e1d                	li	t3,7
    4bde:	2fd19c63          	bne	gp,t4,4ed6 <fail>

00004be2 <test_8>:
    4be2:	800000b7          	lui	ra,0x80000
    4be6:	ffff8137          	lui	sp,0xffff8
    4bea:	0020a1b3          	slt	gp,ra,sp
    4bee:	4e85                	li	t4,1
    4bf0:	4e21                	li	t3,8
    4bf2:	2fd19263          	bne	gp,t4,4ed6 <fail>

00004bf6 <test_9>:
    4bf6:	4081                	li	ra,0
    4bf8:	00008137          	lui	sp,0x8
    4bfc:	fff10113          	addi	sp,sp,-1 # 7fff <test_11+0x1d>
    4c00:	0020a1b3          	slt	gp,ra,sp
    4c04:	4e85                	li	t4,1
    4c06:	4e25                	li	t3,9
    4c08:	2dd19763          	bne	gp,t4,4ed6 <fail>

00004c0c <test_10>:
    4c0c:	800000b7          	lui	ra,0x80000
    4c10:	fff08093          	addi	ra,ra,-1 # 7fffffff <pulp__FC+0x80000000>
    4c14:	4101                	li	sp,0
    4c16:	0020a1b3          	slt	gp,ra,sp
    4c1a:	4e81                	li	t4,0
    4c1c:	4e29                	li	t3,10
    4c1e:	2bd19c63          	bne	gp,t4,4ed6 <fail>

00004c22 <test_11>:
    4c22:	800000b7          	lui	ra,0x80000
    4c26:	fff08093          	addi	ra,ra,-1 # 7fffffff <pulp__FC+0x80000000>
    4c2a:	00008137          	lui	sp,0x8
    4c2e:	fff10113          	addi	sp,sp,-1 # 7fff <test_11+0x1d>
    4c32:	0020a1b3          	slt	gp,ra,sp
    4c36:	4e81                	li	t4,0
    4c38:	4e2d                	li	t3,11
    4c3a:	29d19e63          	bne	gp,t4,4ed6 <fail>

00004c3e <test_12>:
    4c3e:	800000b7          	lui	ra,0x80000
    4c42:	00008137          	lui	sp,0x8
    4c46:	fff10113          	addi	sp,sp,-1 # 7fff <test_11+0x1d>
    4c4a:	0020a1b3          	slt	gp,ra,sp
    4c4e:	4e85                	li	t4,1
    4c50:	4e31                	li	t3,12
    4c52:	29d19263          	bne	gp,t4,4ed6 <fail>

00004c56 <test_13>:
    4c56:	800000b7          	lui	ra,0x80000
    4c5a:	fff08093          	addi	ra,ra,-1 # 7fffffff <pulp__FC+0x80000000>
    4c5e:	ffff8137          	lui	sp,0xffff8
    4c62:	0020a1b3          	slt	gp,ra,sp
    4c66:	4e81                	li	t4,0
    4c68:	4e35                	li	t3,13
    4c6a:	27d19663          	bne	gp,t4,4ed6 <fail>

00004c6e <test_14>:
    4c6e:	4081                	li	ra,0
    4c70:	fff00113          	li	sp,-1
    4c74:	0020a1b3          	slt	gp,ra,sp
    4c78:	4e81                	li	t4,0
    4c7a:	4e39                	li	t3,14
    4c7c:	25d19d63          	bne	gp,t4,4ed6 <fail>

00004c80 <test_15>:
    4c80:	fff00093          	li	ra,-1
    4c84:	4105                	li	sp,1
    4c86:	0020a1b3          	slt	gp,ra,sp
    4c8a:	4e85                	li	t4,1
    4c8c:	4e3d                	li	t3,15
    4c8e:	25d19463          	bne	gp,t4,4ed6 <fail>

00004c92 <test_16>:
    4c92:	fff00093          	li	ra,-1
    4c96:	fff00113          	li	sp,-1
    4c9a:	0020a1b3          	slt	gp,ra,sp
    4c9e:	4e81                	li	t4,0
    4ca0:	4e41                	li	t3,16
    4ca2:	23d19a63          	bne	gp,t4,4ed6 <fail>

00004ca6 <test_17>:
    4ca6:	40b9                	li	ra,14
    4ca8:	4135                	li	sp,13
    4caa:	0020a0b3          	slt	ra,ra,sp
    4cae:	4e81                	li	t4,0
    4cb0:	4e45                	li	t3,17
    4cb2:	23d09263          	bne	ra,t4,4ed6 <fail>

00004cb6 <test_18>:
    4cb6:	40ad                	li	ra,11
    4cb8:	4135                	li	sp,13
    4cba:	0020a133          	slt	sp,ra,sp
    4cbe:	4e85                	li	t4,1
    4cc0:	4e49                	li	t3,18
    4cc2:	21d11a63          	bne	sp,t4,4ed6 <fail>

00004cc6 <test_19>:
    4cc6:	40b5                	li	ra,13
    4cc8:	0010a0b3          	slt	ra,ra,ra
    4ccc:	4e81                	li	t4,0
    4cce:	4e4d                	li	t3,19
    4cd0:	21d09363          	bne	ra,t4,4ed6 <fail>

00004cd4 <test_20>:
    4cd4:	4201                	li	tp,0
    4cd6:	40ad                	li	ra,11
    4cd8:	4135                	li	sp,13
    4cda:	0020a1b3          	slt	gp,ra,sp
    4cde:	00018313          	mv	t1,gp
    4ce2:	0205                	addi	tp,tp,1
    4ce4:	4289                	li	t0,2
    4ce6:	fe5218e3          	bne	tp,t0,4cd6 <test_20+0x2>
    4cea:	4e85                	li	t4,1
    4cec:	4e51                	li	t3,20
    4cee:	1fd31463          	bne	t1,t4,4ed6 <fail>

00004cf2 <test_21>:
    4cf2:	4201                	li	tp,0
    4cf4:	40b9                	li	ra,14
    4cf6:	4135                	li	sp,13
    4cf8:	0020a1b3          	slt	gp,ra,sp
    4cfc:	0001                	nop
    4cfe:	00018313          	mv	t1,gp
    4d02:	0205                	addi	tp,tp,1
    4d04:	4289                	li	t0,2
    4d06:	fe5217e3          	bne	tp,t0,4cf4 <test_21+0x2>
    4d0a:	4e81                	li	t4,0
    4d0c:	4e55                	li	t3,21
    4d0e:	1dd31463          	bne	t1,t4,4ed6 <fail>

00004d12 <test_22>:
    4d12:	4201                	li	tp,0
    4d14:	40b1                	li	ra,12
    4d16:	4135                	li	sp,13
    4d18:	0020a1b3          	slt	gp,ra,sp
    4d1c:	0001                	nop
    4d1e:	0001                	nop
    4d20:	00018313          	mv	t1,gp
    4d24:	0205                	addi	tp,tp,1
    4d26:	4289                	li	t0,2
    4d28:	fe5216e3          	bne	tp,t0,4d14 <test_22+0x2>
    4d2c:	4e85                	li	t4,1
    4d2e:	4e59                	li	t3,22
    4d30:	1bd31363          	bne	t1,t4,4ed6 <fail>

00004d34 <test_23>:
    4d34:	4201                	li	tp,0
    4d36:	40b9                	li	ra,14
    4d38:	4135                	li	sp,13
    4d3a:	0020a1b3          	slt	gp,ra,sp
    4d3e:	0205                	addi	tp,tp,1
    4d40:	4289                	li	t0,2
    4d42:	fe521ae3          	bne	tp,t0,4d36 <test_23+0x2>
    4d46:	4e81                	li	t4,0
    4d48:	4e5d                	li	t3,23
    4d4a:	19d19663          	bne	gp,t4,4ed6 <fail>

00004d4e <test_24>:
    4d4e:	4201                	li	tp,0
    4d50:	40ad                	li	ra,11
    4d52:	4135                	li	sp,13
    4d54:	0001                	nop
    4d56:	0020a1b3          	slt	gp,ra,sp
    4d5a:	0205                	addi	tp,tp,1
    4d5c:	4289                	li	t0,2
    4d5e:	fe5219e3          	bne	tp,t0,4d50 <test_24+0x2>
    4d62:	4e85                	li	t4,1
    4d64:	4e61                	li	t3,24
    4d66:	17d19863          	bne	gp,t4,4ed6 <fail>

00004d6a <test_25>:
    4d6a:	4201                	li	tp,0
    4d6c:	40bd                	li	ra,15
    4d6e:	4135                	li	sp,13
    4d70:	0001                	nop
    4d72:	0001                	nop
    4d74:	0020a1b3          	slt	gp,ra,sp
    4d78:	0205                	addi	tp,tp,1
    4d7a:	4289                	li	t0,2
    4d7c:	fe5218e3          	bne	tp,t0,4d6c <test_25+0x2>
    4d80:	4e81                	li	t4,0
    4d82:	4e65                	li	t3,25
    4d84:	15d19963          	bne	gp,t4,4ed6 <fail>

00004d88 <test_26>:
    4d88:	4201                	li	tp,0
    4d8a:	40a9                	li	ra,10
    4d8c:	0001                	nop
    4d8e:	4135                	li	sp,13
    4d90:	0020a1b3          	slt	gp,ra,sp
    4d94:	0205                	addi	tp,tp,1
    4d96:	4289                	li	t0,2
    4d98:	fe5219e3          	bne	tp,t0,4d8a <test_26+0x2>
    4d9c:	4e85                	li	t4,1
    4d9e:	4e69                	li	t3,26
    4da0:	13d19b63          	bne	gp,t4,4ed6 <fail>

00004da4 <test_27>:
    4da4:	4201                	li	tp,0
    4da6:	40c1                	li	ra,16
    4da8:	0001                	nop
    4daa:	4135                	li	sp,13
    4dac:	0001                	nop
    4dae:	0020a1b3          	slt	gp,ra,sp
    4db2:	0205                	addi	tp,tp,1
    4db4:	4289                	li	t0,2
    4db6:	fe5218e3          	bne	tp,t0,4da6 <test_27+0x2>
    4dba:	4e81                	li	t4,0
    4dbc:	4e6d                	li	t3,27
    4dbe:	11d19c63          	bne	gp,t4,4ed6 <fail>

00004dc2 <test_28>:
    4dc2:	4201                	li	tp,0
    4dc4:	40a5                	li	ra,9
    4dc6:	0001                	nop
    4dc8:	0001                	nop
    4dca:	4135                	li	sp,13
    4dcc:	0020a1b3          	slt	gp,ra,sp
    4dd0:	0205                	addi	tp,tp,1
    4dd2:	4289                	li	t0,2
    4dd4:	fe5218e3          	bne	tp,t0,4dc4 <test_28+0x2>
    4dd8:	4e85                	li	t4,1
    4dda:	4e71                	li	t3,28
    4ddc:	0fd19d63          	bne	gp,t4,4ed6 <fail>

00004de0 <test_29>:
    4de0:	4201                	li	tp,0
    4de2:	4135                	li	sp,13
    4de4:	40c5                	li	ra,17
    4de6:	0020a1b3          	slt	gp,ra,sp
    4dea:	0205                	addi	tp,tp,1
    4dec:	4289                	li	t0,2
    4dee:	fe521ae3          	bne	tp,t0,4de2 <test_29+0x2>
    4df2:	4e81                	li	t4,0
    4df4:	4e75                	li	t3,29
    4df6:	0fd19063          	bne	gp,t4,4ed6 <fail>

00004dfa <test_30>:
    4dfa:	4201                	li	tp,0
    4dfc:	4135                	li	sp,13
    4dfe:	40a1                	li	ra,8
    4e00:	0001                	nop
    4e02:	0020a1b3          	slt	gp,ra,sp
    4e06:	0205                	addi	tp,tp,1
    4e08:	4289                	li	t0,2
    4e0a:	fe5219e3          	bne	tp,t0,4dfc <test_30+0x2>
    4e0e:	4e85                	li	t4,1
    4e10:	4e79                	li	t3,30
    4e12:	0dd19263          	bne	gp,t4,4ed6 <fail>

00004e16 <test_31>:
    4e16:	4201                	li	tp,0
    4e18:	4135                	li	sp,13
    4e1a:	40c9                	li	ra,18
    4e1c:	0001                	nop
    4e1e:	0001                	nop
    4e20:	0020a1b3          	slt	gp,ra,sp
    4e24:	0205                	addi	tp,tp,1
    4e26:	4289                	li	t0,2
    4e28:	fe5218e3          	bne	tp,t0,4e18 <test_31+0x2>
    4e2c:	4e81                	li	t4,0
    4e2e:	4e7d                	li	t3,31
    4e30:	0bd19363          	bne	gp,t4,4ed6 <fail>

00004e34 <test_32>:
    4e34:	4201                	li	tp,0
    4e36:	4135                	li	sp,13
    4e38:	0001                	nop
    4e3a:	409d                	li	ra,7
    4e3c:	0020a1b3          	slt	gp,ra,sp
    4e40:	0205                	addi	tp,tp,1
    4e42:	4289                	li	t0,2
    4e44:	fe5219e3          	bne	tp,t0,4e36 <test_32+0x2>
    4e48:	4e85                	li	t4,1
    4e4a:	02000e13          	li	t3,32
    4e4e:	09d19463          	bne	gp,t4,4ed6 <fail>

00004e52 <test_33>:
    4e52:	4201                	li	tp,0
    4e54:	4135                	li	sp,13
    4e56:	0001                	nop
    4e58:	40cd                	li	ra,19
    4e5a:	0001                	nop
    4e5c:	0020a1b3          	slt	gp,ra,sp
    4e60:	0205                	addi	tp,tp,1
    4e62:	4289                	li	t0,2
    4e64:	fe5218e3          	bne	tp,t0,4e54 <test_33+0x2>
    4e68:	4e81                	li	t4,0
    4e6a:	02100e13          	li	t3,33
    4e6e:	07d19463          	bne	gp,t4,4ed6 <fail>

00004e72 <test_34>:
    4e72:	4201                	li	tp,0
    4e74:	4135                	li	sp,13
    4e76:	0001                	nop
    4e78:	0001                	nop
    4e7a:	4099                	li	ra,6
    4e7c:	0020a1b3          	slt	gp,ra,sp
    4e80:	0205                	addi	tp,tp,1
    4e82:	4289                	li	t0,2
    4e84:	fe5218e3          	bne	tp,t0,4e74 <test_34+0x2>
    4e88:	4e85                	li	t4,1
    4e8a:	02200e13          	li	t3,34
    4e8e:	05d19463          	bne	gp,t4,4ed6 <fail>

00004e92 <test_35>:
    4e92:	50fd                	li	ra,-1
    4e94:	00102133          	sgtz	sp,ra
    4e98:	4e81                	li	t4,0
    4e9a:	02300e13          	li	t3,35
    4e9e:	03d11c63          	bne	sp,t4,4ed6 <fail>

00004ea2 <test_36>:
    4ea2:	50fd                	li	ra,-1
    4ea4:	0000a133          	sltz	sp,ra
    4ea8:	4e85                	li	t4,1
    4eaa:	02400e13          	li	t3,36
    4eae:	03d11463          	bne	sp,t4,4ed6 <fail>

00004eb2 <test_37>:
    4eb2:	000020b3          	sltz	ra,zero
    4eb6:	4e81                	li	t4,0
    4eb8:	02500e13          	li	t3,37
    4ebc:	01d09d63          	bne	ra,t4,4ed6 <fail>

00004ec0 <test_38>:
    4ec0:	40c1                	li	ra,16
    4ec2:	4179                	li	sp,30
    4ec4:	0020a033          	slt	zero,ra,sp
    4ec8:	4e81                	li	t4,0
    4eca:	02600e13          	li	t3,38
    4ece:	01d01463          	bne	zero,t4,4ed6 <fail>
    4ed2:	03c01563          	bne	zero,t3,4efc <pass>

00004ed6 <fail>:
    4ed6:	10010537          	lui	a0,0x10010
    4eda:	00450513          	addi	a0,a0,4 # 10010004 <_sp+0xfffed24>
    4ede:	04500593          	li	a1,69
    4ee2:	05200613          	li	a2,82
    4ee6:	04f00693          	li	a3,79
    4eea:	00a00713          	li	a4,10
    4eee:	c10c                	sw	a1,0(a0)
    4ef0:	c110                	sw	a2,0(a0)
    4ef2:	c110                	sw	a2,0(a0)
    4ef4:	c114                	sw	a3,0(a0)
    4ef6:	c110                	sw	a2,0(a0)
    4ef8:	c118                	sw	a4,0(a0)
    4efa:	9002                	ebreak

00004efc <pass>:
    4efc:	10010537          	lui	a0,0x10010
    4f00:	00450513          	addi	a0,a0,4 # 10010004 <_sp+0xfffed24>
    4f04:	04f00593          	li	a1,79
    4f08:	04b00613          	li	a2,75
    4f0c:	00a00693          	li	a3,10
    4f10:	c10c                	sw	a1,0(a0)
    4f12:	c110                	sw	a2,0(a0)
    4f14:	c114                	sw	a3,0(a0)
    4f16:	000f0113          	mv	sp,t5
    4f1a:	ffc12183          	lw	gp,-4(sp) # ffff7ffc <pulp__FC+0xffff7ffd>
    4f1e:	ff812083          	lw	ra,-8(sp)
    4f22:	bb4fb06f          	j	2d6 <slt_ret>

00004f26 <lbu>:
    4f26:	00010f13          	mv	t5,sp
    4f2a:	fe312e23          	sw	gp,-4(sp)
    4f2e:	fe112c23          	sw	ra,-8(sp)
    4f32:	8d418513          	addi	a0,gp,-1836 # 101f0 <lbu_data>
    4f36:	10010637          	lui	a2,0x10010
    4f3a:	00460613          	addi	a2,a2,4 # 10010004 <_sp+0xfffed24>

00004f3e <.prname_next>:
    4f3e:	00050583          	lb	a1,0(a0)
    4f42:	00058663          	beqz	a1,4f4e <.prname_done>
    4f46:	c20c                	sw	a1,0(a2)
    4f48:	0505                	addi	a0,a0,1
    4f4a:	ff5ff06f          	j	4f3e <.prname_next>

00004f4e <.prname_done>:
    4f4e:	02e00593          	li	a1,46
    4f52:	c20c                	sw	a1,0(a2)
    4f54:	c20c                	sw	a1,0(a2)

00004f56 <test_2>:
    4f56:	0000b097          	auipc	ra,0xb
    4f5a:	29e08093          	addi	ra,ra,670 # 101f4 <tdat>
    4f5e:	0000c183          	lbu	gp,0(ra)
    4f62:	0ff00e93          	li	t4,255
    4f66:	4e09                	li	t3,2
    4f68:	1dd19363          	bne	gp,t4,512e <fail>

00004f6c <test_3>:
    4f6c:	0000b097          	auipc	ra,0xb
    4f70:	28808093          	addi	ra,ra,648 # 101f4 <tdat>
    4f74:	0010c183          	lbu	gp,1(ra)
    4f78:	4e81                	li	t4,0
    4f7a:	4e0d                	li	t3,3
    4f7c:	1bd19963          	bne	gp,t4,512e <fail>

00004f80 <test_4>:
    4f80:	0000b097          	auipc	ra,0xb
    4f84:	27408093          	addi	ra,ra,628 # 101f4 <tdat>
    4f88:	0020c183          	lbu	gp,2(ra)
    4f8c:	0f000e93          	li	t4,240
    4f90:	4e11                	li	t3,4
    4f92:	19d19e63          	bne	gp,t4,512e <fail>

00004f96 <test_5>:
    4f96:	0000b097          	auipc	ra,0xb
    4f9a:	25e08093          	addi	ra,ra,606 # 101f4 <tdat>
    4f9e:	0030c183          	lbu	gp,3(ra)
    4fa2:	4ebd                	li	t4,15
    4fa4:	4e15                	li	t3,5
    4fa6:	19d19463          	bne	gp,t4,512e <fail>

00004faa <test_6>:
    4faa:	0000b097          	auipc	ra,0xb
    4fae:	24d08093          	addi	ra,ra,589 # 101f7 <tdat4>
    4fb2:	ffd0c183          	lbu	gp,-3(ra)
    4fb6:	0ff00e93          	li	t4,255
    4fba:	4e19                	li	t3,6
    4fbc:	17d19963          	bne	gp,t4,512e <fail>

00004fc0 <test_7>:
    4fc0:	0000b097          	auipc	ra,0xb
    4fc4:	23708093          	addi	ra,ra,567 # 101f7 <tdat4>
    4fc8:	ffe0c183          	lbu	gp,-2(ra)
    4fcc:	4e81                	li	t4,0
    4fce:	4e1d                	li	t3,7
    4fd0:	15d19f63          	bne	gp,t4,512e <fail>

00004fd4 <test_8>:
    4fd4:	0000b097          	auipc	ra,0xb
    4fd8:	22308093          	addi	ra,ra,547 # 101f7 <tdat4>
    4fdc:	fff0c183          	lbu	gp,-1(ra)
    4fe0:	0f000e93          	li	t4,240
    4fe4:	4e21                	li	t3,8
    4fe6:	15d19463          	bne	gp,t4,512e <fail>

00004fea <test_9>:
    4fea:	0000b097          	auipc	ra,0xb
    4fee:	20d08093          	addi	ra,ra,525 # 101f7 <tdat4>
    4ff2:	0000c183          	lbu	gp,0(ra)
    4ff6:	4ebd                	li	t4,15
    4ff8:	4e25                	li	t3,9
    4ffa:	13d19a63          	bne	gp,t4,512e <fail>

00004ffe <test_10>:
    4ffe:	0000b097          	auipc	ra,0xb
    5002:	1f608093          	addi	ra,ra,502 # 101f4 <tdat>
    5006:	1081                	addi	ra,ra,-32
    5008:	0200c183          	lbu	gp,32(ra)
    500c:	0ff00e93          	li	t4,255
    5010:	4e29                	li	t3,10
    5012:	11d19e63          	bne	gp,t4,512e <fail>

00005016 <test_11>:
    5016:	0000b097          	auipc	ra,0xb
    501a:	1de08093          	addi	ra,ra,478 # 101f4 <tdat>
    501e:	10e9                	addi	ra,ra,-6
    5020:	0070c183          	lbu	gp,7(ra)
    5024:	4e81                	li	t4,0
    5026:	4e2d                	li	t3,11
    5028:	11d19363          	bne	gp,t4,512e <fail>

0000502c <test_12>:
    502c:	4e31                	li	t3,12
    502e:	4201                	li	tp,0
    5030:	0000b097          	auipc	ra,0xb
    5034:	1c508093          	addi	ra,ra,453 # 101f5 <tdat2>
    5038:	0010c183          	lbu	gp,1(ra)
    503c:	00018313          	mv	t1,gp
    5040:	0f000e93          	li	t4,240
    5044:	0fd31563          	bne	t1,t4,512e <fail>
    5048:	0205                	addi	tp,tp,1
    504a:	4289                	li	t0,2
    504c:	fe5212e3          	bne	tp,t0,5030 <test_12+0x4>

00005050 <test_13>:
    5050:	4e35                	li	t3,13
    5052:	4201                	li	tp,0
    5054:	0000b097          	auipc	ra,0xb
    5058:	1a208093          	addi	ra,ra,418 # 101f6 <tdat3>
    505c:	0010c183          	lbu	gp,1(ra)
    5060:	0001                	nop
    5062:	00018313          	mv	t1,gp
    5066:	4ebd                	li	t4,15
    5068:	0dd31363          	bne	t1,t4,512e <fail>
    506c:	0205                	addi	tp,tp,1
    506e:	4289                	li	t0,2
    5070:	fe5212e3          	bne	tp,t0,5054 <test_13+0x4>

00005074 <test_14>:
    5074:	4e39                	li	t3,14
    5076:	4201                	li	tp,0
    5078:	0000b097          	auipc	ra,0xb
    507c:	17c08093          	addi	ra,ra,380 # 101f4 <tdat>
    5080:	0010c183          	lbu	gp,1(ra)
    5084:	0001                	nop
    5086:	0001                	nop
    5088:	00018313          	mv	t1,gp
    508c:	4e81                	li	t4,0
    508e:	0bd31063          	bne	t1,t4,512e <fail>
    5092:	0205                	addi	tp,tp,1
    5094:	4289                	li	t0,2
    5096:	fe5211e3          	bne	tp,t0,5078 <test_14+0x4>

0000509a <test_15>:
    509a:	4e3d                	li	t3,15
    509c:	4201                	li	tp,0
    509e:	0000b097          	auipc	ra,0xb
    50a2:	15708093          	addi	ra,ra,343 # 101f5 <tdat2>
    50a6:	0010c183          	lbu	gp,1(ra)
    50aa:	0f000e93          	li	t4,240
    50ae:	09d19063          	bne	gp,t4,512e <fail>
    50b2:	0205                	addi	tp,tp,1
    50b4:	4289                	li	t0,2
    50b6:	fe5214e3          	bne	tp,t0,509e <test_15+0x4>

000050ba <test_16>:
    50ba:	4e41                	li	t3,16
    50bc:	4201                	li	tp,0
    50be:	0000b097          	auipc	ra,0xb
    50c2:	13808093          	addi	ra,ra,312 # 101f6 <tdat3>
    50c6:	0001                	nop
    50c8:	0010c183          	lbu	gp,1(ra)
    50cc:	4ebd                	li	t4,15
    50ce:	07d19063          	bne	gp,t4,512e <fail>
    50d2:	0205                	addi	tp,tp,1
    50d4:	4289                	li	t0,2
    50d6:	fe5214e3          	bne	tp,t0,50be <test_16+0x4>

000050da <test_17>:
    50da:	4e45                	li	t3,17
    50dc:	4201                	li	tp,0
    50de:	0000b097          	auipc	ra,0xb
    50e2:	11608093          	addi	ra,ra,278 # 101f4 <tdat>
    50e6:	0001                	nop
    50e8:	0001                	nop
    50ea:	0010c183          	lbu	gp,1(ra)
    50ee:	4e81                	li	t4,0
    50f0:	03d19f63          	bne	gp,t4,512e <fail>
    50f4:	0205                	addi	tp,tp,1
    50f6:	4289                	li	t0,2
    50f8:	fe5213e3          	bne	tp,t0,50de <test_17+0x4>

000050fc <test_18>:
    50fc:	0000b197          	auipc	gp,0xb
    5100:	0f818193          	addi	gp,gp,248 # 101f4 <tdat>
    5104:	0001c103          	lbu	sp,0(gp) # 1091c <__global_pointer$>
    5108:	4109                	li	sp,2
    510a:	4e89                	li	t4,2
    510c:	4e49                	li	t3,18
    510e:	03d11063          	bne	sp,t4,512e <fail>

00005112 <test_19>:
    5112:	0000b197          	auipc	gp,0xb
    5116:	0e218193          	addi	gp,gp,226 # 101f4 <tdat>
    511a:	0001c103          	lbu	sp,0(gp) # 1091c <__global_pointer$>
    511e:	0001                	nop
    5120:	4109                	li	sp,2
    5122:	4e89                	li	t4,2
    5124:	4e4d                	li	t3,19
    5126:	01d11463          	bne	sp,t4,512e <fail>
    512a:	03c01563          	bne	zero,t3,5154 <pass>

0000512e <fail>:
    512e:	10010537          	lui	a0,0x10010
    5132:	00450513          	addi	a0,a0,4 # 10010004 <_sp+0xfffed24>
    5136:	04500593          	li	a1,69
    513a:	05200613          	li	a2,82
    513e:	04f00693          	li	a3,79
    5142:	00a00713          	li	a4,10
    5146:	c10c                	sw	a1,0(a0)
    5148:	c110                	sw	a2,0(a0)
    514a:	c110                	sw	a2,0(a0)
    514c:	c114                	sw	a3,0(a0)
    514e:	c110                	sw	a2,0(a0)
    5150:	c118                	sw	a4,0(a0)
    5152:	9002                	ebreak

00005154 <pass>:
    5154:	10010537          	lui	a0,0x10010
    5158:	00450513          	addi	a0,a0,4 # 10010004 <_sp+0xfffed24>
    515c:	04f00593          	li	a1,79
    5160:	04b00613          	li	a2,75
    5164:	00a00693          	li	a3,10
    5168:	c10c                	sw	a1,0(a0)
    516a:	c110                	sw	a2,0(a0)
    516c:	c114                	sw	a3,0(a0)
    516e:	000f0113          	mv	sp,t5
    5172:	ffc12183          	lw	gp,-4(sp)
    5176:	ff812083          	lw	ra,-8(sp)
    517a:	8dcfb06f          	j	256 <lbu_ret>

0000517e <lhu>:
    517e:	00010f13          	mv	t5,sp
    5182:	fe312e23          	sw	gp,-4(sp)
    5186:	fe112c23          	sw	ra,-8(sp)
    518a:	8dc18513          	addi	a0,gp,-1828 # 101f8 <lhu_data>
    518e:	10010637          	lui	a2,0x10010
    5192:	00460613          	addi	a2,a2,4 # 10010004 <_sp+0xfffed24>

00005196 <.prname_next>:
    5196:	00050583          	lb	a1,0(a0)
    519a:	00058663          	beqz	a1,51a6 <.prname_done>
    519e:	c20c                	sw	a1,0(a2)
    51a0:	0505                	addi	a0,a0,1
    51a2:	ff5ff06f          	j	5196 <.prname_next>

000051a6 <.prname_done>:
    51a6:	02e00593          	li	a1,46
    51aa:	c20c                	sw	a1,0(a2)
    51ac:	c20c                	sw	a1,0(a2)

000051ae <test_2>:
    51ae:	0000b097          	auipc	ra,0xb
    51b2:	04e08093          	addi	ra,ra,78 # 101fc <tdat>
    51b6:	0000d183          	lhu	gp,0(ra)
    51ba:	0ff00e93          	li	t4,255
    51be:	4e09                	li	t3,2
    51c0:	21d19663          	bne	gp,t4,53cc <fail>

000051c4 <test_3>:
    51c4:	0000b097          	auipc	ra,0xb
    51c8:	03808093          	addi	ra,ra,56 # 101fc <tdat>
    51cc:	0020d183          	lhu	gp,2(ra)
    51d0:	00010eb7          	lui	t4,0x10
    51d4:	f00e8e93          	addi	t4,t4,-256 # ff00 <__read_next_512b_first32b+0x73b8>
    51d8:	4e0d                	li	t3,3
    51da:	1fd19963          	bne	gp,t4,53cc <fail>

000051de <test_4>:
    51de:	0000b097          	auipc	ra,0xb
    51e2:	01e08093          	addi	ra,ra,30 # 101fc <tdat>
    51e6:	0040d183          	lhu	gp,4(ra)
    51ea:	00001eb7          	lui	t4,0x1
    51ee:	ff0e8e93          	addi	t4,t4,-16 # ff0 <test_16+0x8>
    51f2:	4e11                	li	t3,4
    51f4:	1dd19c63          	bne	gp,t4,53cc <fail>

000051f8 <test_5>:
    51f8:	0000b097          	auipc	ra,0xb
    51fc:	00408093          	addi	ra,ra,4 # 101fc <tdat>
    5200:	0060d183          	lhu	gp,6(ra)
    5204:	0000feb7          	lui	t4,0xf
    5208:	00fe8e93          	addi	t4,t4,15 # f00f <__read_next_512b_first32b+0x64c7>
    520c:	4e15                	li	t3,5
    520e:	1bd19f63          	bne	gp,t4,53cc <fail>

00005212 <test_6>:
    5212:	0000b097          	auipc	ra,0xb
    5216:	ff008093          	addi	ra,ra,-16 # 10202 <tdat4>
    521a:	ffa0d183          	lhu	gp,-6(ra)
    521e:	0ff00e93          	li	t4,255
    5222:	4e19                	li	t3,6
    5224:	1bd19463          	bne	gp,t4,53cc <fail>

00005228 <test_7>:
    5228:	0000b097          	auipc	ra,0xb
    522c:	fda08093          	addi	ra,ra,-38 # 10202 <tdat4>
    5230:	ffc0d183          	lhu	gp,-4(ra)
    5234:	00010eb7          	lui	t4,0x10
    5238:	f00e8e93          	addi	t4,t4,-256 # ff00 <__read_next_512b_first32b+0x73b8>
    523c:	4e1d                	li	t3,7
    523e:	19d19763          	bne	gp,t4,53cc <fail>

00005242 <test_8>:
    5242:	0000b097          	auipc	ra,0xb
    5246:	fc008093          	addi	ra,ra,-64 # 10202 <tdat4>
    524a:	ffe0d183          	lhu	gp,-2(ra)
    524e:	00001eb7          	lui	t4,0x1
    5252:	ff0e8e93          	addi	t4,t4,-16 # ff0 <test_16+0x8>
    5256:	4e21                	li	t3,8
    5258:	17d19a63          	bne	gp,t4,53cc <fail>

0000525c <test_9>:
    525c:	0000b097          	auipc	ra,0xb
    5260:	fa608093          	addi	ra,ra,-90 # 10202 <tdat4>
    5264:	0000d183          	lhu	gp,0(ra)
    5268:	0000feb7          	lui	t4,0xf
    526c:	00fe8e93          	addi	t4,t4,15 # f00f <__read_next_512b_first32b+0x64c7>
    5270:	4e25                	li	t3,9
    5272:	15d19d63          	bne	gp,t4,53cc <fail>

00005276 <test_10>:
    5276:	0000b097          	auipc	ra,0xb
    527a:	f8608093          	addi	ra,ra,-122 # 101fc <tdat>
    527e:	1081                	addi	ra,ra,-32
    5280:	0200d183          	lhu	gp,32(ra)
    5284:	0ff00e93          	li	t4,255
    5288:	4e29                	li	t3,10
    528a:	15d19163          	bne	gp,t4,53cc <fail>

0000528e <test_11>:
    528e:	0000b097          	auipc	ra,0xb
    5292:	f6e08093          	addi	ra,ra,-146 # 101fc <tdat>
    5296:	10ed                	addi	ra,ra,-5
    5298:	0070d183          	lhu	gp,7(ra)
    529c:	00010eb7          	lui	t4,0x10
    52a0:	f00e8e93          	addi	t4,t4,-256 # ff00 <__read_next_512b_first32b+0x73b8>
    52a4:	4e2d                	li	t3,11
    52a6:	13d19363          	bne	gp,t4,53cc <fail>

000052aa <test_12>:
    52aa:	4e31                	li	t3,12
    52ac:	4201                	li	tp,0
    52ae:	0000b097          	auipc	ra,0xb
    52b2:	f5008093          	addi	ra,ra,-176 # 101fe <tdat2>
    52b6:	0020d183          	lhu	gp,2(ra)
    52ba:	00018313          	mv	t1,gp
    52be:	00001eb7          	lui	t4,0x1
    52c2:	ff0e8e93          	addi	t4,t4,-16 # ff0 <test_16+0x8>
    52c6:	11d31363          	bne	t1,t4,53cc <fail>
    52ca:	0205                	addi	tp,tp,1
    52cc:	4289                	li	t0,2
    52ce:	fe5210e3          	bne	tp,t0,52ae <test_12+0x4>

000052d2 <test_13>:
    52d2:	4e35                	li	t3,13
    52d4:	4201                	li	tp,0
    52d6:	0000b097          	auipc	ra,0xb
    52da:	f2a08093          	addi	ra,ra,-214 # 10200 <tdat3>
    52de:	0020d183          	lhu	gp,2(ra)
    52e2:	0001                	nop
    52e4:	00018313          	mv	t1,gp
    52e8:	0000feb7          	lui	t4,0xf
    52ec:	00fe8e93          	addi	t4,t4,15 # f00f <__read_next_512b_first32b+0x64c7>
    52f0:	0dd31e63          	bne	t1,t4,53cc <fail>
    52f4:	0205                	addi	tp,tp,1
    52f6:	4289                	li	t0,2
    52f8:	fc521fe3          	bne	tp,t0,52d6 <test_13+0x4>

000052fc <test_14>:
    52fc:	4e39                	li	t3,14
    52fe:	4201                	li	tp,0
    5300:	0000b097          	auipc	ra,0xb
    5304:	efc08093          	addi	ra,ra,-260 # 101fc <tdat>
    5308:	0020d183          	lhu	gp,2(ra)
    530c:	0001                	nop
    530e:	0001                	nop
    5310:	00018313          	mv	t1,gp
    5314:	00010eb7          	lui	t4,0x10
    5318:	f00e8e93          	addi	t4,t4,-256 # ff00 <__read_next_512b_first32b+0x73b8>
    531c:	0bd31863          	bne	t1,t4,53cc <fail>
    5320:	0205                	addi	tp,tp,1
    5322:	4289                	li	t0,2
    5324:	fc521ee3          	bne	tp,t0,5300 <test_14+0x4>

00005328 <test_15>:
    5328:	4e3d                	li	t3,15
    532a:	4201                	li	tp,0
    532c:	0000b097          	auipc	ra,0xb
    5330:	ed208093          	addi	ra,ra,-302 # 101fe <tdat2>
    5334:	0020d183          	lhu	gp,2(ra)
    5338:	00001eb7          	lui	t4,0x1
    533c:	ff0e8e93          	addi	t4,t4,-16 # ff0 <test_16+0x8>
    5340:	09d19663          	bne	gp,t4,53cc <fail>
    5344:	0205                	addi	tp,tp,1
    5346:	4289                	li	t0,2
    5348:	fe5212e3          	bne	tp,t0,532c <test_15+0x4>

0000534c <test_16>:
    534c:	4e41                	li	t3,16
    534e:	4201                	li	tp,0
    5350:	0000b097          	auipc	ra,0xb
    5354:	eb008093          	addi	ra,ra,-336 # 10200 <tdat3>
    5358:	0001                	nop
    535a:	0020d183          	lhu	gp,2(ra)
    535e:	0000feb7          	lui	t4,0xf
    5362:	00fe8e93          	addi	t4,t4,15 # f00f <__read_next_512b_first32b+0x64c7>
    5366:	07d19363          	bne	gp,t4,53cc <fail>
    536a:	0205                	addi	tp,tp,1
    536c:	4289                	li	t0,2
    536e:	fe5211e3          	bne	tp,t0,5350 <test_16+0x4>

00005372 <test_17>:
    5372:	4e45                	li	t3,17
    5374:	4201                	li	tp,0
    5376:	0000b097          	auipc	ra,0xb
    537a:	e8608093          	addi	ra,ra,-378 # 101fc <tdat>
    537e:	0001                	nop
    5380:	0001                	nop
    5382:	0020d183          	lhu	gp,2(ra)
    5386:	00010eb7          	lui	t4,0x10
    538a:	f00e8e93          	addi	t4,t4,-256 # ff00 <__read_next_512b_first32b+0x73b8>
    538e:	03d19f63          	bne	gp,t4,53cc <fail>
    5392:	0205                	addi	tp,tp,1
    5394:	4289                	li	t0,2
    5396:	fe5210e3          	bne	tp,t0,5376 <test_17+0x4>

0000539a <test_18>:
    539a:	0000b197          	auipc	gp,0xb
    539e:	e6218193          	addi	gp,gp,-414 # 101fc <tdat>
    53a2:	0001d103          	lhu	sp,0(gp) # 1091c <__global_pointer$>
    53a6:	4109                	li	sp,2
    53a8:	4e89                	li	t4,2
    53aa:	4e49                	li	t3,18
    53ac:	03d11063          	bne	sp,t4,53cc <fail>

000053b0 <test_19>:
    53b0:	0000b197          	auipc	gp,0xb
    53b4:	e4c18193          	addi	gp,gp,-436 # 101fc <tdat>
    53b8:	0001d103          	lhu	sp,0(gp) # 1091c <__global_pointer$>
    53bc:	0001                	nop
    53be:	4109                	li	sp,2
    53c0:	4e89                	li	t4,2
    53c2:	4e4d                	li	t3,19
    53c4:	01d11463          	bne	sp,t4,53cc <fail>
    53c8:	03c01563          	bne	zero,t3,53f2 <pass>

000053cc <fail>:
    53cc:	10010537          	lui	a0,0x10010
    53d0:	00450513          	addi	a0,a0,4 # 10010004 <_sp+0xfffed24>
    53d4:	04500593          	li	a1,69
    53d8:	05200613          	li	a2,82
    53dc:	04f00693          	li	a3,79
    53e0:	00a00713          	li	a4,10
    53e4:	c10c                	sw	a1,0(a0)
    53e6:	c110                	sw	a2,0(a0)
    53e8:	c110                	sw	a2,0(a0)
    53ea:	c114                	sw	a3,0(a0)
    53ec:	c110                	sw	a2,0(a0)
    53ee:	c118                	sw	a4,0(a0)
    53f0:	9002                	ebreak

000053f2 <pass>:
    53f2:	10010537          	lui	a0,0x10010
    53f6:	00450513          	addi	a0,a0,4 # 10010004 <_sp+0xfffed24>
    53fa:	04f00593          	li	a1,79
    53fe:	04b00613          	li	a2,75
    5402:	00a00693          	li	a3,10
    5406:	c10c                	sw	a1,0(a0)
    5408:	c110                	sw	a2,0(a0)
    540a:	c114                	sw	a3,0(a0)
    540c:	000f0113          	mv	sp,t5
    5410:	ffc12183          	lw	gp,-4(sp)
    5414:	ff812083          	lw	ra,-8(sp)
    5418:	e47fa06f          	j	25e <lhu_ret>

0000541c <simple>:
    541c:	00010f13          	mv	t5,sp
    5420:	fe312e23          	sw	gp,-4(sp)
    5424:	fe112c23          	sw	ra,-8(sp)
    5428:	8e818513          	addi	a0,gp,-1816 # 10204 <simple_data>
    542c:	10010637          	lui	a2,0x10010
    5430:	00460613          	addi	a2,a2,4 # 10010004 <_sp+0xfffed24>

00005434 <.prname_next>:
    5434:	00050583          	lb	a1,0(a0)
    5438:	00058663          	beqz	a1,5444 <.prname_done>
    543c:	c20c                	sw	a1,0(a2)
    543e:	0505                	addi	a0,a0,1
    5440:	ff5ff06f          	j	5434 <.prname_next>

00005444 <.prname_done>:
    5444:	02e00593          	li	a1,46
    5448:	c20c                	sw	a1,0(a2)
    544a:	c20c                	sw	a1,0(a2)
    544c:	10010537          	lui	a0,0x10010
    5450:	00450513          	addi	a0,a0,4 # 10010004 <_sp+0xfffed24>
    5454:	04f00593          	li	a1,79
    5458:	04b00613          	li	a2,75
    545c:	00a00693          	li	a3,10
    5460:	c10c                	sw	a1,0(a0)
    5462:	c110                	sw	a2,0(a0)
    5464:	c114                	sw	a3,0(a0)
    5466:	000f0113          	mv	sp,t5
    546a:	ffc12183          	lw	gp,-4(sp)
    546e:	ff812083          	lw	ra,-8(sp)
    5472:	e95fa06f          	j	306 <simple_ret>

00005476 <blt>:
    5476:	00010f13          	mv	t5,sp
    547a:	fe312e23          	sw	gp,-4(sp)
    547e:	fe112c23          	sw	ra,-8(sp)
    5482:	8f018513          	addi	a0,gp,-1808 # 1020c <blt_data>
    5486:	10010637          	lui	a2,0x10010
    548a:	00460613          	addi	a2,a2,4 # 10010004 <_sp+0xfffed24>

0000548e <.prname_next>:
    548e:	00050583          	lb	a1,0(a0)
    5492:	00058663          	beqz	a1,549e <.prname_done>
    5496:	c20c                	sw	a1,0(a2)
    5498:	0505                	addi	a0,a0,1
    549a:	ff5ff06f          	j	548e <.prname_next>

0000549e <.prname_done>:
    549e:	02e00593          	li	a1,46
    54a2:	c20c                	sw	a1,0(a2)
    54a4:	c20c                	sw	a1,0(a2)

000054a6 <test_2>:
    54a6:	4e09                	li	t3,2
    54a8:	4081                	li	ra,0
    54aa:	4105                	li	sp,1
    54ac:	0020c663          	blt	ra,sp,54b8 <test_2+0x12>
    54b0:	1dc01563          	bne	zero,t3,567a <fail>
    54b4:	01c01663          	bne	zero,t3,54c0 <test_3>
    54b8:	fe20cee3          	blt	ra,sp,54b4 <test_2+0xe>
    54bc:	1bc01f63          	bne	zero,t3,567a <fail>

000054c0 <test_3>:
    54c0:	4e0d                	li	t3,3
    54c2:	50fd                	li	ra,-1
    54c4:	4105                	li	sp,1
    54c6:	0020c663          	blt	ra,sp,54d2 <test_3+0x12>
    54ca:	1bc01863          	bne	zero,t3,567a <fail>
    54ce:	01c01663          	bne	zero,t3,54da <test_4>
    54d2:	fe20cee3          	blt	ra,sp,54ce <test_3+0xe>
    54d6:	1bc01263          	bne	zero,t3,567a <fail>

000054da <test_4>:
    54da:	4e11                	li	t3,4
    54dc:	50f9                	li	ra,-2
    54de:	517d                	li	sp,-1
    54e0:	0020c663          	blt	ra,sp,54ec <test_4+0x12>
    54e4:	19c01b63          	bne	zero,t3,567a <fail>
    54e8:	01c01663          	bne	zero,t3,54f4 <test_5>
    54ec:	fe20cee3          	blt	ra,sp,54e8 <test_4+0xe>
    54f0:	19c01563          	bne	zero,t3,567a <fail>

000054f4 <test_5>:
    54f4:	4e15                	li	t3,5
    54f6:	4085                	li	ra,1
    54f8:	4101                	li	sp,0
    54fa:	0020c463          	blt	ra,sp,5502 <test_5+0xe>
    54fe:	01c01463          	bne	zero,t3,5506 <test_5+0x12>
    5502:	17c01c63          	bne	zero,t3,567a <fail>
    5506:	fe20cee3          	blt	ra,sp,5502 <test_5+0xe>

0000550a <test_6>:
    550a:	4e19                	li	t3,6
    550c:	4085                	li	ra,1
    550e:	517d                	li	sp,-1
    5510:	0020c463          	blt	ra,sp,5518 <test_6+0xe>
    5514:	01c01463          	bne	zero,t3,551c <test_6+0x12>
    5518:	17c01163          	bne	zero,t3,567a <fail>
    551c:	fe20cee3          	blt	ra,sp,5518 <test_6+0xe>

00005520 <test_7>:
    5520:	4e1d                	li	t3,7
    5522:	50fd                	li	ra,-1
    5524:	5179                	li	sp,-2
    5526:	0020c463          	blt	ra,sp,552e <test_7+0xe>
    552a:	01c01463          	bne	zero,t3,5532 <test_7+0x12>
    552e:	15c01663          	bne	zero,t3,567a <fail>
    5532:	fe20cee3          	blt	ra,sp,552e <test_7+0xe>

00005536 <test_8>:
    5536:	4e21                	li	t3,8
    5538:	4085                	li	ra,1
    553a:	5179                	li	sp,-2
    553c:	0020c463          	blt	ra,sp,5544 <test_8+0xe>
    5540:	01c01463          	bne	zero,t3,5548 <test_8+0x12>
    5544:	13c01b63          	bne	zero,t3,567a <fail>
    5548:	fe20cee3          	blt	ra,sp,5544 <test_8+0xe>

0000554c <test_9>:
    554c:	4e25                	li	t3,9
    554e:	4201                	li	tp,0
    5550:	4081                	li	ra,0
    5552:	517d                	li	sp,-1
    5554:	1220c363          	blt	ra,sp,567a <fail>
    5558:	0205                	addi	tp,tp,1
    555a:	4289                	li	t0,2
    555c:	fe521ae3          	bne	tp,t0,5550 <test_9+0x4>

00005560 <test_10>:
    5560:	4e29                	li	t3,10
    5562:	4201                	li	tp,0
    5564:	4081                	li	ra,0
    5566:	517d                	li	sp,-1
    5568:	0001                	nop
    556a:	1020c863          	blt	ra,sp,567a <fail>
    556e:	0205                	addi	tp,tp,1
    5570:	4289                	li	t0,2
    5572:	fe5219e3          	bne	tp,t0,5564 <test_10+0x4>

00005576 <test_11>:
    5576:	4e2d                	li	t3,11
    5578:	4201                	li	tp,0
    557a:	4081                	li	ra,0
    557c:	517d                	li	sp,-1
    557e:	0001                	nop
    5580:	0001                	nop
    5582:	0e20cc63          	blt	ra,sp,567a <fail>
    5586:	0205                	addi	tp,tp,1
    5588:	4289                	li	t0,2
    558a:	fe5218e3          	bne	tp,t0,557a <test_11+0x4>

0000558e <test_12>:
    558e:	4e31                	li	t3,12
    5590:	4201                	li	tp,0
    5592:	4081                	li	ra,0
    5594:	0001                	nop
    5596:	517d                	li	sp,-1
    5598:	0e20c163          	blt	ra,sp,567a <fail>
    559c:	0205                	addi	tp,tp,1
    559e:	4289                	li	t0,2
    55a0:	fe5219e3          	bne	tp,t0,5592 <test_12+0x4>

000055a4 <test_13>:
    55a4:	4e35                	li	t3,13
    55a6:	4201                	li	tp,0
    55a8:	4081                	li	ra,0
    55aa:	0001                	nop
    55ac:	517d                	li	sp,-1
    55ae:	0001                	nop
    55b0:	0c20c563          	blt	ra,sp,567a <fail>
    55b4:	0205                	addi	tp,tp,1
    55b6:	4289                	li	t0,2
    55b8:	fe5218e3          	bne	tp,t0,55a8 <test_13+0x4>

000055bc <test_14>:
    55bc:	4e39                	li	t3,14
    55be:	4201                	li	tp,0
    55c0:	4081                	li	ra,0
    55c2:	0001                	nop
    55c4:	0001                	nop
    55c6:	517d                	li	sp,-1
    55c8:	0a20c963          	blt	ra,sp,567a <fail>
    55cc:	0205                	addi	tp,tp,1
    55ce:	4289                	li	t0,2
    55d0:	fe5218e3          	bne	tp,t0,55c0 <test_14+0x4>

000055d4 <test_15>:
    55d4:	4e3d                	li	t3,15
    55d6:	4201                	li	tp,0
    55d8:	4081                	li	ra,0
    55da:	517d                	li	sp,-1
    55dc:	0820cf63          	blt	ra,sp,567a <fail>
    55e0:	0205                	addi	tp,tp,1
    55e2:	4289                	li	t0,2
    55e4:	fe521ae3          	bne	tp,t0,55d8 <test_15+0x4>

000055e8 <test_16>:
    55e8:	4e41                	li	t3,16
    55ea:	4201                	li	tp,0
    55ec:	4081                	li	ra,0
    55ee:	517d                	li	sp,-1
    55f0:	0001                	nop
    55f2:	0820c463          	blt	ra,sp,567a <fail>
    55f6:	0205                	addi	tp,tp,1
    55f8:	4289                	li	t0,2
    55fa:	fe5219e3          	bne	tp,t0,55ec <test_16+0x4>

000055fe <test_17>:
    55fe:	4e45                	li	t3,17
    5600:	4201                	li	tp,0
    5602:	4081                	li	ra,0
    5604:	517d                	li	sp,-1
    5606:	0001                	nop
    5608:	0001                	nop
    560a:	0620c863          	blt	ra,sp,567a <fail>
    560e:	0205                	addi	tp,tp,1
    5610:	4289                	li	t0,2
    5612:	fe5218e3          	bne	tp,t0,5602 <test_17+0x4>

00005616 <test_18>:
    5616:	4e49                	li	t3,18
    5618:	4201                	li	tp,0
    561a:	4081                	li	ra,0
    561c:	0001                	nop
    561e:	517d                	li	sp,-1
    5620:	0420cd63          	blt	ra,sp,567a <fail>
    5624:	0205                	addi	tp,tp,1
    5626:	4289                	li	t0,2
    5628:	fe5219e3          	bne	tp,t0,561a <test_18+0x4>

0000562c <test_19>:
    562c:	4e4d                	li	t3,19
    562e:	4201                	li	tp,0
    5630:	4081                	li	ra,0
    5632:	0001                	nop
    5634:	517d                	li	sp,-1
    5636:	0001                	nop
    5638:	0420c163          	blt	ra,sp,567a <fail>
    563c:	0205                	addi	tp,tp,1
    563e:	4289                	li	t0,2
    5640:	fe5218e3          	bne	tp,t0,5630 <test_19+0x4>

00005644 <test_20>:
    5644:	4e51                	li	t3,20
    5646:	4201                	li	tp,0
    5648:	4081                	li	ra,0
    564a:	0001                	nop
    564c:	0001                	nop
    564e:	517d                	li	sp,-1
    5650:	0220c563          	blt	ra,sp,567a <fail>
    5654:	0205                	addi	tp,tp,1
    5656:	4289                	li	t0,2
    5658:	fe5218e3          	bne	tp,t0,5648 <test_20+0x4>

0000565c <test_21>:
    565c:	4085                	li	ra,1
    565e:	00104663          	bgtz	ra,566a <test_21+0xe>
    5662:	0085                	addi	ra,ra,1
    5664:	0085                	addi	ra,ra,1
    5666:	0085                	addi	ra,ra,1
    5668:	0085                	addi	ra,ra,1
    566a:	0085                	addi	ra,ra,1
    566c:	0085                	addi	ra,ra,1
    566e:	4e8d                	li	t4,3
    5670:	4e55                	li	t3,21
    5672:	01d09463          	bne	ra,t4,567a <fail>
    5676:	03c01563          	bne	zero,t3,56a0 <pass>

0000567a <fail>:
    567a:	10010537          	lui	a0,0x10010
    567e:	00450513          	addi	a0,a0,4 # 10010004 <_sp+0xfffed24>
    5682:	04500593          	li	a1,69
    5686:	05200613          	li	a2,82
    568a:	04f00693          	li	a3,79
    568e:	00a00713          	li	a4,10
    5692:	c10c                	sw	a1,0(a0)
    5694:	c110                	sw	a2,0(a0)
    5696:	c110                	sw	a2,0(a0)
    5698:	c114                	sw	a3,0(a0)
    569a:	c110                	sw	a2,0(a0)
    569c:	c118                	sw	a4,0(a0)
    569e:	9002                	ebreak

000056a0 <pass>:
    56a0:	10010537          	lui	a0,0x10010
    56a4:	00450513          	addi	a0,a0,4 # 10010004 <_sp+0xfffed24>
    56a8:	04f00593          	li	a1,79
    56ac:	04b00613          	li	a2,75
    56b0:	00a00693          	li	a3,10
    56b4:	c10c                	sw	a1,0(a0)
    56b6:	c110                	sw	a2,0(a0)
    56b8:	c114                	sw	a3,0(a0)
    56ba:	000f0113          	mv	sp,t5
    56be:	ffc12183          	lw	gp,-4(sp)
    56c2:	ff812083          	lw	ra,-8(sp)
    56c6:	b59fa06f          	j	21e <blt_ret>

000056ca <and>:
    56ca:	00010f13          	mv	t5,sp
    56ce:	fe312e23          	sw	gp,-4(sp)
    56d2:	fe112c23          	sw	ra,-8(sp)
    56d6:	8f418513          	addi	a0,gp,-1804 # 10210 <and_data>
    56da:	10010637          	lui	a2,0x10010
    56de:	00460613          	addi	a2,a2,4 # 10010004 <_sp+0xfffed24>

000056e2 <.prname_next>:
    56e2:	00050583          	lb	a1,0(a0)
    56e6:	00058663          	beqz	a1,56f2 <.prname_done>
    56ea:	c20c                	sw	a1,0(a2)
    56ec:	0505                	addi	a0,a0,1
    56ee:	ff5ff06f          	j	56e2 <.prname_next>

000056f2 <.prname_done>:
    56f2:	02e00593          	li	a1,46
    56f6:	c20c                	sw	a1,0(a2)
    56f8:	c20c                	sw	a1,0(a2)

000056fa <test_2>:
    56fa:	ff0100b7          	lui	ra,0xff010
    56fe:	f0008093          	addi	ra,ra,-256 # ff00ff00 <pulp__FC+0xff00ff01>
    5702:	0f0f1137          	lui	sp,0xf0f1
    5706:	f0f10113          	addi	sp,sp,-241 # f0f0f0f <_sp+0xf0dfc2f>
    570a:	0020f1b3          	and	gp,ra,sp
    570e:	0f001eb7          	lui	t4,0xf001
    5712:	f00e8e93          	addi	t4,t4,-256 # f000f00 <_sp+0xefefc20>
    5716:	4e09                	li	t3,2
    5718:	3dd19f63          	bne	gp,t4,5af6 <fail>

0000571c <test_3>:
    571c:	0ff010b7          	lui	ra,0xff01
    5720:	ff008093          	addi	ra,ra,-16 # ff00ff0 <_sp+0xfeefd10>
    5724:	f0f0f137          	lui	sp,0xf0f0f
    5728:	0f010113          	addi	sp,sp,240 # f0f0f0f0 <pulp__FC+0xf0f0f0f1>
    572c:	0020f1b3          	and	gp,ra,sp
    5730:	00f00eb7          	lui	t4,0xf00
    5734:	0f0e8e93          	addi	t4,t4,240 # f000f0 <_sp+0xeeee10>
    5738:	4e0d                	li	t3,3
    573a:	3bd19e63          	bne	gp,t4,5af6 <fail>

0000573e <test_4>:
    573e:	00ff00b7          	lui	ra,0xff0
    5742:	0ff08093          	addi	ra,ra,255 # ff00ff <_sp+0xfdee1f>
    5746:	0f0f1137          	lui	sp,0xf0f1
    574a:	f0f10113          	addi	sp,sp,-241 # f0f0f0f <_sp+0xf0dfc2f>
    574e:	0020f1b3          	and	gp,ra,sp
    5752:	000f0eb7          	lui	t4,0xf0
    5756:	00fe8e93          	addi	t4,t4,15 # f000f <_sp+0xded2f>
    575a:	4e11                	li	t3,4
    575c:	39d19d63          	bne	gp,t4,5af6 <fail>

00005760 <test_5>:
    5760:	f00ff0b7          	lui	ra,0xf00ff
    5764:	00f08093          	addi	ra,ra,15 # f00ff00f <pulp__FC+0xf00ff010>
    5768:	f0f0f137          	lui	sp,0xf0f0f
    576c:	0f010113          	addi	sp,sp,240 # f0f0f0f0 <pulp__FC+0xf0f0f0f1>
    5770:	0020f1b3          	and	gp,ra,sp
    5774:	f000feb7          	lui	t4,0xf000f
    5778:	4e15                	li	t3,5
    577a:	37d19e63          	bne	gp,t4,5af6 <fail>

0000577e <test_6>:
    577e:	ff0100b7          	lui	ra,0xff010
    5782:	f0008093          	addi	ra,ra,-256 # ff00ff00 <pulp__FC+0xff00ff01>
    5786:	0f0f1137          	lui	sp,0xf0f1
    578a:	f0f10113          	addi	sp,sp,-241 # f0f0f0f <_sp+0xf0dfc2f>
    578e:	0020f0b3          	and	ra,ra,sp
    5792:	0f001eb7          	lui	t4,0xf001
    5796:	f00e8e93          	addi	t4,t4,-256 # f000f00 <_sp+0xefefc20>
    579a:	4e19                	li	t3,6
    579c:	35d09d63          	bne	ra,t4,5af6 <fail>

000057a0 <test_7>:
    57a0:	0ff010b7          	lui	ra,0xff01
    57a4:	ff008093          	addi	ra,ra,-16 # ff00ff0 <_sp+0xfeefd10>
    57a8:	f0f0f137          	lui	sp,0xf0f0f
    57ac:	0f010113          	addi	sp,sp,240 # f0f0f0f0 <pulp__FC+0xf0f0f0f1>
    57b0:	0020f133          	and	sp,ra,sp
    57b4:	00f00eb7          	lui	t4,0xf00
    57b8:	0f0e8e93          	addi	t4,t4,240 # f000f0 <_sp+0xeeee10>
    57bc:	4e1d                	li	t3,7
    57be:	33d11c63          	bne	sp,t4,5af6 <fail>

000057c2 <test_8>:
    57c2:	ff0100b7          	lui	ra,0xff010
    57c6:	f0008093          	addi	ra,ra,-256 # ff00ff00 <pulp__FC+0xff00ff01>
    57ca:	0010f0b3          	and	ra,ra,ra
    57ce:	ff010eb7          	lui	t4,0xff010
    57d2:	f00e8e93          	addi	t4,t4,-256 # ff00ff00 <pulp__FC+0xff00ff01>
    57d6:	4e21                	li	t3,8
    57d8:	31d09f63          	bne	ra,t4,5af6 <fail>

000057dc <test_9>:
    57dc:	4201                	li	tp,0
    57de:	ff0100b7          	lui	ra,0xff010
    57e2:	f0008093          	addi	ra,ra,-256 # ff00ff00 <pulp__FC+0xff00ff01>
    57e6:	0f0f1137          	lui	sp,0xf0f1
    57ea:	f0f10113          	addi	sp,sp,-241 # f0f0f0f <_sp+0xf0dfc2f>
    57ee:	0020f1b3          	and	gp,ra,sp
    57f2:	00018313          	mv	t1,gp
    57f6:	0205                	addi	tp,tp,1
    57f8:	4289                	li	t0,2
    57fa:	fe5212e3          	bne	tp,t0,57de <test_9+0x2>
    57fe:	0f001eb7          	lui	t4,0xf001
    5802:	f00e8e93          	addi	t4,t4,-256 # f000f00 <_sp+0xefefc20>
    5806:	4e25                	li	t3,9
    5808:	2fd31763          	bne	t1,t4,5af6 <fail>

0000580c <test_10>:
    580c:	4201                	li	tp,0
    580e:	0ff010b7          	lui	ra,0xff01
    5812:	ff008093          	addi	ra,ra,-16 # ff00ff0 <_sp+0xfeefd10>
    5816:	f0f0f137          	lui	sp,0xf0f0f
    581a:	0f010113          	addi	sp,sp,240 # f0f0f0f0 <pulp__FC+0xf0f0f0f1>
    581e:	0020f1b3          	and	gp,ra,sp
    5822:	0001                	nop
    5824:	00018313          	mv	t1,gp
    5828:	0205                	addi	tp,tp,1
    582a:	4289                	li	t0,2
    582c:	fe5211e3          	bne	tp,t0,580e <test_10+0x2>
    5830:	00f00eb7          	lui	t4,0xf00
    5834:	0f0e8e93          	addi	t4,t4,240 # f000f0 <_sp+0xeeee10>
    5838:	4e29                	li	t3,10
    583a:	2bd31e63          	bne	t1,t4,5af6 <fail>

0000583e <test_11>:
    583e:	4201                	li	tp,0
    5840:	00ff00b7          	lui	ra,0xff0
    5844:	0ff08093          	addi	ra,ra,255 # ff00ff <_sp+0xfdee1f>
    5848:	0f0f1137          	lui	sp,0xf0f1
    584c:	f0f10113          	addi	sp,sp,-241 # f0f0f0f <_sp+0xf0dfc2f>
    5850:	0020f1b3          	and	gp,ra,sp
    5854:	0001                	nop
    5856:	0001                	nop
    5858:	00018313          	mv	t1,gp
    585c:	0205                	addi	tp,tp,1
    585e:	4289                	li	t0,2
    5860:	fe5210e3          	bne	tp,t0,5840 <test_11+0x2>
    5864:	000f0eb7          	lui	t4,0xf0
    5868:	00fe8e93          	addi	t4,t4,15 # f000f <_sp+0xded2f>
    586c:	4e2d                	li	t3,11
    586e:	29d31463          	bne	t1,t4,5af6 <fail>

00005872 <test_12>:
    5872:	4201                	li	tp,0
    5874:	ff0100b7          	lui	ra,0xff010
    5878:	f0008093          	addi	ra,ra,-256 # ff00ff00 <pulp__FC+0xff00ff01>
    587c:	0f0f1137          	lui	sp,0xf0f1
    5880:	f0f10113          	addi	sp,sp,-241 # f0f0f0f <_sp+0xf0dfc2f>
    5884:	0020f1b3          	and	gp,ra,sp
    5888:	0205                	addi	tp,tp,1
    588a:	4289                	li	t0,2
    588c:	fe5214e3          	bne	tp,t0,5874 <test_12+0x2>
    5890:	0f001eb7          	lui	t4,0xf001
    5894:	f00e8e93          	addi	t4,t4,-256 # f000f00 <_sp+0xefefc20>
    5898:	4e31                	li	t3,12
    589a:	25d19e63          	bne	gp,t4,5af6 <fail>

0000589e <test_13>:
    589e:	4201                	li	tp,0
    58a0:	0ff010b7          	lui	ra,0xff01
    58a4:	ff008093          	addi	ra,ra,-16 # ff00ff0 <_sp+0xfeefd10>
    58a8:	f0f0f137          	lui	sp,0xf0f0f
    58ac:	0f010113          	addi	sp,sp,240 # f0f0f0f0 <pulp__FC+0xf0f0f0f1>
    58b0:	0001                	nop
    58b2:	0020f1b3          	and	gp,ra,sp
    58b6:	0205                	addi	tp,tp,1
    58b8:	4289                	li	t0,2
    58ba:	fe5213e3          	bne	tp,t0,58a0 <test_13+0x2>
    58be:	00f00eb7          	lui	t4,0xf00
    58c2:	0f0e8e93          	addi	t4,t4,240 # f000f0 <_sp+0xeeee10>
    58c6:	4e35                	li	t3,13
    58c8:	23d19763          	bne	gp,t4,5af6 <fail>

000058cc <test_14>:
    58cc:	4201                	li	tp,0
    58ce:	00ff00b7          	lui	ra,0xff0
    58d2:	0ff08093          	addi	ra,ra,255 # ff00ff <_sp+0xfdee1f>
    58d6:	0f0f1137          	lui	sp,0xf0f1
    58da:	f0f10113          	addi	sp,sp,-241 # f0f0f0f <_sp+0xf0dfc2f>
    58de:	0001                	nop
    58e0:	0001                	nop
    58e2:	0020f1b3          	and	gp,ra,sp
    58e6:	0205                	addi	tp,tp,1
    58e8:	4289                	li	t0,2
    58ea:	fe5212e3          	bne	tp,t0,58ce <test_14+0x2>
    58ee:	000f0eb7          	lui	t4,0xf0
    58f2:	00fe8e93          	addi	t4,t4,15 # f000f <_sp+0xded2f>
    58f6:	4e39                	li	t3,14
    58f8:	1fd19f63          	bne	gp,t4,5af6 <fail>

000058fc <test_15>:
    58fc:	4201                	li	tp,0
    58fe:	ff0100b7          	lui	ra,0xff010
    5902:	f0008093          	addi	ra,ra,-256 # ff00ff00 <pulp__FC+0xff00ff01>
    5906:	0001                	nop
    5908:	0f0f1137          	lui	sp,0xf0f1
    590c:	f0f10113          	addi	sp,sp,-241 # f0f0f0f <_sp+0xf0dfc2f>
    5910:	0020f1b3          	and	gp,ra,sp
    5914:	0205                	addi	tp,tp,1
    5916:	4289                	li	t0,2
    5918:	fe5213e3          	bne	tp,t0,58fe <test_15+0x2>
    591c:	0f001eb7          	lui	t4,0xf001
    5920:	f00e8e93          	addi	t4,t4,-256 # f000f00 <_sp+0xefefc20>
    5924:	4e3d                	li	t3,15
    5926:	1dd19863          	bne	gp,t4,5af6 <fail>

0000592a <test_16>:
    592a:	4201                	li	tp,0
    592c:	0ff010b7          	lui	ra,0xff01
    5930:	ff008093          	addi	ra,ra,-16 # ff00ff0 <_sp+0xfeefd10>
    5934:	0001                	nop
    5936:	f0f0f137          	lui	sp,0xf0f0f
    593a:	0f010113          	addi	sp,sp,240 # f0f0f0f0 <pulp__FC+0xf0f0f0f1>
    593e:	0001                	nop
    5940:	0020f1b3          	and	gp,ra,sp
    5944:	0205                	addi	tp,tp,1
    5946:	4289                	li	t0,2
    5948:	fe5212e3          	bne	tp,t0,592c <test_16+0x2>
    594c:	00f00eb7          	lui	t4,0xf00
    5950:	0f0e8e93          	addi	t4,t4,240 # f000f0 <_sp+0xeeee10>
    5954:	4e41                	li	t3,16
    5956:	1bd19063          	bne	gp,t4,5af6 <fail>

0000595a <test_17>:
    595a:	4201                	li	tp,0
    595c:	00ff00b7          	lui	ra,0xff0
    5960:	0ff08093          	addi	ra,ra,255 # ff00ff <_sp+0xfdee1f>
    5964:	0001                	nop
    5966:	0001                	nop
    5968:	0f0f1137          	lui	sp,0xf0f1
    596c:	f0f10113          	addi	sp,sp,-241 # f0f0f0f <_sp+0xf0dfc2f>
    5970:	0020f1b3          	and	gp,ra,sp
    5974:	0205                	addi	tp,tp,1
    5976:	4289                	li	t0,2
    5978:	fe5212e3          	bne	tp,t0,595c <test_17+0x2>
    597c:	000f0eb7          	lui	t4,0xf0
    5980:	00fe8e93          	addi	t4,t4,15 # f000f <_sp+0xded2f>
    5984:	4e45                	li	t3,17
    5986:	17d19863          	bne	gp,t4,5af6 <fail>

0000598a <test_18>:
    598a:	4201                	li	tp,0
    598c:	0f0f1137          	lui	sp,0xf0f1
    5990:	f0f10113          	addi	sp,sp,-241 # f0f0f0f <_sp+0xf0dfc2f>
    5994:	ff0100b7          	lui	ra,0xff010
    5998:	f0008093          	addi	ra,ra,-256 # ff00ff00 <pulp__FC+0xff00ff01>
    599c:	0020f1b3          	and	gp,ra,sp
    59a0:	0205                	addi	tp,tp,1
    59a2:	4289                	li	t0,2
    59a4:	fe5214e3          	bne	tp,t0,598c <test_18+0x2>
    59a8:	0f001eb7          	lui	t4,0xf001
    59ac:	f00e8e93          	addi	t4,t4,-256 # f000f00 <_sp+0xefefc20>
    59b0:	4e49                	li	t3,18
    59b2:	15d19263          	bne	gp,t4,5af6 <fail>

000059b6 <test_19>:
    59b6:	4201                	li	tp,0
    59b8:	f0f0f137          	lui	sp,0xf0f0f
    59bc:	0f010113          	addi	sp,sp,240 # f0f0f0f0 <pulp__FC+0xf0f0f0f1>
    59c0:	0ff010b7          	lui	ra,0xff01
    59c4:	ff008093          	addi	ra,ra,-16 # ff00ff0 <_sp+0xfeefd10>
    59c8:	0001                	nop
    59ca:	0020f1b3          	and	gp,ra,sp
    59ce:	0205                	addi	tp,tp,1
    59d0:	4289                	li	t0,2
    59d2:	fe5213e3          	bne	tp,t0,59b8 <test_19+0x2>
    59d6:	00f00eb7          	lui	t4,0xf00
    59da:	0f0e8e93          	addi	t4,t4,240 # f000f0 <_sp+0xeeee10>
    59de:	4e4d                	li	t3,19
    59e0:	11d19b63          	bne	gp,t4,5af6 <fail>

000059e4 <test_20>:
    59e4:	4201                	li	tp,0
    59e6:	0f0f1137          	lui	sp,0xf0f1
    59ea:	f0f10113          	addi	sp,sp,-241 # f0f0f0f <_sp+0xf0dfc2f>
    59ee:	00ff00b7          	lui	ra,0xff0
    59f2:	0ff08093          	addi	ra,ra,255 # ff00ff <_sp+0xfdee1f>
    59f6:	0001                	nop
    59f8:	0001                	nop
    59fa:	0020f1b3          	and	gp,ra,sp
    59fe:	0205                	addi	tp,tp,1
    5a00:	4289                	li	t0,2
    5a02:	fe5212e3          	bne	tp,t0,59e6 <test_20+0x2>
    5a06:	000f0eb7          	lui	t4,0xf0
    5a0a:	00fe8e93          	addi	t4,t4,15 # f000f <_sp+0xded2f>
    5a0e:	4e51                	li	t3,20
    5a10:	0fd19363          	bne	gp,t4,5af6 <fail>

00005a14 <test_21>:
    5a14:	4201                	li	tp,0
    5a16:	0f0f1137          	lui	sp,0xf0f1
    5a1a:	f0f10113          	addi	sp,sp,-241 # f0f0f0f <_sp+0xf0dfc2f>
    5a1e:	0001                	nop
    5a20:	ff0100b7          	lui	ra,0xff010
    5a24:	f0008093          	addi	ra,ra,-256 # ff00ff00 <pulp__FC+0xff00ff01>
    5a28:	0020f1b3          	and	gp,ra,sp
    5a2c:	0205                	addi	tp,tp,1
    5a2e:	4289                	li	t0,2
    5a30:	fe5213e3          	bne	tp,t0,5a16 <test_21+0x2>
    5a34:	0f001eb7          	lui	t4,0xf001
    5a38:	f00e8e93          	addi	t4,t4,-256 # f000f00 <_sp+0xefefc20>
    5a3c:	4e55                	li	t3,21
    5a3e:	0bd19c63          	bne	gp,t4,5af6 <fail>

00005a42 <test_22>:
    5a42:	4201                	li	tp,0
    5a44:	f0f0f137          	lui	sp,0xf0f0f
    5a48:	0f010113          	addi	sp,sp,240 # f0f0f0f0 <pulp__FC+0xf0f0f0f1>
    5a4c:	0001                	nop
    5a4e:	0ff010b7          	lui	ra,0xff01
    5a52:	ff008093          	addi	ra,ra,-16 # ff00ff0 <_sp+0xfeefd10>
    5a56:	0001                	nop
    5a58:	0020f1b3          	and	gp,ra,sp
    5a5c:	0205                	addi	tp,tp,1
    5a5e:	4289                	li	t0,2
    5a60:	fe5212e3          	bne	tp,t0,5a44 <test_22+0x2>
    5a64:	00f00eb7          	lui	t4,0xf00
    5a68:	0f0e8e93          	addi	t4,t4,240 # f000f0 <_sp+0xeeee10>
    5a6c:	4e59                	li	t3,22
    5a6e:	09d19463          	bne	gp,t4,5af6 <fail>

00005a72 <test_23>:
    5a72:	4201                	li	tp,0
    5a74:	0f0f1137          	lui	sp,0xf0f1
    5a78:	f0f10113          	addi	sp,sp,-241 # f0f0f0f <_sp+0xf0dfc2f>
    5a7c:	0001                	nop
    5a7e:	0001                	nop
    5a80:	00ff00b7          	lui	ra,0xff0
    5a84:	0ff08093          	addi	ra,ra,255 # ff00ff <_sp+0xfdee1f>
    5a88:	0020f1b3          	and	gp,ra,sp
    5a8c:	0205                	addi	tp,tp,1
    5a8e:	4289                	li	t0,2
    5a90:	fe5212e3          	bne	tp,t0,5a74 <test_23+0x2>
    5a94:	000f0eb7          	lui	t4,0xf0
    5a98:	00fe8e93          	addi	t4,t4,15 # f000f <_sp+0xded2f>
    5a9c:	4e5d                	li	t3,23
    5a9e:	05d19c63          	bne	gp,t4,5af6 <fail>

00005aa2 <test_24>:
    5aa2:	ff0100b7          	lui	ra,0xff010
    5aa6:	f0008093          	addi	ra,ra,-256 # ff00ff00 <pulp__FC+0xff00ff01>
    5aaa:	00107133          	and	sp,zero,ra
    5aae:	4e81                	li	t4,0
    5ab0:	4e61                	li	t3,24
    5ab2:	05d11263          	bne	sp,t4,5af6 <fail>

00005ab6 <test_25>:
    5ab6:	00ff00b7          	lui	ra,0xff0
    5aba:	0ff08093          	addi	ra,ra,255 # ff00ff <_sp+0xfdee1f>
    5abe:	0000f133          	and	sp,ra,zero
    5ac2:	4e81                	li	t4,0
    5ac4:	4e65                	li	t3,25
    5ac6:	03d11863          	bne	sp,t4,5af6 <fail>

00005aca <test_26>:
    5aca:	000070b3          	and	ra,zero,zero
    5ace:	4e81                	li	t4,0
    5ad0:	4e69                	li	t3,26
    5ad2:	03d09263          	bne	ra,t4,5af6 <fail>

00005ad6 <test_27>:
    5ad6:	111110b7          	lui	ra,0x11111
    5ada:	11108093          	addi	ra,ra,273 # 11111111 <_sp+0x110ffe31>
    5ade:	22222137          	lui	sp,0x22222
    5ae2:	22210113          	addi	sp,sp,546 # 22222222 <_sp+0x22210f42>
    5ae6:	0020f033          	and	zero,ra,sp
    5aea:	4e81                	li	t4,0
    5aec:	4e6d                	li	t3,27
    5aee:	01d01463          	bne	zero,t4,5af6 <fail>
    5af2:	03c01563          	bne	zero,t3,5b1c <pass>

00005af6 <fail>:
    5af6:	10010537          	lui	a0,0x10010
    5afa:	00450513          	addi	a0,a0,4 # 10010004 <_sp+0xfffed24>
    5afe:	04500593          	li	a1,69
    5b02:	05200613          	li	a2,82
    5b06:	04f00693          	li	a3,79
    5b0a:	00a00713          	li	a4,10
    5b0e:	c10c                	sw	a1,0(a0)
    5b10:	c110                	sw	a2,0(a0)
    5b12:	c110                	sw	a2,0(a0)
    5b14:	c114                	sw	a3,0(a0)
    5b16:	c110                	sw	a2,0(a0)
    5b18:	c118                	sw	a4,0(a0)
    5b1a:	9002                	ebreak

00005b1c <pass>:
    5b1c:	10010537          	lui	a0,0x10010
    5b20:	00450513          	addi	a0,a0,4 # 10010004 <_sp+0xfffed24>
    5b24:	04f00593          	li	a1,79
    5b28:	04b00613          	li	a2,75
    5b2c:	00a00693          	li	a3,10
    5b30:	c10c                	sw	a1,0(a0)
    5b32:	c110                	sw	a2,0(a0)
    5b34:	c114                	sw	a3,0(a0)
    5b36:	000f0113          	mv	sp,t5
    5b3a:	ffc12183          	lw	gp,-4(sp)
    5b3e:	ff812083          	lw	ra,-8(sp)
    5b42:	fbcfa06f          	j	2fe <and_ret>

00005b46 <ori>:
    5b46:	00010f13          	mv	t5,sp
    5b4a:	fe312e23          	sw	gp,-4(sp)
    5b4e:	fe112c23          	sw	ra,-8(sp)
    5b52:	8f818513          	addi	a0,gp,-1800 # 10214 <ori_data>
    5b56:	10010637          	lui	a2,0x10010
    5b5a:	00460613          	addi	a2,a2,4 # 10010004 <_sp+0xfffed24>

00005b5e <.prname_next>:
    5b5e:	00050583          	lb	a1,0(a0)
    5b62:	00058663          	beqz	a1,5b6e <.prname_done>
    5b66:	c20c                	sw	a1,0(a2)
    5b68:	0505                	addi	a0,a0,1
    5b6a:	ff5ff06f          	j	5b5e <.prname_next>

00005b6e <.prname_done>:
    5b6e:	02e00593          	li	a1,46
    5b72:	c20c                	sw	a1,0(a2)
    5b74:	c20c                	sw	a1,0(a2)

00005b76 <test_2>:
    5b76:	ff0100b7          	lui	ra,0xff010
    5b7a:	f0008093          	addi	ra,ra,-256 # ff00ff00 <pulp__FC+0xff00ff01>
    5b7e:	f0f0e193          	ori	gp,ra,-241
    5b82:	f0f00e93          	li	t4,-241
    5b86:	4e09                	li	t3,2
    5b88:	17d19f63          	bne	gp,t4,5d06 <fail>

00005b8c <test_3>:
    5b8c:	0ff010b7          	lui	ra,0xff01
    5b90:	ff008093          	addi	ra,ra,-16 # ff00ff0 <_sp+0xfeefd10>
    5b94:	0f00e193          	ori	gp,ra,240
    5b98:	0ff01eb7          	lui	t4,0xff01
    5b9c:	ff0e8e93          	addi	t4,t4,-16 # ff00ff0 <_sp+0xfeefd10>
    5ba0:	4e0d                	li	t3,3
    5ba2:	17d19263          	bne	gp,t4,5d06 <fail>

00005ba6 <test_4>:
    5ba6:	00ff00b7          	lui	ra,0xff0
    5baa:	0ff08093          	addi	ra,ra,255 # ff00ff <_sp+0xfdee1f>
    5bae:	70f0e193          	ori	gp,ra,1807
    5bb2:	00ff0eb7          	lui	t4,0xff0
    5bb6:	7ffe8e93          	addi	t4,t4,2047 # ff07ff <_sp+0xfdf51f>
    5bba:	4e11                	li	t3,4
    5bbc:	15d19563          	bne	gp,t4,5d06 <fail>

00005bc0 <test_5>:
    5bc0:	f00ff0b7          	lui	ra,0xf00ff
    5bc4:	00f08093          	addi	ra,ra,15 # f00ff00f <pulp__FC+0xf00ff010>
    5bc8:	0f00e193          	ori	gp,ra,240
    5bcc:	f00ffeb7          	lui	t4,0xf00ff
    5bd0:	0ffe8e93          	addi	t4,t4,255 # f00ff0ff <pulp__FC+0xf00ff100>
    5bd4:	4e15                	li	t3,5
    5bd6:	13d19863          	bne	gp,t4,5d06 <fail>

00005bda <test_6>:
    5bda:	ff0100b7          	lui	ra,0xff010
    5bde:	f0008093          	addi	ra,ra,-256 # ff00ff00 <pulp__FC+0xff00ff01>
    5be2:	0f00e093          	ori	ra,ra,240
    5be6:	ff010eb7          	lui	t4,0xff010
    5bea:	ff0e8e93          	addi	t4,t4,-16 # ff00fff0 <pulp__FC+0xff00fff1>
    5bee:	4e19                	li	t3,6
    5bf0:	11d09b63          	bne	ra,t4,5d06 <fail>

00005bf4 <test_7>:
    5bf4:	4201                	li	tp,0
    5bf6:	0ff010b7          	lui	ra,0xff01
    5bfa:	ff008093          	addi	ra,ra,-16 # ff00ff0 <_sp+0xfeefd10>
    5bfe:	0f00e193          	ori	gp,ra,240
    5c02:	00018313          	mv	t1,gp
    5c06:	0205                	addi	tp,tp,1
    5c08:	4289                	li	t0,2
    5c0a:	fe5216e3          	bne	tp,t0,5bf6 <test_7+0x2>
    5c0e:	0ff01eb7          	lui	t4,0xff01
    5c12:	ff0e8e93          	addi	t4,t4,-16 # ff00ff0 <_sp+0xfeefd10>
    5c16:	4e1d                	li	t3,7
    5c18:	0fd31763          	bne	t1,t4,5d06 <fail>

00005c1c <test_8>:
    5c1c:	4201                	li	tp,0
    5c1e:	00ff00b7          	lui	ra,0xff0
    5c22:	0ff08093          	addi	ra,ra,255 # ff00ff <_sp+0xfdee1f>
    5c26:	70f0e193          	ori	gp,ra,1807
    5c2a:	0001                	nop
    5c2c:	00018313          	mv	t1,gp
    5c30:	0205                	addi	tp,tp,1
    5c32:	4289                	li	t0,2
    5c34:	fe5215e3          	bne	tp,t0,5c1e <test_8+0x2>
    5c38:	00ff0eb7          	lui	t4,0xff0
    5c3c:	7ffe8e93          	addi	t4,t4,2047 # ff07ff <_sp+0xfdf51f>
    5c40:	4e21                	li	t3,8
    5c42:	0dd31263          	bne	t1,t4,5d06 <fail>

00005c46 <test_9>:
    5c46:	4201                	li	tp,0
    5c48:	f00ff0b7          	lui	ra,0xf00ff
    5c4c:	00f08093          	addi	ra,ra,15 # f00ff00f <pulp__FC+0xf00ff010>
    5c50:	0f00e193          	ori	gp,ra,240
    5c54:	0001                	nop
    5c56:	0001                	nop
    5c58:	00018313          	mv	t1,gp
    5c5c:	0205                	addi	tp,tp,1
    5c5e:	4289                	li	t0,2
    5c60:	fe5214e3          	bne	tp,t0,5c48 <test_9+0x2>
    5c64:	f00ffeb7          	lui	t4,0xf00ff
    5c68:	0ffe8e93          	addi	t4,t4,255 # f00ff0ff <pulp__FC+0xf00ff100>
    5c6c:	4e25                	li	t3,9
    5c6e:	09d31c63          	bne	t1,t4,5d06 <fail>

00005c72 <test_10>:
    5c72:	4201                	li	tp,0
    5c74:	0ff010b7          	lui	ra,0xff01
    5c78:	ff008093          	addi	ra,ra,-16 # ff00ff0 <_sp+0xfeefd10>
    5c7c:	0f00e193          	ori	gp,ra,240
    5c80:	0205                	addi	tp,tp,1
    5c82:	4289                	li	t0,2
    5c84:	fe5218e3          	bne	tp,t0,5c74 <test_10+0x2>
    5c88:	0ff01eb7          	lui	t4,0xff01
    5c8c:	ff0e8e93          	addi	t4,t4,-16 # ff00ff0 <_sp+0xfeefd10>
    5c90:	4e29                	li	t3,10
    5c92:	07d19a63          	bne	gp,t4,5d06 <fail>

00005c96 <test_11>:
    5c96:	4201                	li	tp,0
    5c98:	00ff00b7          	lui	ra,0xff0
    5c9c:	0ff08093          	addi	ra,ra,255 # ff00ff <_sp+0xfdee1f>
    5ca0:	0001                	nop
    5ca2:	f0f0e193          	ori	gp,ra,-241
    5ca6:	0205                	addi	tp,tp,1
    5ca8:	4289                	li	t0,2
    5caa:	fe5217e3          	bne	tp,t0,5c98 <test_11+0x2>
    5cae:	fff00e93          	li	t4,-1
    5cb2:	4e2d                	li	t3,11
    5cb4:	05d19963          	bne	gp,t4,5d06 <fail>

00005cb8 <test_12>:
    5cb8:	4201                	li	tp,0
    5cba:	f00ff0b7          	lui	ra,0xf00ff
    5cbe:	00f08093          	addi	ra,ra,15 # f00ff00f <pulp__FC+0xf00ff010>
    5cc2:	0001                	nop
    5cc4:	0001                	nop
    5cc6:	0f00e193          	ori	gp,ra,240
    5cca:	0205                	addi	tp,tp,1
    5ccc:	4289                	li	t0,2
    5cce:	fe5216e3          	bne	tp,t0,5cba <test_12+0x2>
    5cd2:	f00ffeb7          	lui	t4,0xf00ff
    5cd6:	0ffe8e93          	addi	t4,t4,255 # f00ff0ff <pulp__FC+0xf00ff100>
    5cda:	4e31                	li	t3,12
    5cdc:	03d19563          	bne	gp,t4,5d06 <fail>

00005ce0 <test_13>:
    5ce0:	0f006093          	ori	ra,zero,240
    5ce4:	0f000e93          	li	t4,240
    5ce8:	4e35                	li	t3,13
    5cea:	01d09e63          	bne	ra,t4,5d06 <fail>

00005cee <test_14>:
    5cee:	00ff00b7          	lui	ra,0xff0
    5cf2:	0ff08093          	addi	ra,ra,255 # ff00ff <_sp+0xfdee1f>
    5cf6:	70f0e013          	ori	zero,ra,1807
    5cfa:	4e81                	li	t4,0
    5cfc:	4e39                	li	t3,14
    5cfe:	01d01463          	bne	zero,t4,5d06 <fail>
    5d02:	03c01563          	bne	zero,t3,5d2c <pass>

00005d06 <fail>:
    5d06:	10010537          	lui	a0,0x10010
    5d0a:	00450513          	addi	a0,a0,4 # 10010004 <_sp+0xfffed24>
    5d0e:	04500593          	li	a1,69
    5d12:	05200613          	li	a2,82
    5d16:	04f00693          	li	a3,79
    5d1a:	00a00713          	li	a4,10
    5d1e:	c10c                	sw	a1,0(a0)
    5d20:	c110                	sw	a2,0(a0)
    5d22:	c110                	sw	a2,0(a0)
    5d24:	c114                	sw	a3,0(a0)
    5d26:	c110                	sw	a2,0(a0)
    5d28:	c118                	sw	a4,0(a0)
    5d2a:	9002                	ebreak

00005d2c <pass>:
    5d2c:	10010537          	lui	a0,0x10010
    5d30:	00450513          	addi	a0,a0,4 # 10010004 <_sp+0xfffed24>
    5d34:	04f00593          	li	a1,79
    5d38:	04b00613          	li	a2,75
    5d3c:	00a00693          	li	a3,10
    5d40:	c10c                	sw	a1,0(a0)
    5d42:	c110                	sw	a2,0(a0)
    5d44:	c114                	sw	a3,0(a0)
    5d46:	000f0113          	mv	sp,t5
    5d4a:	ffc12183          	lw	gp,-4(sp)
    5d4e:	ff812083          	lw	ra,-8(sp)
    5d52:	d44fa06f          	j	296 <ori_ret>

00005d56 <lui>:
    5d56:	00010f13          	mv	t5,sp
    5d5a:	fe312e23          	sw	gp,-4(sp)
    5d5e:	fe112c23          	sw	ra,-8(sp)
    5d62:	8fc18513          	addi	a0,gp,-1796 # 10218 <lui_data>
    5d66:	10010637          	lui	a2,0x10010
    5d6a:	00460613          	addi	a2,a2,4 # 10010004 <_sp+0xfffed24>

00005d6e <.prname_next>:
    5d6e:	00050583          	lb	a1,0(a0)
    5d72:	00058663          	beqz	a1,5d7e <.prname_done>
    5d76:	c20c                	sw	a1,0(a2)
    5d78:	0505                	addi	a0,a0,1
    5d7a:	ff5ff06f          	j	5d6e <.prname_next>

00005d7e <.prname_done>:
    5d7e:	02e00593          	li	a1,46
    5d82:	c20c                	sw	a1,0(a2)
    5d84:	c20c                	sw	a1,0(a2)

00005d86 <test_2>:
    5d86:	000000b7          	lui	ra,0x0
    5d8a:	4e81                	li	t4,0
    5d8c:	4e09                	li	t3,2
    5d8e:	05d09463          	bne	ra,t4,5dd6 <fail>

00005d92 <test_3>:
    5d92:	70fd                	lui	ra,0xfffff
    5d94:	4010d093          	srai	ra,ra,0x1
    5d98:	80000e93          	li	t4,-2048
    5d9c:	4e0d                	li	t3,3
    5d9e:	03d09c63          	bne	ra,t4,5dd6 <fail>

00005da2 <test_4>:
    5da2:	7ffff0b7          	lui	ra,0x7ffff
    5da6:	4140d093          	srai	ra,ra,0x14
    5daa:	7ff00e93          	li	t4,2047
    5dae:	4e11                	li	t3,4
    5db0:	03d09363          	bne	ra,t4,5dd6 <fail>

00005db4 <test_5>:
    5db4:	800000b7          	lui	ra,0x80000
    5db8:	4140d093          	srai	ra,ra,0x14
    5dbc:	80000e93          	li	t4,-2048
    5dc0:	4e15                	li	t3,5
    5dc2:	01d09a63          	bne	ra,t4,5dd6 <fail>

00005dc6 <test_6>:
    5dc6:	80000037          	lui	zero,0x80000
    5dca:	4e81                	li	t4,0
    5dcc:	4e19                	li	t3,6
    5dce:	01d01463          	bne	zero,t4,5dd6 <fail>
    5dd2:	03c01563          	bne	zero,t3,5dfc <pass>

00005dd6 <fail>:
    5dd6:	10010537          	lui	a0,0x10010
    5dda:	00450513          	addi	a0,a0,4 # 10010004 <_sp+0xfffed24>
    5dde:	04500593          	li	a1,69
    5de2:	05200613          	li	a2,82
    5de6:	04f00693          	li	a3,79
    5dea:	00a00713          	li	a4,10
    5dee:	c10c                	sw	a1,0(a0)
    5df0:	c110                	sw	a2,0(a0)
    5df2:	c110                	sw	a2,0(a0)
    5df4:	c114                	sw	a3,0(a0)
    5df6:	c110                	sw	a2,0(a0)
    5df8:	c118                	sw	a4,0(a0)
    5dfa:	9002                	ebreak

00005dfc <pass>:
    5dfc:	10010537          	lui	a0,0x10010
    5e00:	00450513          	addi	a0,a0,4 # 10010004 <_sp+0xfffed24>
    5e04:	04f00593          	li	a1,79
    5e08:	04b00613          	li	a2,75
    5e0c:	00a00693          	li	a3,10
    5e10:	c10c                	sw	a1,0(a0)
    5e12:	c110                	sw	a2,0(a0)
    5e14:	c114                	sw	a3,0(a0)
    5e16:	000f0113          	mv	sp,t5
    5e1a:	ffc12183          	lw	gp,-4(sp)
    5e1e:	ff812083          	lw	ra,-8(sp)
    5e22:	bc4fa06f          	j	1e6 <lui_ret>

00005e26 <jal>:
    5e26:	00010f13          	mv	t5,sp
    5e2a:	fe312e23          	sw	gp,-4(sp)
    5e2e:	fe112c23          	sw	ra,-8(sp)
    5e32:	90018513          	addi	a0,gp,-1792 # 1021c <jal_data>
    5e36:	10010637          	lui	a2,0x10010
    5e3a:	00460613          	addi	a2,a2,4 # 10010004 <_sp+0xfffed24>

00005e3e <.prname_next>:
    5e3e:	00050583          	lb	a1,0(a0)
    5e42:	00058863          	beqz	a1,5e52 <.prname_done>
    5e46:	00b62023          	sw	a1,0(a2)
    5e4a:	00150513          	addi	a0,a0,1
    5e4e:	ff1ff06f          	j	5e3e <.prname_next>

00005e52 <.prname_done>:
    5e52:	02e00593          	li	a1,46
    5e56:	00b62023          	sw	a1,0(a2)
    5e5a:	00b62023          	sw	a1,0(a2)

00005e5e <test_2>:
    5e5e:	00200e13          	li	t3,2
    5e62:	00000093          	li	ra,0

00005e66 <linkaddr_2>:
    5e66:	010000ef          	jal	ra,5e76 <target_2>
    5e6a:	00000013          	nop
    5e6e:	00000013          	nop
    5e72:	0440006f          	j	5eb6 <fail>

00005e76 <target_2>:
    5e76:	00000117          	auipc	sp,0x0
    5e7a:	ff010113          	addi	sp,sp,-16 # 5e66 <linkaddr_2>
    5e7e:	00410113          	addi	sp,sp,4
    5e82:	02111a63          	bne	sp,ra,5eb6 <fail>

00005e86 <test_3>:
    5e86:	00100113          	li	sp,1
    5e8a:	014000ef          	jal	ra,5e9e <test_3+0x18>
    5e8e:	00110113          	addi	sp,sp,1
    5e92:	00110113          	addi	sp,sp,1
    5e96:	00110113          	addi	sp,sp,1
    5e9a:	00110113          	addi	sp,sp,1
    5e9e:	00110113          	addi	sp,sp,1
    5ea2:	00110113          	addi	sp,sp,1
    5ea6:	00300e93          	li	t4,3
    5eaa:	00300e13          	li	t3,3
    5eae:	01d11463          	bne	sp,t4,5eb6 <fail>
    5eb2:	03c01c63          	bne	zero,t3,5eea <pass>

00005eb6 <fail>:
    5eb6:	10010537          	lui	a0,0x10010
    5eba:	00450513          	addi	a0,a0,4 # 10010004 <_sp+0xfffed24>
    5ebe:	04500593          	li	a1,69
    5ec2:	05200613          	li	a2,82
    5ec6:	04f00693          	li	a3,79
    5eca:	00a00713          	li	a4,10
    5ece:	00b52023          	sw	a1,0(a0)
    5ed2:	00c52023          	sw	a2,0(a0)
    5ed6:	00c52023          	sw	a2,0(a0)
    5eda:	00d52023          	sw	a3,0(a0)
    5ede:	00c52023          	sw	a2,0(a0)
    5ee2:	00e52023          	sw	a4,0(a0)
    5ee6:	00100073          	ebreak

00005eea <pass>:
    5eea:	10010537          	lui	a0,0x10010
    5eee:	00450513          	addi	a0,a0,4 # 10010004 <_sp+0xfffed24>
    5ef2:	04f00593          	li	a1,79
    5ef6:	04b00613          	li	a2,75
    5efa:	00a00693          	li	a3,10
    5efe:	00b52023          	sw	a1,0(a0)
    5f02:	00c52023          	sw	a2,0(a0)
    5f06:	00d52023          	sw	a3,0(a0)
    5f0a:	000f0113          	mv	sp,t5
    5f0e:	ffc12183          	lw	gp,-4(sp)
    5f12:	ff812083          	lw	ra,-8(sp)
    5f16:	ae8fa06f          	j	1fe <jal_ret>

00005f1a <addi>:
    5f1a:	00010f13          	mv	t5,sp
    5f1e:	fe312e23          	sw	gp,-4(sp)
    5f22:	fe112c23          	sw	ra,-8(sp)
    5f26:	90418513          	addi	a0,gp,-1788 # 10220 <addi_data>
    5f2a:	10010637          	lui	a2,0x10010
    5f2e:	00460613          	addi	a2,a2,4 # 10010004 <_sp+0xfffed24>

00005f32 <.prname_next>:
    5f32:	00050583          	lb	a1,0(a0)
    5f36:	00058663          	beqz	a1,5f42 <.prname_done>
    5f3a:	c20c                	sw	a1,0(a2)
    5f3c:	0505                	addi	a0,a0,1
    5f3e:	ff5ff06f          	j	5f32 <.prname_next>

00005f42 <.prname_done>:
    5f42:	02e00593          	li	a1,46
    5f46:	c20c                	sw	a1,0(a2)
    5f48:	c20c                	sw	a1,0(a2)

00005f4a <test_2>:
    5f4a:	4081                	li	ra,0
    5f4c:	00008193          	mv	gp,ra
    5f50:	4e81                	li	t4,0
    5f52:	4e09                	li	t3,2
    5f54:	1fd19563          	bne	gp,t4,613e <fail>

00005f58 <test_3>:
    5f58:	4085                	li	ra,1
    5f5a:	00108193          	addi	gp,ra,1 # 80000001 <pulp__FC+0x80000002>
    5f5e:	4e89                	li	t4,2
    5f60:	4e0d                	li	t3,3
    5f62:	1dd19e63          	bne	gp,t4,613e <fail>

00005f66 <test_4>:
    5f66:	408d                	li	ra,3
    5f68:	00708193          	addi	gp,ra,7
    5f6c:	4ea9                	li	t4,10
    5f6e:	4e11                	li	t3,4
    5f70:	1dd19763          	bne	gp,t4,613e <fail>

00005f74 <test_5>:
    5f74:	4081                	li	ra,0
    5f76:	80008193          	addi	gp,ra,-2048
    5f7a:	80000e93          	li	t4,-2048
    5f7e:	4e15                	li	t3,5
    5f80:	1bd19f63          	bne	gp,t4,613e <fail>

00005f84 <test_6>:
    5f84:	800000b7          	lui	ra,0x80000
    5f88:	00008193          	mv	gp,ra
    5f8c:	80000eb7          	lui	t4,0x80000
    5f90:	4e19                	li	t3,6
    5f92:	1bd19663          	bne	gp,t4,613e <fail>

00005f96 <test_7>:
    5f96:	800000b7          	lui	ra,0x80000
    5f9a:	80008193          	addi	gp,ra,-2048 # 7ffff800 <pulp__FC+0x7ffff801>
    5f9e:	80000eb7          	lui	t4,0x80000
    5fa2:	800e8e93          	addi	t4,t4,-2048 # 7ffff800 <pulp__FC+0x7ffff801>
    5fa6:	4e1d                	li	t3,7
    5fa8:	19d19b63          	bne	gp,t4,613e <fail>

00005fac <test_8>:
    5fac:	4081                	li	ra,0
    5fae:	7ff08193          	addi	gp,ra,2047
    5fb2:	7ff00e93          	li	t4,2047
    5fb6:	4e21                	li	t3,8
    5fb8:	19d19363          	bne	gp,t4,613e <fail>

00005fbc <test_9>:
    5fbc:	800000b7          	lui	ra,0x80000
    5fc0:	fff08093          	addi	ra,ra,-1 # 7fffffff <pulp__FC+0x80000000>
    5fc4:	00008193          	mv	gp,ra
    5fc8:	80000eb7          	lui	t4,0x80000
    5fcc:	fffe8e93          	addi	t4,t4,-1 # 7fffffff <pulp__FC+0x80000000>
    5fd0:	4e25                	li	t3,9
    5fd2:	17d19663          	bne	gp,t4,613e <fail>

00005fd6 <test_10>:
    5fd6:	800000b7          	lui	ra,0x80000
    5fda:	fff08093          	addi	ra,ra,-1 # 7fffffff <pulp__FC+0x80000000>
    5fde:	7ff08193          	addi	gp,ra,2047
    5fe2:	80000eb7          	lui	t4,0x80000
    5fe6:	7fee8e93          	addi	t4,t4,2046 # 800007fe <pulp__FC+0x800007ff>
    5fea:	4e29                	li	t3,10
    5fec:	15d19963          	bne	gp,t4,613e <fail>

00005ff0 <test_11>:
    5ff0:	800000b7          	lui	ra,0x80000
    5ff4:	7ff08193          	addi	gp,ra,2047 # 800007ff <pulp__FC+0x80000800>
    5ff8:	80000eb7          	lui	t4,0x80000
    5ffc:	7ffe8e93          	addi	t4,t4,2047 # 800007ff <pulp__FC+0x80000800>
    6000:	4e2d                	li	t3,11
    6002:	13d19e63          	bne	gp,t4,613e <fail>

00006006 <test_12>:
    6006:	800000b7          	lui	ra,0x80000
    600a:	fff08093          	addi	ra,ra,-1 # 7fffffff <pulp__FC+0x80000000>
    600e:	80008193          	addi	gp,ra,-2048
    6012:	7ffffeb7          	lui	t4,0x7ffff
    6016:	7ffe8e93          	addi	t4,t4,2047 # 7ffff7ff <_sp+0x7ffee51f>
    601a:	4e31                	li	t3,12
    601c:	13d19163          	bne	gp,t4,613e <fail>

00006020 <test_13>:
    6020:	4081                	li	ra,0
    6022:	fff08193          	addi	gp,ra,-1
    6026:	fff00e93          	li	t4,-1
    602a:	4e35                	li	t3,13
    602c:	11d19963          	bne	gp,t4,613e <fail>

00006030 <test_14>:
    6030:	fff00093          	li	ra,-1
    6034:	00108193          	addi	gp,ra,1
    6038:	4e81                	li	t4,0
    603a:	4e39                	li	t3,14
    603c:	11d19163          	bne	gp,t4,613e <fail>

00006040 <test_15>:
    6040:	fff00093          	li	ra,-1
    6044:	fff08193          	addi	gp,ra,-1
    6048:	ffe00e93          	li	t4,-2
    604c:	4e3d                	li	t3,15
    604e:	0fd19863          	bne	gp,t4,613e <fail>

00006052 <test_16>:
    6052:	800000b7          	lui	ra,0x80000
    6056:	fff08093          	addi	ra,ra,-1 # 7fffffff <pulp__FC+0x80000000>
    605a:	00108193          	addi	gp,ra,1
    605e:	80000eb7          	lui	t4,0x80000
    6062:	4e41                	li	t3,16
    6064:	0dd19d63          	bne	gp,t4,613e <fail>

00006068 <test_17>:
    6068:	40b5                	li	ra,13
    606a:	00ad                	addi	ra,ra,11
    606c:	4ee1                	li	t4,24
    606e:	4e45                	li	t3,17
    6070:	0dd09763          	bne	ra,t4,613e <fail>

00006074 <test_18>:
    6074:	4201                	li	tp,0
    6076:	40b5                	li	ra,13
    6078:	00b08193          	addi	gp,ra,11
    607c:	00018313          	mv	t1,gp
    6080:	0205                	addi	tp,tp,1
    6082:	4289                	li	t0,2
    6084:	fe5219e3          	bne	tp,t0,6076 <test_18+0x2>
    6088:	4ee1                	li	t4,24
    608a:	4e49                	li	t3,18
    608c:	0bd31963          	bne	t1,t4,613e <fail>

00006090 <test_19>:
    6090:	4201                	li	tp,0
    6092:	40b5                	li	ra,13
    6094:	00a08193          	addi	gp,ra,10
    6098:	0001                	nop
    609a:	00018313          	mv	t1,gp
    609e:	0205                	addi	tp,tp,1
    60a0:	4289                	li	t0,2
    60a2:	fe5218e3          	bne	tp,t0,6092 <test_19+0x2>
    60a6:	4edd                	li	t4,23
    60a8:	4e4d                	li	t3,19
    60aa:	09d31a63          	bne	t1,t4,613e <fail>

000060ae <test_20>:
    60ae:	4201                	li	tp,0
    60b0:	40b5                	li	ra,13
    60b2:	00908193          	addi	gp,ra,9
    60b6:	0001                	nop
    60b8:	0001                	nop
    60ba:	00018313          	mv	t1,gp
    60be:	0205                	addi	tp,tp,1
    60c0:	4289                	li	t0,2
    60c2:	fe5217e3          	bne	tp,t0,60b0 <test_20+0x2>
    60c6:	4ed9                	li	t4,22
    60c8:	4e51                	li	t3,20
    60ca:	07d31a63          	bne	t1,t4,613e <fail>

000060ce <test_21>:
    60ce:	4201                	li	tp,0
    60d0:	40b5                	li	ra,13
    60d2:	00b08193          	addi	gp,ra,11
    60d6:	0205                	addi	tp,tp,1
    60d8:	4289                	li	t0,2
    60da:	fe521be3          	bne	tp,t0,60d0 <test_21+0x2>
    60de:	4ee1                	li	t4,24
    60e0:	4e55                	li	t3,21
    60e2:	05d19e63          	bne	gp,t4,613e <fail>

000060e6 <test_22>:
    60e6:	4201                	li	tp,0
    60e8:	40b5                	li	ra,13
    60ea:	0001                	nop
    60ec:	00a08193          	addi	gp,ra,10
    60f0:	0205                	addi	tp,tp,1
    60f2:	4289                	li	t0,2
    60f4:	fe521ae3          	bne	tp,t0,60e8 <test_22+0x2>
    60f8:	4edd                	li	t4,23
    60fa:	4e59                	li	t3,22
    60fc:	05d19163          	bne	gp,t4,613e <fail>

00006100 <test_23>:
    6100:	4201                	li	tp,0
    6102:	40b5                	li	ra,13
    6104:	0001                	nop
    6106:	0001                	nop
    6108:	00908193          	addi	gp,ra,9
    610c:	0205                	addi	tp,tp,1
    610e:	4289                	li	t0,2
    6110:	fe5219e3          	bne	tp,t0,6102 <test_23+0x2>
    6114:	4ed9                	li	t4,22
    6116:	4e5d                	li	t3,23
    6118:	03d19363          	bne	gp,t4,613e <fail>

0000611c <test_24>:
    611c:	02000093          	li	ra,32
    6120:	02000e93          	li	t4,32
    6124:	4e61                	li	t3,24
    6126:	01d09c63          	bne	ra,t4,613e <fail>

0000612a <test_25>:
    612a:	02100093          	li	ra,33
    612e:	03208013          	addi	zero,ra,50
    6132:	4e81                	li	t4,0
    6134:	4e65                	li	t3,25
    6136:	01d01463          	bne	zero,t4,613e <fail>
    613a:	03c01563          	bne	zero,t3,6164 <pass>

0000613e <fail>:
    613e:	10010537          	lui	a0,0x10010
    6142:	00450513          	addi	a0,a0,4 # 10010004 <_sp+0xfffed24>
    6146:	04500593          	li	a1,69
    614a:	05200613          	li	a2,82
    614e:	04f00693          	li	a3,79
    6152:	00a00713          	li	a4,10
    6156:	c10c                	sw	a1,0(a0)
    6158:	c110                	sw	a2,0(a0)
    615a:	c110                	sw	a2,0(a0)
    615c:	c114                	sw	a3,0(a0)
    615e:	c110                	sw	a2,0(a0)
    6160:	c118                	sw	a4,0(a0)
    6162:	9002                	ebreak

00006164 <pass>:
    6164:	10010537          	lui	a0,0x10010
    6168:	00450513          	addi	a0,a0,4 # 10010004 <_sp+0xfffed24>
    616c:	04f00593          	li	a1,79
    6170:	04b00613          	li	a2,75
    6174:	00a00693          	li	a3,10
    6178:	c10c                	sw	a1,0(a0)
    617a:	c110                	sw	a2,0(a0)
    617c:	c114                	sw	a3,0(a0)
    617e:	000f0113          	mv	sp,t5
    6182:	ffc12183          	lw	gp,-4(sp)
    6186:	ff812083          	lw	ra,-8(sp)
    618a:	8f4fa06f          	j	27e <addi_ret>

0000618e <sb>:
    618e:	00010f13          	mv	t5,sp
    6192:	fe312e23          	sw	gp,-4(sp)
    6196:	fe112c23          	sw	ra,-8(sp)
    619a:	90c18513          	addi	a0,gp,-1780 # 10228 <sb_data>
    619e:	10010637          	lui	a2,0x10010
    61a2:	00460613          	addi	a2,a2,4 # 10010004 <_sp+0xfffed24>

000061a6 <.prname_next>:
    61a6:	00050583          	lb	a1,0(a0)
    61aa:	00058663          	beqz	a1,61b6 <.prname_done>
    61ae:	c20c                	sw	a1,0(a2)
    61b0:	0505                	addi	a0,a0,1
    61b2:	ff5ff06f          	j	61a6 <.prname_next>

000061b6 <.prname_done>:
    61b6:	02e00593          	li	a1,46
    61ba:	c20c                	sw	a1,0(a2)
    61bc:	c20c                	sw	a1,0(a2)

000061be <test_2>:
    61be:	0000a097          	auipc	ra,0xa
    61c2:	06e08093          	addi	ra,ra,110 # 1022c <tdat>
    61c6:	faa00113          	li	sp,-86
    61ca:	00208023          	sb	sp,0(ra)
    61ce:	00008183          	lb	gp,0(ra)
    61d2:	faa00e93          	li	t4,-86
    61d6:	4e09                	li	t3,2
    61d8:	33d19463          	bne	gp,t4,6500 <fail>

000061dc <test_3>:
    61dc:	0000a097          	auipc	ra,0xa
    61e0:	05008093          	addi	ra,ra,80 # 1022c <tdat>
    61e4:	4101                	li	sp,0
    61e6:	002080a3          	sb	sp,1(ra)
    61ea:	00108183          	lb	gp,1(ra)
    61ee:	4e81                	li	t4,0
    61f0:	4e0d                	li	t3,3
    61f2:	31d19763          	bne	gp,t4,6500 <fail>

000061f6 <test_4>:
    61f6:	0000a097          	auipc	ra,0xa
    61fa:	03608093          	addi	ra,ra,54 # 1022c <tdat>
    61fe:	fffff137          	lui	sp,0xfffff
    6202:	fa010113          	addi	sp,sp,-96 # ffffefa0 <pulp__FC+0xffffefa1>
    6206:	00208123          	sb	sp,2(ra)
    620a:	00209183          	lh	gp,2(ra)
    620e:	fffffeb7          	lui	t4,0xfffff
    6212:	fa0e8e93          	addi	t4,t4,-96 # ffffefa0 <pulp__FC+0xffffefa1>
    6216:	4e11                	li	t3,4
    6218:	2fd19463          	bne	gp,t4,6500 <fail>

0000621c <test_5>:
    621c:	0000a097          	auipc	ra,0xa
    6220:	01008093          	addi	ra,ra,16 # 1022c <tdat>
    6224:	4129                	li	sp,10
    6226:	002081a3          	sb	sp,3(ra)
    622a:	00308183          	lb	gp,3(ra)
    622e:	4ea9                	li	t4,10
    6230:	4e15                	li	t3,5
    6232:	2dd19763          	bne	gp,t4,6500 <fail>

00006236 <test_6>:
    6236:	0000a097          	auipc	ra,0xa
    623a:	ffd08093          	addi	ra,ra,-3 # 10233 <tdat8>
    623e:	faa00113          	li	sp,-86
    6242:	fe208ea3          	sb	sp,-3(ra)
    6246:	ffd08183          	lb	gp,-3(ra)
    624a:	faa00e93          	li	t4,-86
    624e:	4e19                	li	t3,6
    6250:	2bd19863          	bne	gp,t4,6500 <fail>

00006254 <test_7>:
    6254:	0000a097          	auipc	ra,0xa
    6258:	fdf08093          	addi	ra,ra,-33 # 10233 <tdat8>
    625c:	4101                	li	sp,0
    625e:	fe208f23          	sb	sp,-2(ra)
    6262:	ffe08183          	lb	gp,-2(ra)
    6266:	4e81                	li	t4,0
    6268:	4e1d                	li	t3,7
    626a:	29d19b63          	bne	gp,t4,6500 <fail>

0000626e <test_8>:
    626e:	0000a097          	auipc	ra,0xa
    6272:	fc508093          	addi	ra,ra,-59 # 10233 <tdat8>
    6276:	fa000113          	li	sp,-96
    627a:	fe208fa3          	sb	sp,-1(ra)
    627e:	fff08183          	lb	gp,-1(ra)
    6282:	fa000e93          	li	t4,-96
    6286:	4e21                	li	t3,8
    6288:	27d19c63          	bne	gp,t4,6500 <fail>

0000628c <test_9>:
    628c:	0000a097          	auipc	ra,0xa
    6290:	fa708093          	addi	ra,ra,-89 # 10233 <tdat8>
    6294:	4129                	li	sp,10
    6296:	00208023          	sb	sp,0(ra)
    629a:	00008183          	lb	gp,0(ra)
    629e:	4ea9                	li	t4,10
    62a0:	4e25                	li	t3,9
    62a2:	25d19f63          	bne	gp,t4,6500 <fail>

000062a6 <test_10>:
    62a6:	0000a097          	auipc	ra,0xa
    62aa:	f8e08093          	addi	ra,ra,-114 # 10234 <tdat9>
    62ae:	12345137          	lui	sp,0x12345
    62b2:	67810113          	addi	sp,sp,1656 # 12345678 <_sp+0x12334398>
    62b6:	fe008213          	addi	tp,ra,-32
    62ba:	02220023          	sb	sp,32(tp) # 20 <__vector_start+0x20>
    62be:	00008183          	lb	gp,0(ra)
    62c2:	07800e93          	li	t4,120
    62c6:	4e29                	li	t3,10
    62c8:	23d19c63          	bne	gp,t4,6500 <fail>

000062cc <test_11>:
    62cc:	0000a097          	auipc	ra,0xa
    62d0:	f6808093          	addi	ra,ra,-152 # 10234 <tdat9>
    62d4:	00003137          	lui	sp,0x3
    62d8:	09810113          	addi	sp,sp,152 # 3098 <test_26+0x8>
    62dc:	10e9                	addi	ra,ra,-6
    62de:	002083a3          	sb	sp,7(ra)
    62e2:	0000a217          	auipc	tp,0xa
    62e6:	f5320213          	addi	tp,tp,-173 # 10235 <tdat10>
    62ea:	00020183          	lb	gp,0(tp) # 0 <__vector_start>
    62ee:	f9800e93          	li	t4,-104
    62f2:	4e2d                	li	t3,11
    62f4:	21d19663          	bne	gp,t4,6500 <fail>

000062f8 <test_12>:
    62f8:	4e31                	li	t3,12
    62fa:	4201                	li	tp,0
    62fc:	fdd00093          	li	ra,-35
    6300:	0000a117          	auipc	sp,0xa
    6304:	f2c10113          	addi	sp,sp,-212 # 1022c <tdat>
    6308:	00110023          	sb	ra,0(sp)
    630c:	00010183          	lb	gp,0(sp)
    6310:	fdd00e93          	li	t4,-35
    6314:	1fd19663          	bne	gp,t4,6500 <fail>
    6318:	0205                	addi	tp,tp,1
    631a:	4289                	li	t0,2
    631c:	fe5210e3          	bne	tp,t0,62fc <test_12+0x4>

00006320 <test_13>:
    6320:	4e35                	li	t3,13
    6322:	4201                	li	tp,0
    6324:	fcd00093          	li	ra,-51
    6328:	0000a117          	auipc	sp,0xa
    632c:	f0410113          	addi	sp,sp,-252 # 1022c <tdat>
    6330:	0001                	nop
    6332:	001100a3          	sb	ra,1(sp)
    6336:	00110183          	lb	gp,1(sp)
    633a:	fcd00e93          	li	t4,-51
    633e:	1dd19163          	bne	gp,t4,6500 <fail>
    6342:	0205                	addi	tp,tp,1
    6344:	4289                	li	t0,2
    6346:	fc521fe3          	bne	tp,t0,6324 <test_13+0x4>

0000634a <test_14>:
    634a:	4e39                	li	t3,14
    634c:	4201                	li	tp,0
    634e:	fcc00093          	li	ra,-52
    6352:	0000a117          	auipc	sp,0xa
    6356:	eda10113          	addi	sp,sp,-294 # 1022c <tdat>
    635a:	0001                	nop
    635c:	0001                	nop
    635e:	00110123          	sb	ra,2(sp)
    6362:	00210183          	lb	gp,2(sp)
    6366:	fcc00e93          	li	t4,-52
    636a:	19d19b63          	bne	gp,t4,6500 <fail>
    636e:	0205                	addi	tp,tp,1
    6370:	4289                	li	t0,2
    6372:	fc521ee3          	bne	tp,t0,634e <test_14+0x4>

00006376 <test_15>:
    6376:	4e3d                	li	t3,15
    6378:	4201                	li	tp,0
    637a:	fbc00093          	li	ra,-68
    637e:	0001                	nop
    6380:	0000a117          	auipc	sp,0xa
    6384:	eac10113          	addi	sp,sp,-340 # 1022c <tdat>
    6388:	001101a3          	sb	ra,3(sp)
    638c:	00310183          	lb	gp,3(sp)
    6390:	fbc00e93          	li	t4,-68
    6394:	17d19663          	bne	gp,t4,6500 <fail>
    6398:	0205                	addi	tp,tp,1
    639a:	4289                	li	t0,2
    639c:	fc521fe3          	bne	tp,t0,637a <test_15+0x4>

000063a0 <test_16>:
    63a0:	4e41                	li	t3,16
    63a2:	4201                	li	tp,0
    63a4:	fbb00093          	li	ra,-69
    63a8:	0001                	nop
    63aa:	0000a117          	auipc	sp,0xa
    63ae:	e8210113          	addi	sp,sp,-382 # 1022c <tdat>
    63b2:	0001                	nop
    63b4:	00110223          	sb	ra,4(sp)
    63b8:	00410183          	lb	gp,4(sp)
    63bc:	fbb00e93          	li	t4,-69
    63c0:	15d19063          	bne	gp,t4,6500 <fail>
    63c4:	0205                	addi	tp,tp,1
    63c6:	4289                	li	t0,2
    63c8:	fc521ee3          	bne	tp,t0,63a4 <test_16+0x4>

000063cc <test_17>:
    63cc:	4e45                	li	t3,17
    63ce:	4201                	li	tp,0
    63d0:	fab00093          	li	ra,-85
    63d4:	0001                	nop
    63d6:	0001                	nop
    63d8:	0000a117          	auipc	sp,0xa
    63dc:	e5410113          	addi	sp,sp,-428 # 1022c <tdat>
    63e0:	001102a3          	sb	ra,5(sp)
    63e4:	00510183          	lb	gp,5(sp)
    63e8:	fab00e93          	li	t4,-85
    63ec:	11d19a63          	bne	gp,t4,6500 <fail>
    63f0:	0205                	addi	tp,tp,1
    63f2:	4289                	li	t0,2
    63f4:	fc521ee3          	bne	tp,t0,63d0 <test_17+0x4>

000063f8 <test_18>:
    63f8:	4e49                	li	t3,18
    63fa:	4201                	li	tp,0
    63fc:	0000a117          	auipc	sp,0xa
    6400:	e3010113          	addi	sp,sp,-464 # 1022c <tdat>
    6404:	03300093          	li	ra,51
    6408:	00110023          	sb	ra,0(sp)
    640c:	00010183          	lb	gp,0(sp)
    6410:	03300e93          	li	t4,51
    6414:	0fd19663          	bne	gp,t4,6500 <fail>
    6418:	0205                	addi	tp,tp,1
    641a:	4289                	li	t0,2
    641c:	fe5210e3          	bne	tp,t0,63fc <test_18+0x4>

00006420 <test_19>:
    6420:	4e4d                	li	t3,19
    6422:	4201                	li	tp,0
    6424:	0000a117          	auipc	sp,0xa
    6428:	e0810113          	addi	sp,sp,-504 # 1022c <tdat>
    642c:	02300093          	li	ra,35
    6430:	0001                	nop
    6432:	001100a3          	sb	ra,1(sp)
    6436:	00110183          	lb	gp,1(sp)
    643a:	02300e93          	li	t4,35
    643e:	0dd19163          	bne	gp,t4,6500 <fail>
    6442:	0205                	addi	tp,tp,1
    6444:	4289                	li	t0,2
    6446:	fc521fe3          	bne	tp,t0,6424 <test_19+0x4>

0000644a <test_20>:
    644a:	4e51                	li	t3,20
    644c:	4201                	li	tp,0
    644e:	0000a117          	auipc	sp,0xa
    6452:	dde10113          	addi	sp,sp,-546 # 1022c <tdat>
    6456:	02200093          	li	ra,34
    645a:	0001                	nop
    645c:	0001                	nop
    645e:	00110123          	sb	ra,2(sp)
    6462:	00210183          	lb	gp,2(sp)
    6466:	02200e93          	li	t4,34
    646a:	09d19b63          	bne	gp,t4,6500 <fail>
    646e:	0205                	addi	tp,tp,1
    6470:	4289                	li	t0,2
    6472:	fc521ee3          	bne	tp,t0,644e <test_20+0x4>

00006476 <test_21>:
    6476:	4e55                	li	t3,21
    6478:	4201                	li	tp,0
    647a:	0000a117          	auipc	sp,0xa
    647e:	db210113          	addi	sp,sp,-590 # 1022c <tdat>
    6482:	0001                	nop
    6484:	40c9                	li	ra,18
    6486:	001101a3          	sb	ra,3(sp)
    648a:	00310183          	lb	gp,3(sp)
    648e:	4ec9                	li	t4,18
    6490:	07d19863          	bne	gp,t4,6500 <fail>
    6494:	0205                	addi	tp,tp,1
    6496:	4289                	li	t0,2
    6498:	fe5211e3          	bne	tp,t0,647a <test_21+0x4>

0000649c <test_22>:
    649c:	4e59                	li	t3,22
    649e:	4201                	li	tp,0
    64a0:	0000a117          	auipc	sp,0xa
    64a4:	d8c10113          	addi	sp,sp,-628 # 1022c <tdat>
    64a8:	0001                	nop
    64aa:	40c5                	li	ra,17
    64ac:	0001                	nop
    64ae:	00110223          	sb	ra,4(sp)
    64b2:	00410183          	lb	gp,4(sp)
    64b6:	4ec5                	li	t4,17
    64b8:	05d19463          	bne	gp,t4,6500 <fail>
    64bc:	0205                	addi	tp,tp,1
    64be:	4289                	li	t0,2
    64c0:	fe5210e3          	bne	tp,t0,64a0 <test_22+0x4>

000064c4 <test_23>:
    64c4:	4e5d                	li	t3,23
    64c6:	4201                	li	tp,0
    64c8:	0000a117          	auipc	sp,0xa
    64cc:	d6410113          	addi	sp,sp,-668 # 1022c <tdat>
    64d0:	0001                	nop
    64d2:	0001                	nop
    64d4:	4085                	li	ra,1
    64d6:	001102a3          	sb	ra,5(sp)
    64da:	00510183          	lb	gp,5(sp)
    64de:	4e85                	li	t4,1
    64e0:	03d19063          	bne	gp,t4,6500 <fail>
    64e4:	0205                	addi	tp,tp,1
    64e6:	4289                	li	t0,2
    64e8:	fe5210e3          	bne	tp,t0,64c8 <test_23+0x4>
    64ec:	0ef00513          	li	a0,239
    64f0:	0000a597          	auipc	a1,0xa
    64f4:	d3c58593          	addi	a1,a1,-708 # 1022c <tdat>
    64f8:	00a581a3          	sb	a0,3(a1)
    64fc:	03c01563          	bne	zero,t3,6526 <pass>

00006500 <fail>:
    6500:	10010537          	lui	a0,0x10010
    6504:	00450513          	addi	a0,a0,4 # 10010004 <_sp+0xfffed24>
    6508:	04500593          	li	a1,69
    650c:	05200613          	li	a2,82
    6510:	04f00693          	li	a3,79
    6514:	00a00713          	li	a4,10
    6518:	c10c                	sw	a1,0(a0)
    651a:	c110                	sw	a2,0(a0)
    651c:	c110                	sw	a2,0(a0)
    651e:	c114                	sw	a3,0(a0)
    6520:	c110                	sw	a2,0(a0)
    6522:	c118                	sw	a4,0(a0)
    6524:	9002                	ebreak

00006526 <pass>:
    6526:	10010537          	lui	a0,0x10010
    652a:	00450513          	addi	a0,a0,4 # 10010004 <_sp+0xfffed24>
    652e:	04f00593          	li	a1,79
    6532:	04b00613          	li	a2,75
    6536:	00a00693          	li	a3,10
    653a:	c10c                	sw	a1,0(a0)
    653c:	c110                	sw	a2,0(a0)
    653e:	c114                	sw	a3,0(a0)
    6540:	000f0113          	mv	sp,t5
    6544:	ffc12183          	lw	gp,-4(sp)
    6548:	ff812083          	lw	ra,-8(sp)
    654c:	d1bf906f          	j	266 <sb_ret>

00006550 <slli>:
    6550:	00010f13          	mv	t5,sp
    6554:	fe312e23          	sw	gp,-4(sp)
    6558:	fe112c23          	sw	ra,-8(sp)
    655c:	91c18513          	addi	a0,gp,-1764 # 10238 <slli_data>
    6560:	10010637          	lui	a2,0x10010
    6564:	00460613          	addi	a2,a2,4 # 10010004 <_sp+0xfffed24>

00006568 <.prname_next>:
    6568:	00050583          	lb	a1,0(a0)
    656c:	00058663          	beqz	a1,6578 <.prname_done>
    6570:	c20c                	sw	a1,0(a2)
    6572:	0505                	addi	a0,a0,1
    6574:	ff5ff06f          	j	6568 <.prname_next>

00006578 <.prname_done>:
    6578:	02e00593          	li	a1,46
    657c:	c20c                	sw	a1,0(a2)
    657e:	c20c                	sw	a1,0(a2)

00006580 <test_2>:
    6580:	4085                	li	ra,1
    6582:	00009193          	slli	gp,ra,0x0
    6586:	4e85                	li	t4,1
    6588:	4e09                	li	t3,2
    658a:	1fd19963          	bne	gp,t4,677c <fail>

0000658e <test_3>:
    658e:	4085                	li	ra,1
    6590:	00109193          	slli	gp,ra,0x1
    6594:	4e89                	li	t4,2
    6596:	4e0d                	li	t3,3
    6598:	1fd19263          	bne	gp,t4,677c <fail>

0000659c <test_4>:
    659c:	4085                	li	ra,1
    659e:	00709193          	slli	gp,ra,0x7
    65a2:	08000e93          	li	t4,128
    65a6:	4e11                	li	t3,4
    65a8:	1dd19a63          	bne	gp,t4,677c <fail>

000065ac <test_5>:
    65ac:	4085                	li	ra,1
    65ae:	00e09193          	slli	gp,ra,0xe
    65b2:	6e91                	lui	t4,0x4
    65b4:	4e15                	li	t3,5
    65b6:	1dd19363          	bne	gp,t4,677c <fail>

000065ba <test_6>:
    65ba:	4085                	li	ra,1
    65bc:	01f09193          	slli	gp,ra,0x1f
    65c0:	80000eb7          	lui	t4,0x80000
    65c4:	4e19                	li	t3,6
    65c6:	1bd19b63          	bne	gp,t4,677c <fail>

000065ca <test_7>:
    65ca:	fff00093          	li	ra,-1
    65ce:	00009193          	slli	gp,ra,0x0
    65d2:	fff00e93          	li	t4,-1
    65d6:	4e1d                	li	t3,7
    65d8:	1bd19263          	bne	gp,t4,677c <fail>

000065dc <test_8>:
    65dc:	fff00093          	li	ra,-1
    65e0:	00109193          	slli	gp,ra,0x1
    65e4:	ffe00e93          	li	t4,-2
    65e8:	4e21                	li	t3,8
    65ea:	19d19963          	bne	gp,t4,677c <fail>

000065ee <test_9>:
    65ee:	fff00093          	li	ra,-1
    65f2:	00709193          	slli	gp,ra,0x7
    65f6:	f8000e93          	li	t4,-128
    65fa:	4e25                	li	t3,9
    65fc:	19d19063          	bne	gp,t4,677c <fail>

00006600 <test_10>:
    6600:	fff00093          	li	ra,-1
    6604:	00e09193          	slli	gp,ra,0xe
    6608:	ffffceb7          	lui	t4,0xffffc
    660c:	4e29                	li	t3,10
    660e:	17d19763          	bne	gp,t4,677c <fail>

00006612 <test_11>:
    6612:	fff00093          	li	ra,-1
    6616:	01f09193          	slli	gp,ra,0x1f
    661a:	80000eb7          	lui	t4,0x80000
    661e:	4e2d                	li	t3,11
    6620:	15d19e63          	bne	gp,t4,677c <fail>

00006624 <test_12>:
    6624:	212120b7          	lui	ra,0x21212
    6628:	12108093          	addi	ra,ra,289 # 21212121 <_sp+0x21200e41>
    662c:	00009193          	slli	gp,ra,0x0
    6630:	21212eb7          	lui	t4,0x21212
    6634:	121e8e93          	addi	t4,t4,289 # 21212121 <_sp+0x21200e41>
    6638:	4e31                	li	t3,12
    663a:	15d19163          	bne	gp,t4,677c <fail>

0000663e <test_13>:
    663e:	212120b7          	lui	ra,0x21212
    6642:	12108093          	addi	ra,ra,289 # 21212121 <_sp+0x21200e41>
    6646:	00109193          	slli	gp,ra,0x1
    664a:	42424eb7          	lui	t4,0x42424
    664e:	242e8e93          	addi	t4,t4,578 # 42424242 <_sp+0x42412f62>
    6652:	4e35                	li	t3,13
    6654:	13d19463          	bne	gp,t4,677c <fail>

00006658 <test_14>:
    6658:	212120b7          	lui	ra,0x21212
    665c:	12108093          	addi	ra,ra,289 # 21212121 <_sp+0x21200e41>
    6660:	00709193          	slli	gp,ra,0x7
    6664:	90909eb7          	lui	t4,0x90909
    6668:	080e8e93          	addi	t4,t4,128 # 90909080 <pulp__FC+0x90909081>
    666c:	4e39                	li	t3,14
    666e:	11d19763          	bne	gp,t4,677c <fail>

00006672 <test_15>:
    6672:	212120b7          	lui	ra,0x21212
    6676:	12108093          	addi	ra,ra,289 # 21212121 <_sp+0x21200e41>
    667a:	00e09193          	slli	gp,ra,0xe
    667e:	48484eb7          	lui	t4,0x48484
    6682:	4e3d                	li	t3,15
    6684:	0fd19c63          	bne	gp,t4,677c <fail>

00006688 <test_16>:
    6688:	212120b7          	lui	ra,0x21212
    668c:	12108093          	addi	ra,ra,289 # 21212121 <_sp+0x21200e41>
    6690:	01f09193          	slli	gp,ra,0x1f
    6694:	80000eb7          	lui	t4,0x80000
    6698:	4e41                	li	t3,16
    669a:	0fd19163          	bne	gp,t4,677c <fail>

0000669e <test_17>:
    669e:	4085                	li	ra,1
    66a0:	009e                	slli	ra,ra,0x7
    66a2:	08000e93          	li	t4,128
    66a6:	4e45                	li	t3,17
    66a8:	0dd09a63          	bne	ra,t4,677c <fail>

000066ac <test_18>:
    66ac:	4201                	li	tp,0
    66ae:	4085                	li	ra,1
    66b0:	00709193          	slli	gp,ra,0x7
    66b4:	00018313          	mv	t1,gp
    66b8:	0205                	addi	tp,tp,1
    66ba:	4289                	li	t0,2
    66bc:	fe5219e3          	bne	tp,t0,66ae <test_18+0x2>
    66c0:	08000e93          	li	t4,128
    66c4:	4e49                	li	t3,18
    66c6:	0bd31b63          	bne	t1,t4,677c <fail>

000066ca <test_19>:
    66ca:	4201                	li	tp,0
    66cc:	4085                	li	ra,1
    66ce:	00e09193          	slli	gp,ra,0xe
    66d2:	0001                	nop
    66d4:	00018313          	mv	t1,gp
    66d8:	0205                	addi	tp,tp,1
    66da:	4289                	li	t0,2
    66dc:	fe5218e3          	bne	tp,t0,66cc <test_19+0x2>
    66e0:	6e91                	lui	t4,0x4
    66e2:	4e4d                	li	t3,19
    66e4:	09d31c63          	bne	t1,t4,677c <fail>

000066e8 <test_20>:
    66e8:	4201                	li	tp,0
    66ea:	4085                	li	ra,1
    66ec:	01f09193          	slli	gp,ra,0x1f
    66f0:	0001                	nop
    66f2:	0001                	nop
    66f4:	00018313          	mv	t1,gp
    66f8:	0205                	addi	tp,tp,1
    66fa:	4289                	li	t0,2
    66fc:	fe5217e3          	bne	tp,t0,66ea <test_20+0x2>
    6700:	80000eb7          	lui	t4,0x80000
    6704:	4e51                	li	t3,20
    6706:	07d31b63          	bne	t1,t4,677c <fail>

0000670a <test_21>:
    670a:	4201                	li	tp,0
    670c:	4085                	li	ra,1
    670e:	00709193          	slli	gp,ra,0x7
    6712:	0205                	addi	tp,tp,1
    6714:	4289                	li	t0,2
    6716:	fe521be3          	bne	tp,t0,670c <test_21+0x2>
    671a:	08000e93          	li	t4,128
    671e:	4e55                	li	t3,21
    6720:	05d19e63          	bne	gp,t4,677c <fail>

00006724 <test_22>:
    6724:	4201                	li	tp,0
    6726:	4085                	li	ra,1
    6728:	0001                	nop
    672a:	00e09193          	slli	gp,ra,0xe
    672e:	0205                	addi	tp,tp,1
    6730:	4289                	li	t0,2
    6732:	fe521ae3          	bne	tp,t0,6726 <test_22+0x2>
    6736:	6e91                	lui	t4,0x4
    6738:	4e59                	li	t3,22
    673a:	05d19163          	bne	gp,t4,677c <fail>

0000673e <test_23>:
    673e:	4201                	li	tp,0
    6740:	4085                	li	ra,1
    6742:	0001                	nop
    6744:	0001                	nop
    6746:	01f09193          	slli	gp,ra,0x1f
    674a:	0205                	addi	tp,tp,1
    674c:	4289                	li	t0,2
    674e:	fe5219e3          	bne	tp,t0,6740 <test_23+0x2>
    6752:	80000eb7          	lui	t4,0x80000
    6756:	4e5d                	li	t3,23
    6758:	03d19263          	bne	gp,t4,677c <fail>

0000675c <test_24>:
    675c:	01f01093          	slli	ra,zero,0x1f
    6760:	4e81                	li	t4,0
    6762:	4e61                	li	t3,24
    6764:	01d09c63          	bne	ra,t4,677c <fail>

00006768 <test_25>:
    6768:	02100093          	li	ra,33
    676c:	01409013          	slli	zero,ra,0x14
    6770:	4e81                	li	t4,0
    6772:	4e65                	li	t3,25
    6774:	01d01463          	bne	zero,t4,677c <fail>
    6778:	03c01563          	bne	zero,t3,67a2 <pass>

0000677c <fail>:
    677c:	10010537          	lui	a0,0x10010
    6780:	00450513          	addi	a0,a0,4 # 10010004 <_sp+0xfffed24>
    6784:	04500593          	li	a1,69
    6788:	05200613          	li	a2,82
    678c:	04f00693          	li	a3,79
    6790:	00a00713          	li	a4,10
    6794:	c10c                	sw	a1,0(a0)
    6796:	c110                	sw	a2,0(a0)
    6798:	c110                	sw	a2,0(a0)
    679a:	c114                	sw	a3,0(a0)
    679c:	c110                	sw	a2,0(a0)
    679e:	c118                	sw	a4,0(a0)
    67a0:	9002                	ebreak

000067a2 <pass>:
    67a2:	10010537          	lui	a0,0x10010
    67a6:	00450513          	addi	a0,a0,4 # 10010004 <_sp+0xfffed24>
    67aa:	04f00593          	li	a1,79
    67ae:	04b00613          	li	a2,75
    67b2:	00a00693          	li	a3,10
    67b6:	c10c                	sw	a1,0(a0)
    67b8:	c110                	sw	a2,0(a0)
    67ba:	c114                	sw	a3,0(a0)
    67bc:	000f0113          	mv	sp,t5
    67c0:	ffc12183          	lw	gp,-4(sp)
    67c4:	ff812083          	lw	ra,-8(sp)
    67c8:	adff906f          	j	2a6 <slli_ret>

000067cc <bne>:
    67cc:	00010f13          	mv	t5,sp
    67d0:	fe312e23          	sw	gp,-4(sp)
    67d4:	fe112c23          	sw	ra,-8(sp)
    67d8:	92418513          	addi	a0,gp,-1756 # 10240 <bne_data>
    67dc:	10010637          	lui	a2,0x10010
    67e0:	00460613          	addi	a2,a2,4 # 10010004 <_sp+0xfffed24>

000067e4 <.prname_next>:
    67e4:	00050583          	lb	a1,0(a0)
    67e8:	00058663          	beqz	a1,67f4 <.prname_done>
    67ec:	c20c                	sw	a1,0(a2)
    67ee:	0505                	addi	a0,a0,1
    67f0:	ff5ff06f          	j	67e4 <.prname_next>

000067f4 <.prname_done>:
    67f4:	02e00593          	li	a1,46
    67f8:	c20c                	sw	a1,0(a2)
    67fa:	c20c                	sw	a1,0(a2)

000067fc <test_2>:
    67fc:	4e09                	li	t3,2
    67fe:	4081                	li	ra,0
    6800:	4105                	li	sp,1
    6802:	00209663          	bne	ra,sp,680e <test_2+0x12>
    6806:	1dc01763          	bne	zero,t3,69d4 <fail>
    680a:	01c01663          	bne	zero,t3,6816 <test_3>
    680e:	fe209ee3          	bne	ra,sp,680a <test_2+0xe>
    6812:	1dc01163          	bne	zero,t3,69d4 <fail>

00006816 <test_3>:
    6816:	4e0d                	li	t3,3
    6818:	4085                	li	ra,1
    681a:	4101                	li	sp,0
    681c:	00209663          	bne	ra,sp,6828 <test_3+0x12>
    6820:	1bc01a63          	bne	zero,t3,69d4 <fail>
    6824:	01c01663          	bne	zero,t3,6830 <test_4>
    6828:	fe209ee3          	bne	ra,sp,6824 <test_3+0xe>
    682c:	1bc01463          	bne	zero,t3,69d4 <fail>

00006830 <test_4>:
    6830:	4e11                	li	t3,4
    6832:	50fd                	li	ra,-1
    6834:	4105                	li	sp,1
    6836:	00209663          	bne	ra,sp,6842 <test_4+0x12>
    683a:	19c01d63          	bne	zero,t3,69d4 <fail>
    683e:	01c01663          	bne	zero,t3,684a <test_5>
    6842:	fe209ee3          	bne	ra,sp,683e <test_4+0xe>
    6846:	19c01763          	bne	zero,t3,69d4 <fail>

0000684a <test_5>:
    684a:	4e15                	li	t3,5
    684c:	4085                	li	ra,1
    684e:	517d                	li	sp,-1
    6850:	00209663          	bne	ra,sp,685c <test_5+0x12>
    6854:	19c01063          	bne	zero,t3,69d4 <fail>
    6858:	01c01663          	bne	zero,t3,6864 <test_6>
    685c:	fe209ee3          	bne	ra,sp,6858 <test_5+0xe>
    6860:	17c01a63          	bne	zero,t3,69d4 <fail>

00006864 <test_6>:
    6864:	4e19                	li	t3,6
    6866:	4081                	li	ra,0
    6868:	4101                	li	sp,0
    686a:	00209463          	bne	ra,sp,6872 <test_6+0xe>
    686e:	01c01463          	bne	zero,t3,6876 <test_6+0x12>
    6872:	17c01163          	bne	zero,t3,69d4 <fail>
    6876:	fe209ee3          	bne	ra,sp,6872 <test_6+0xe>

0000687a <test_7>:
    687a:	4e1d                	li	t3,7
    687c:	4085                	li	ra,1
    687e:	4105                	li	sp,1
    6880:	00209463          	bne	ra,sp,6888 <test_7+0xe>
    6884:	01c01463          	bne	zero,t3,688c <test_7+0x12>
    6888:	15c01663          	bne	zero,t3,69d4 <fail>
    688c:	fe209ee3          	bne	ra,sp,6888 <test_7+0xe>

00006890 <test_8>:
    6890:	4e21                	li	t3,8
    6892:	50fd                	li	ra,-1
    6894:	517d                	li	sp,-1
    6896:	00209463          	bne	ra,sp,689e <test_8+0xe>
    689a:	01c01463          	bne	zero,t3,68a2 <test_8+0x12>
    689e:	13c01b63          	bne	zero,t3,69d4 <fail>
    68a2:	fe209ee3          	bne	ra,sp,689e <test_8+0xe>

000068a6 <test_9>:
    68a6:	4e25                	li	t3,9
    68a8:	4201                	li	tp,0
    68aa:	4081                	li	ra,0
    68ac:	4101                	li	sp,0
    68ae:	12209363          	bne	ra,sp,69d4 <fail>
    68b2:	0205                	addi	tp,tp,1
    68b4:	4289                	li	t0,2
    68b6:	fe521ae3          	bne	tp,t0,68aa <test_9+0x4>

000068ba <test_10>:
    68ba:	4e29                	li	t3,10
    68bc:	4201                	li	tp,0
    68be:	4081                	li	ra,0
    68c0:	4101                	li	sp,0
    68c2:	0001                	nop
    68c4:	10209863          	bne	ra,sp,69d4 <fail>
    68c8:	0205                	addi	tp,tp,1
    68ca:	4289                	li	t0,2
    68cc:	fe5219e3          	bne	tp,t0,68be <test_10+0x4>

000068d0 <test_11>:
    68d0:	4e2d                	li	t3,11
    68d2:	4201                	li	tp,0
    68d4:	4081                	li	ra,0
    68d6:	4101                	li	sp,0
    68d8:	0001                	nop
    68da:	0001                	nop
    68dc:	0e209c63          	bne	ra,sp,69d4 <fail>
    68e0:	0205                	addi	tp,tp,1
    68e2:	4289                	li	t0,2
    68e4:	fe5218e3          	bne	tp,t0,68d4 <test_11+0x4>

000068e8 <test_12>:
    68e8:	4e31                	li	t3,12
    68ea:	4201                	li	tp,0
    68ec:	4081                	li	ra,0
    68ee:	0001                	nop
    68f0:	4101                	li	sp,0
    68f2:	0e209163          	bne	ra,sp,69d4 <fail>
    68f6:	0205                	addi	tp,tp,1
    68f8:	4289                	li	t0,2
    68fa:	fe5219e3          	bne	tp,t0,68ec <test_12+0x4>

000068fe <test_13>:
    68fe:	4e35                	li	t3,13
    6900:	4201                	li	tp,0
    6902:	4081                	li	ra,0
    6904:	0001                	nop
    6906:	4101                	li	sp,0
    6908:	0001                	nop
    690a:	0c209563          	bne	ra,sp,69d4 <fail>
    690e:	0205                	addi	tp,tp,1
    6910:	4289                	li	t0,2
    6912:	fe5218e3          	bne	tp,t0,6902 <test_13+0x4>

00006916 <test_14>:
    6916:	4e39                	li	t3,14
    6918:	4201                	li	tp,0
    691a:	4081                	li	ra,0
    691c:	0001                	nop
    691e:	0001                	nop
    6920:	4101                	li	sp,0
    6922:	0a209963          	bne	ra,sp,69d4 <fail>
    6926:	0205                	addi	tp,tp,1
    6928:	4289                	li	t0,2
    692a:	fe5218e3          	bne	tp,t0,691a <test_14+0x4>

0000692e <test_15>:
    692e:	4e3d                	li	t3,15
    6930:	4201                	li	tp,0
    6932:	4081                	li	ra,0
    6934:	4101                	li	sp,0
    6936:	08209f63          	bne	ra,sp,69d4 <fail>
    693a:	0205                	addi	tp,tp,1
    693c:	4289                	li	t0,2
    693e:	fe521ae3          	bne	tp,t0,6932 <test_15+0x4>

00006942 <test_16>:
    6942:	4e41                	li	t3,16
    6944:	4201                	li	tp,0
    6946:	4081                	li	ra,0
    6948:	4101                	li	sp,0
    694a:	0001                	nop
    694c:	08209463          	bne	ra,sp,69d4 <fail>
    6950:	0205                	addi	tp,tp,1
    6952:	4289                	li	t0,2
    6954:	fe5219e3          	bne	tp,t0,6946 <test_16+0x4>

00006958 <test_17>:
    6958:	4e45                	li	t3,17
    695a:	4201                	li	tp,0
    695c:	4081                	li	ra,0
    695e:	4101                	li	sp,0
    6960:	0001                	nop
    6962:	0001                	nop
    6964:	06209863          	bne	ra,sp,69d4 <fail>
    6968:	0205                	addi	tp,tp,1
    696a:	4289                	li	t0,2
    696c:	fe5218e3          	bne	tp,t0,695c <test_17+0x4>

00006970 <test_18>:
    6970:	4e49                	li	t3,18
    6972:	4201                	li	tp,0
    6974:	4081                	li	ra,0
    6976:	0001                	nop
    6978:	4101                	li	sp,0
    697a:	04209d63          	bne	ra,sp,69d4 <fail>
    697e:	0205                	addi	tp,tp,1
    6980:	4289                	li	t0,2
    6982:	fe5219e3          	bne	tp,t0,6974 <test_18+0x4>

00006986 <test_19>:
    6986:	4e4d                	li	t3,19
    6988:	4201                	li	tp,0
    698a:	4081                	li	ra,0
    698c:	0001                	nop
    698e:	4101                	li	sp,0
    6990:	0001                	nop
    6992:	04209163          	bne	ra,sp,69d4 <fail>
    6996:	0205                	addi	tp,tp,1
    6998:	4289                	li	t0,2
    699a:	fe5218e3          	bne	tp,t0,698a <test_19+0x4>

0000699e <test_20>:
    699e:	4e51                	li	t3,20
    69a0:	4201                	li	tp,0
    69a2:	4081                	li	ra,0
    69a4:	0001                	nop
    69a6:	0001                	nop
    69a8:	4101                	li	sp,0
    69aa:	02209563          	bne	ra,sp,69d4 <fail>
    69ae:	0205                	addi	tp,tp,1
    69b0:	4289                	li	t0,2
    69b2:	fe5218e3          	bne	tp,t0,69a2 <test_20+0x4>

000069b6 <test_21>:
    69b6:	4085                	li	ra,1
    69b8:	00009663          	bnez	ra,69c4 <test_21+0xe>
    69bc:	0085                	addi	ra,ra,1
    69be:	0085                	addi	ra,ra,1
    69c0:	0085                	addi	ra,ra,1
    69c2:	0085                	addi	ra,ra,1
    69c4:	0085                	addi	ra,ra,1
    69c6:	0085                	addi	ra,ra,1
    69c8:	4e8d                	li	t4,3
    69ca:	4e55                	li	t3,21
    69cc:	01d09463          	bne	ra,t4,69d4 <fail>
    69d0:	03c01563          	bne	zero,t3,69fa <pass>

000069d4 <fail>:
    69d4:	10010537          	lui	a0,0x10010
    69d8:	00450513          	addi	a0,a0,4 # 10010004 <_sp+0xfffed24>
    69dc:	04500593          	li	a1,69
    69e0:	05200613          	li	a2,82
    69e4:	04f00693          	li	a3,79
    69e8:	00a00713          	li	a4,10
    69ec:	c10c                	sw	a1,0(a0)
    69ee:	c110                	sw	a2,0(a0)
    69f0:	c110                	sw	a2,0(a0)
    69f2:	c114                	sw	a3,0(a0)
    69f4:	c110                	sw	a2,0(a0)
    69f6:	c118                	sw	a4,0(a0)
    69f8:	9002                	ebreak

000069fa <pass>:
    69fa:	10010537          	lui	a0,0x10010
    69fe:	00450513          	addi	a0,a0,4 # 10010004 <_sp+0xfffed24>
    6a02:	04f00593          	li	a1,79
    6a06:	04b00613          	li	a2,75
    6a0a:	00a00693          	li	a3,10
    6a0e:	c10c                	sw	a1,0(a0)
    6a10:	c110                	sw	a2,0(a0)
    6a12:	c114                	sw	a3,0(a0)
    6a14:	000f0113          	mv	sp,t5
    6a18:	ffc12183          	lw	gp,-4(sp)
    6a1c:	ff812083          	lw	ra,-8(sp)
    6a20:	ff6f906f          	j	216 <bne_ret>

00006a24 <j>:
    6a24:	00010f13          	mv	t5,sp
    6a28:	fe312e23          	sw	gp,-4(sp)
    6a2c:	fe112c23          	sw	ra,-8(sp)
    6a30:	92818513          	addi	a0,gp,-1752 # 10244 <j_data>
    6a34:	10010637          	lui	a2,0x10010
    6a38:	00460613          	addi	a2,a2,4 # 10010004 <_sp+0xfffed24>

00006a3c <.prname_next>:
    6a3c:	00050583          	lb	a1,0(a0)
    6a40:	00058663          	beqz	a1,6a4c <.prname_done>
    6a44:	c20c                	sw	a1,0(a2)
    6a46:	0505                	addi	a0,a0,1
    6a48:	ff5ff06f          	j	6a3c <.prname_next>

00006a4c <.prname_done>:
    6a4c:	02e00593          	li	a1,46
    6a50:	c20c                	sw	a1,0(a2)
    6a52:	c20c                	sw	a1,0(a2)
    6a54:	4e09                	li	t3,2
    6a56:	a011                	j	6a5a <test_2>
    6a58:	a839                	j	6a76 <fail>

00006a5a <test_2>:
    6a5a:	4085                	li	ra,1
    6a5c:	a029                	j	6a66 <test_2+0xc>
    6a5e:	0085                	addi	ra,ra,1
    6a60:	0085                	addi	ra,ra,1
    6a62:	0085                	addi	ra,ra,1
    6a64:	0085                	addi	ra,ra,1
    6a66:	0085                	addi	ra,ra,1
    6a68:	0085                	addi	ra,ra,1
    6a6a:	4e8d                	li	t4,3
    6a6c:	4e0d                	li	t3,3
    6a6e:	01d09463          	bne	ra,t4,6a76 <fail>
    6a72:	03c01563          	bne	zero,t3,6a9c <pass>

00006a76 <fail>:
    6a76:	10010537          	lui	a0,0x10010
    6a7a:	00450513          	addi	a0,a0,4 # 10010004 <_sp+0xfffed24>
    6a7e:	04500593          	li	a1,69
    6a82:	05200613          	li	a2,82
    6a86:	04f00693          	li	a3,79
    6a8a:	00a00713          	li	a4,10
    6a8e:	c10c                	sw	a1,0(a0)
    6a90:	c110                	sw	a2,0(a0)
    6a92:	c110                	sw	a2,0(a0)
    6a94:	c114                	sw	a3,0(a0)
    6a96:	c110                	sw	a2,0(a0)
    6a98:	c118                	sw	a4,0(a0)
    6a9a:	9002                	ebreak

00006a9c <pass>:
    6a9c:	10010537          	lui	a0,0x10010
    6aa0:	00450513          	addi	a0,a0,4 # 10010004 <_sp+0xfffed24>
    6aa4:	04f00593          	li	a1,79
    6aa8:	04b00613          	li	a2,75
    6aac:	00a00693          	li	a3,10
    6ab0:	c10c                	sw	a1,0(a0)
    6ab2:	c110                	sw	a2,0(a0)
    6ab4:	c114                	sw	a3,0(a0)
    6ab6:	000f0113          	mv	sp,t5
    6aba:	ffc12183          	lw	gp,-4(sp)
    6abe:	ff812083          	lw	ra,-8(sp)
    6ac2:	f34f906f          	j	1f6 <j_ret>

00006ac6 <slti>:
    6ac6:	00010f13          	mv	t5,sp
    6aca:	fe312e23          	sw	gp,-4(sp)
    6ace:	fe112c23          	sw	ra,-8(sp)
    6ad2:	92c18513          	addi	a0,gp,-1748 # 10248 <slti_data>
    6ad6:	10010637          	lui	a2,0x10010
    6ada:	00460613          	addi	a2,a2,4 # 10010004 <_sp+0xfffed24>

00006ade <.prname_next>:
    6ade:	00050583          	lb	a1,0(a0)
    6ae2:	00058663          	beqz	a1,6aee <.prname_done>
    6ae6:	c20c                	sw	a1,0(a2)
    6ae8:	0505                	addi	a0,a0,1
    6aea:	ff5ff06f          	j	6ade <.prname_next>

00006aee <.prname_done>:
    6aee:	02e00593          	li	a1,46
    6af2:	c20c                	sw	a1,0(a2)
    6af4:	c20c                	sw	a1,0(a2)

00006af6 <test_2>:
    6af6:	4081                	li	ra,0
    6af8:	0000a193          	slti	gp,ra,0
    6afc:	4e81                	li	t4,0
    6afe:	4e09                	li	t3,2
    6b00:	1bd19f63          	bne	gp,t4,6cbe <fail>

00006b04 <test_3>:
    6b04:	4085                	li	ra,1
    6b06:	0010a193          	slti	gp,ra,1
    6b0a:	4e81                	li	t4,0
    6b0c:	4e0d                	li	t3,3
    6b0e:	1bd19863          	bne	gp,t4,6cbe <fail>

00006b12 <test_4>:
    6b12:	408d                	li	ra,3
    6b14:	0070a193          	slti	gp,ra,7
    6b18:	4e85                	li	t4,1
    6b1a:	4e11                	li	t3,4
    6b1c:	1bd19163          	bne	gp,t4,6cbe <fail>

00006b20 <test_5>:
    6b20:	409d                	li	ra,7
    6b22:	0030a193          	slti	gp,ra,3
    6b26:	4e81                	li	t4,0
    6b28:	4e15                	li	t3,5
    6b2a:	19d19a63          	bne	gp,t4,6cbe <fail>

00006b2e <test_6>:
    6b2e:	4081                	li	ra,0
    6b30:	8000a193          	slti	gp,ra,-2048
    6b34:	4e81                	li	t4,0
    6b36:	4e19                	li	t3,6
    6b38:	19d19363          	bne	gp,t4,6cbe <fail>

00006b3c <test_7>:
    6b3c:	800000b7          	lui	ra,0x80000
    6b40:	0000a193          	slti	gp,ra,0
    6b44:	4e85                	li	t4,1
    6b46:	4e1d                	li	t3,7
    6b48:	17d19b63          	bne	gp,t4,6cbe <fail>

00006b4c <test_8>:
    6b4c:	800000b7          	lui	ra,0x80000
    6b50:	8000a193          	slti	gp,ra,-2048
    6b54:	4e85                	li	t4,1
    6b56:	4e21                	li	t3,8
    6b58:	17d19363          	bne	gp,t4,6cbe <fail>

00006b5c <test_9>:
    6b5c:	4081                	li	ra,0
    6b5e:	7ff0a193          	slti	gp,ra,2047
    6b62:	4e85                	li	t4,1
    6b64:	4e25                	li	t3,9
    6b66:	15d19c63          	bne	gp,t4,6cbe <fail>

00006b6a <test_10>:
    6b6a:	800000b7          	lui	ra,0x80000
    6b6e:	fff08093          	addi	ra,ra,-1 # 7fffffff <pulp__FC+0x80000000>
    6b72:	0000a193          	slti	gp,ra,0
    6b76:	4e81                	li	t4,0
    6b78:	4e29                	li	t3,10
    6b7a:	15d19263          	bne	gp,t4,6cbe <fail>

00006b7e <test_11>:
    6b7e:	800000b7          	lui	ra,0x80000
    6b82:	fff08093          	addi	ra,ra,-1 # 7fffffff <pulp__FC+0x80000000>
    6b86:	7ff0a193          	slti	gp,ra,2047
    6b8a:	4e81                	li	t4,0
    6b8c:	4e2d                	li	t3,11
    6b8e:	13d19863          	bne	gp,t4,6cbe <fail>

00006b92 <test_12>:
    6b92:	800000b7          	lui	ra,0x80000
    6b96:	7ff0a193          	slti	gp,ra,2047
    6b9a:	4e85                	li	t4,1
    6b9c:	4e31                	li	t3,12
    6b9e:	13d19063          	bne	gp,t4,6cbe <fail>

00006ba2 <test_13>:
    6ba2:	800000b7          	lui	ra,0x80000
    6ba6:	fff08093          	addi	ra,ra,-1 # 7fffffff <pulp__FC+0x80000000>
    6baa:	8000a193          	slti	gp,ra,-2048
    6bae:	4e81                	li	t4,0
    6bb0:	4e35                	li	t3,13
    6bb2:	11d19663          	bne	gp,t4,6cbe <fail>

00006bb6 <test_14>:
    6bb6:	4081                	li	ra,0
    6bb8:	fff0a193          	slti	gp,ra,-1
    6bbc:	4e81                	li	t4,0
    6bbe:	4e39                	li	t3,14
    6bc0:	0fd19f63          	bne	gp,t4,6cbe <fail>

00006bc4 <test_15>:
    6bc4:	fff00093          	li	ra,-1
    6bc8:	0010a193          	slti	gp,ra,1
    6bcc:	4e85                	li	t4,1
    6bce:	4e3d                	li	t3,15
    6bd0:	0fd19763          	bne	gp,t4,6cbe <fail>

00006bd4 <test_16>:
    6bd4:	fff00093          	li	ra,-1
    6bd8:	fff0a193          	slti	gp,ra,-1
    6bdc:	4e81                	li	t4,0
    6bde:	4e41                	li	t3,16
    6be0:	0dd19f63          	bne	gp,t4,6cbe <fail>

00006be4 <test_17>:
    6be4:	40ad                	li	ra,11
    6be6:	00d0b093          	sltiu	ra,ra,13
    6bea:	4e85                	li	t4,1
    6bec:	4e45                	li	t3,17
    6bee:	0dd09863          	bne	ra,t4,6cbe <fail>

00006bf2 <test_18>:
    6bf2:	4201                	li	tp,0
    6bf4:	40bd                	li	ra,15
    6bf6:	00a0a193          	slti	gp,ra,10
    6bfa:	00018313          	mv	t1,gp
    6bfe:	0205                	addi	tp,tp,1
    6c00:	4289                	li	t0,2
    6c02:	fe5219e3          	bne	tp,t0,6bf4 <test_18+0x2>
    6c06:	4e81                	li	t4,0
    6c08:	4e49                	li	t3,18
    6c0a:	0bd31a63          	bne	t1,t4,6cbe <fail>

00006c0e <test_19>:
    6c0e:	4201                	li	tp,0
    6c10:	40a9                	li	ra,10
    6c12:	0100a193          	slti	gp,ra,16
    6c16:	0001                	nop
    6c18:	00018313          	mv	t1,gp
    6c1c:	0205                	addi	tp,tp,1
    6c1e:	4289                	li	t0,2
    6c20:	fe5218e3          	bne	tp,t0,6c10 <test_19+0x2>
    6c24:	4e85                	li	t4,1
    6c26:	4e4d                	li	t3,19
    6c28:	09d31b63          	bne	t1,t4,6cbe <fail>

00006c2c <test_20>:
    6c2c:	4201                	li	tp,0
    6c2e:	40c1                	li	ra,16
    6c30:	0090a193          	slti	gp,ra,9
    6c34:	0001                	nop
    6c36:	0001                	nop
    6c38:	00018313          	mv	t1,gp
    6c3c:	0205                	addi	tp,tp,1
    6c3e:	4289                	li	t0,2
    6c40:	fe5217e3          	bne	tp,t0,6c2e <test_20+0x2>
    6c44:	4e81                	li	t4,0
    6c46:	4e51                	li	t3,20
    6c48:	07d31b63          	bne	t1,t4,6cbe <fail>

00006c4c <test_21>:
    6c4c:	4201                	li	tp,0
    6c4e:	40ad                	li	ra,11
    6c50:	00f0a193          	slti	gp,ra,15
    6c54:	0205                	addi	tp,tp,1
    6c56:	4289                	li	t0,2
    6c58:	fe521be3          	bne	tp,t0,6c4e <test_21+0x2>
    6c5c:	4e85                	li	t4,1
    6c5e:	4e55                	li	t3,21
    6c60:	05d19f63          	bne	gp,t4,6cbe <fail>

00006c64 <test_22>:
    6c64:	4201                	li	tp,0
    6c66:	40c5                	li	ra,17
    6c68:	0001                	nop
    6c6a:	0080a193          	slti	gp,ra,8
    6c6e:	0205                	addi	tp,tp,1
    6c70:	4289                	li	t0,2
    6c72:	fe521ae3          	bne	tp,t0,6c66 <test_22+0x2>
    6c76:	4e81                	li	t4,0
    6c78:	4e59                	li	t3,22
    6c7a:	05d19263          	bne	gp,t4,6cbe <fail>

00006c7e <test_23>:
    6c7e:	4201                	li	tp,0
    6c80:	40b1                	li	ra,12
    6c82:	0001                	nop
    6c84:	0001                	nop
    6c86:	00e0a193          	slti	gp,ra,14
    6c8a:	0205                	addi	tp,tp,1
    6c8c:	4289                	li	t0,2
    6c8e:	fe5219e3          	bne	tp,t0,6c80 <test_23+0x2>
    6c92:	4e85                	li	t4,1
    6c94:	4e5d                	li	t3,23
    6c96:	03d19463          	bne	gp,t4,6cbe <fail>

00006c9a <test_24>:
    6c9a:	fff02093          	slti	ra,zero,-1
    6c9e:	4e81                	li	t4,0
    6ca0:	4e61                	li	t3,24
    6ca2:	01d09e63          	bne	ra,t4,6cbe <fail>

00006ca6 <test_25>:
    6ca6:	00ff00b7          	lui	ra,0xff0
    6caa:	0ff08093          	addi	ra,ra,255 # ff00ff <_sp+0xfdee1f>
    6cae:	fff0a013          	slti	zero,ra,-1
    6cb2:	4e81                	li	t4,0
    6cb4:	4e65                	li	t3,25
    6cb6:	01d01463          	bne	zero,t4,6cbe <fail>
    6cba:	03c01563          	bne	zero,t3,6ce4 <pass>

00006cbe <fail>:
    6cbe:	10010537          	lui	a0,0x10010
    6cc2:	00450513          	addi	a0,a0,4 # 10010004 <_sp+0xfffed24>
    6cc6:	04500593          	li	a1,69
    6cca:	05200613          	li	a2,82
    6cce:	04f00693          	li	a3,79
    6cd2:	00a00713          	li	a4,10
    6cd6:	c10c                	sw	a1,0(a0)
    6cd8:	c110                	sw	a2,0(a0)
    6cda:	c110                	sw	a2,0(a0)
    6cdc:	c114                	sw	a3,0(a0)
    6cde:	c110                	sw	a2,0(a0)
    6ce0:	c118                	sw	a4,0(a0)
    6ce2:	9002                	ebreak

00006ce4 <pass>:
    6ce4:	10010537          	lui	a0,0x10010
    6ce8:	00450513          	addi	a0,a0,4 # 10010004 <_sp+0xfffed24>
    6cec:	04f00593          	li	a1,79
    6cf0:	04b00613          	li	a2,75
    6cf4:	00a00693          	li	a3,10
    6cf8:	c10c                	sw	a1,0(a0)
    6cfa:	c110                	sw	a2,0(a0)
    6cfc:	c114                	sw	a3,0(a0)
    6cfe:	000f0113          	mv	sp,t5
    6d02:	ffc12183          	lw	gp,-4(sp)
    6d06:	ff812083          	lw	ra,-8(sp)
    6d0a:	d7cf906f          	j	286 <slti_ret>

00006d0e <mulhu>:
    6d0e:	00010f13          	mv	t5,sp
    6d12:	fe312e23          	sw	gp,-4(sp)
    6d16:	fe112c23          	sw	ra,-8(sp)
    6d1a:	93418513          	addi	a0,gp,-1740 # 10250 <mulhu_data>
    6d1e:	10010637          	lui	a2,0x10010
    6d22:	00460613          	addi	a2,a2,4 # 10010004 <_sp+0xfffed24>

00006d26 <.prname_next>:
    6d26:	00050583          	lb	a1,0(a0)
    6d2a:	00058663          	beqz	a1,6d36 <.prname_done>
    6d2e:	c20c                	sw	a1,0(a2)
    6d30:	0505                	addi	a0,a0,1
    6d32:	ff5ff06f          	j	6d26 <.prname_next>

00006d36 <.prname_done>:
    6d36:	02e00593          	li	a1,46
    6d3a:	c20c                	sw	a1,0(a2)
    6d3c:	c20c                	sw	a1,0(a2)

00006d3e <test_2>:
    6d3e:	4081                	li	ra,0
    6d40:	4101                	li	sp,0
    6d42:	0220b1b3          	mulhu	gp,ra,sp
    6d46:	4e81                	li	t4,0
    6d48:	4e09                	li	t3,2
    6d4a:	3dd19b63          	bne	gp,t4,7120 <fail>

00006d4e <test_3>:
    6d4e:	4085                	li	ra,1
    6d50:	4105                	li	sp,1
    6d52:	0220b1b3          	mulhu	gp,ra,sp
    6d56:	4e81                	li	t4,0
    6d58:	4e0d                	li	t3,3
    6d5a:	3dd19363          	bne	gp,t4,7120 <fail>

00006d5e <test_4>:
    6d5e:	408d                	li	ra,3
    6d60:	411d                	li	sp,7
    6d62:	0220b1b3          	mulhu	gp,ra,sp
    6d66:	4e81                	li	t4,0
    6d68:	4e11                	li	t3,4
    6d6a:	3bd19b63          	bne	gp,t4,7120 <fail>

00006d6e <test_5>:
    6d6e:	4081                	li	ra,0
    6d70:	ffff8137          	lui	sp,0xffff8
    6d74:	0220b1b3          	mulhu	gp,ra,sp
    6d78:	4e81                	li	t4,0
    6d7a:	4e15                	li	t3,5
    6d7c:	3bd19263          	bne	gp,t4,7120 <fail>

00006d80 <test_6>:
    6d80:	800000b7          	lui	ra,0x80000
    6d84:	4101                	li	sp,0
    6d86:	0220b1b3          	mulhu	gp,ra,sp
    6d8a:	4e81                	li	t4,0
    6d8c:	4e19                	li	t3,6
    6d8e:	39d19963          	bne	gp,t4,7120 <fail>

00006d92 <test_7>:
    6d92:	800000b7          	lui	ra,0x80000
    6d96:	ffff8137          	lui	sp,0xffff8
    6d9a:	0220b1b3          	mulhu	gp,ra,sp
    6d9e:	7fffceb7          	lui	t4,0x7fffc
    6da2:	4e1d                	li	t3,7
    6da4:	37d19e63          	bne	gp,t4,7120 <fail>

00006da8 <test_30>:
    6da8:	aaaab0b7          	lui	ra,0xaaaab
    6dac:	aab08093          	addi	ra,ra,-1365 # aaaaaaab <pulp__FC+0xaaaaaaac>
    6db0:	00030137          	lui	sp,0x30
    6db4:	e7d10113          	addi	sp,sp,-387 # 2fe7d <_sp+0x1eb9d>
    6db8:	0220b1b3          	mulhu	gp,ra,sp
    6dbc:	00020eb7          	lui	t4,0x20
    6dc0:	efee8e93          	addi	t4,t4,-258 # 1fefe <_sp+0xec1e>
    6dc4:	4e79                	li	t3,30
    6dc6:	35d19d63          	bne	gp,t4,7120 <fail>

00006dca <test_31>:
    6dca:	000300b7          	lui	ra,0x30
    6dce:	e7d08093          	addi	ra,ra,-387 # 2fe7d <_sp+0x1eb9d>
    6dd2:	aaaab137          	lui	sp,0xaaaab
    6dd6:	aab10113          	addi	sp,sp,-1365 # aaaaaaab <pulp__FC+0xaaaaaaac>
    6dda:	0220b1b3          	mulhu	gp,ra,sp
    6dde:	00020eb7          	lui	t4,0x20
    6de2:	efee8e93          	addi	t4,t4,-258 # 1fefe <_sp+0xec1e>
    6de6:	4e7d                	li	t3,31
    6de8:	33d19c63          	bne	gp,t4,7120 <fail>

00006dec <test_32>:
    6dec:	ff0000b7          	lui	ra,0xff000
    6df0:	ff000137          	lui	sp,0xff000
    6df4:	0220b1b3          	mulhu	gp,ra,sp
    6df8:	fe010eb7          	lui	t4,0xfe010
    6dfc:	02000e13          	li	t3,32
    6e00:	33d19063          	bne	gp,t4,7120 <fail>

00006e04 <test_33>:
    6e04:	fff00093          	li	ra,-1
    6e08:	fff00113          	li	sp,-1
    6e0c:	0220b1b3          	mulhu	gp,ra,sp
    6e10:	ffe00e93          	li	t4,-2
    6e14:	02100e13          	li	t3,33
    6e18:	31d19463          	bne	gp,t4,7120 <fail>

00006e1c <test_34>:
    6e1c:	fff00093          	li	ra,-1
    6e20:	4105                	li	sp,1
    6e22:	0220b1b3          	mulhu	gp,ra,sp
    6e26:	4e81                	li	t4,0
    6e28:	02200e13          	li	t3,34
    6e2c:	2fd19a63          	bne	gp,t4,7120 <fail>

00006e30 <test_35>:
    6e30:	4085                	li	ra,1
    6e32:	fff00113          	li	sp,-1
    6e36:	0220b1b3          	mulhu	gp,ra,sp
    6e3a:	4e81                	li	t4,0
    6e3c:	02300e13          	li	t3,35
    6e40:	2fd19063          	bne	gp,t4,7120 <fail>

00006e44 <test_8>:
    6e44:	00d000b7          	lui	ra,0xd00
    6e48:	00b00137          	lui	sp,0xb00
    6e4c:	0220b0b3          	mulhu	ra,ra,sp
    6e50:	00009eb7          	lui	t4,0x9
    6e54:	f00e8e93          	addi	t4,t4,-256 # 8f00 <__read_next_512b_first32b+0x3b8>
    6e58:	4e21                	li	t3,8
    6e5a:	2dd09363          	bne	ra,t4,7120 <fail>

00006e5e <test_9>:
    6e5e:	00e000b7          	lui	ra,0xe00
    6e62:	00b00137          	lui	sp,0xb00
    6e66:	0220b133          	mulhu	sp,ra,sp
    6e6a:	0000aeb7          	lui	t4,0xa
    6e6e:	a00e8e93          	addi	t4,t4,-1536 # 9a00 <__read_next_512b_first32b+0xeb8>
    6e72:	4e25                	li	t3,9
    6e74:	2bd11663          	bne	sp,t4,7120 <fail>

00006e78 <test_10>:
    6e78:	00d000b7          	lui	ra,0xd00
    6e7c:	0210b0b3          	mulhu	ra,ra,ra
    6e80:	0000beb7          	lui	t4,0xb
    6e84:	900e8e93          	addi	t4,t4,-1792 # a900 <__read_next_512b_first32b+0x1db8>
    6e88:	4e29                	li	t3,10
    6e8a:	29d09b63          	bne	ra,t4,7120 <fail>

00006e8e <test_11>:
    6e8e:	4201                	li	tp,0
    6e90:	00d000b7          	lui	ra,0xd00
    6e94:	00b00137          	lui	sp,0xb00
    6e98:	0220b1b3          	mulhu	gp,ra,sp
    6e9c:	00018313          	mv	t1,gp
    6ea0:	0205                	addi	tp,tp,1
    6ea2:	4289                	li	t0,2
    6ea4:	fe5216e3          	bne	tp,t0,6e90 <test_11+0x2>
    6ea8:	00009eb7          	lui	t4,0x9
    6eac:	f00e8e93          	addi	t4,t4,-256 # 8f00 <__read_next_512b_first32b+0x3b8>
    6eb0:	4e2d                	li	t3,11
    6eb2:	27d31763          	bne	t1,t4,7120 <fail>

00006eb6 <test_12>:
    6eb6:	4201                	li	tp,0
    6eb8:	00e000b7          	lui	ra,0xe00
    6ebc:	00b00137          	lui	sp,0xb00
    6ec0:	0220b1b3          	mulhu	gp,ra,sp
    6ec4:	0001                	nop
    6ec6:	00018313          	mv	t1,gp
    6eca:	0205                	addi	tp,tp,1
    6ecc:	4289                	li	t0,2
    6ece:	fe5215e3          	bne	tp,t0,6eb8 <test_12+0x2>
    6ed2:	0000aeb7          	lui	t4,0xa
    6ed6:	a00e8e93          	addi	t4,t4,-1536 # 9a00 <__read_next_512b_first32b+0xeb8>
    6eda:	4e31                	li	t3,12
    6edc:	25d31263          	bne	t1,t4,7120 <fail>

00006ee0 <test_13>:
    6ee0:	4201                	li	tp,0
    6ee2:	00f000b7          	lui	ra,0xf00
    6ee6:	00b00137          	lui	sp,0xb00
    6eea:	0220b1b3          	mulhu	gp,ra,sp
    6eee:	0001                	nop
    6ef0:	0001                	nop
    6ef2:	00018313          	mv	t1,gp
    6ef6:	0205                	addi	tp,tp,1
    6ef8:	4289                	li	t0,2
    6efa:	fe5214e3          	bne	tp,t0,6ee2 <test_13+0x2>
    6efe:	0000aeb7          	lui	t4,0xa
    6f02:	500e8e93          	addi	t4,t4,1280 # a500 <__read_next_512b_first32b+0x19b8>
    6f06:	4e35                	li	t3,13
    6f08:	21d31c63          	bne	t1,t4,7120 <fail>

00006f0c <test_14>:
    6f0c:	4201                	li	tp,0
    6f0e:	00d000b7          	lui	ra,0xd00
    6f12:	00b00137          	lui	sp,0xb00
    6f16:	0220b1b3          	mulhu	gp,ra,sp
    6f1a:	0205                	addi	tp,tp,1
    6f1c:	4289                	li	t0,2
    6f1e:	fe5218e3          	bne	tp,t0,6f0e <test_14+0x2>
    6f22:	00009eb7          	lui	t4,0x9
    6f26:	f00e8e93          	addi	t4,t4,-256 # 8f00 <__read_next_512b_first32b+0x3b8>
    6f2a:	4e39                	li	t3,14
    6f2c:	1fd19a63          	bne	gp,t4,7120 <fail>

00006f30 <test_15>:
    6f30:	4201                	li	tp,0
    6f32:	00e000b7          	lui	ra,0xe00
    6f36:	00b00137          	lui	sp,0xb00
    6f3a:	0001                	nop
    6f3c:	0220b1b3          	mulhu	gp,ra,sp
    6f40:	0205                	addi	tp,tp,1
    6f42:	4289                	li	t0,2
    6f44:	fe5217e3          	bne	tp,t0,6f32 <test_15+0x2>
    6f48:	0000aeb7          	lui	t4,0xa
    6f4c:	a00e8e93          	addi	t4,t4,-1536 # 9a00 <__read_next_512b_first32b+0xeb8>
    6f50:	4e3d                	li	t3,15
    6f52:	1dd19763          	bne	gp,t4,7120 <fail>

00006f56 <test_16>:
    6f56:	4201                	li	tp,0
    6f58:	00f000b7          	lui	ra,0xf00
    6f5c:	00b00137          	lui	sp,0xb00
    6f60:	0001                	nop
    6f62:	0001                	nop
    6f64:	0220b1b3          	mulhu	gp,ra,sp
    6f68:	0205                	addi	tp,tp,1
    6f6a:	4289                	li	t0,2
    6f6c:	fe5216e3          	bne	tp,t0,6f58 <test_16+0x2>
    6f70:	0000aeb7          	lui	t4,0xa
    6f74:	500e8e93          	addi	t4,t4,1280 # a500 <__read_next_512b_first32b+0x19b8>
    6f78:	4e41                	li	t3,16
    6f7a:	1bd19363          	bne	gp,t4,7120 <fail>

00006f7e <test_17>:
    6f7e:	4201                	li	tp,0
    6f80:	00d000b7          	lui	ra,0xd00
    6f84:	0001                	nop
    6f86:	00b00137          	lui	sp,0xb00
    6f8a:	0220b1b3          	mulhu	gp,ra,sp
    6f8e:	0205                	addi	tp,tp,1
    6f90:	4289                	li	t0,2
    6f92:	fe5217e3          	bne	tp,t0,6f80 <test_17+0x2>
    6f96:	00009eb7          	lui	t4,0x9
    6f9a:	f00e8e93          	addi	t4,t4,-256 # 8f00 <__read_next_512b_first32b+0x3b8>
    6f9e:	4e45                	li	t3,17
    6fa0:	19d19063          	bne	gp,t4,7120 <fail>

00006fa4 <test_18>:
    6fa4:	4201                	li	tp,0
    6fa6:	00e000b7          	lui	ra,0xe00
    6faa:	0001                	nop
    6fac:	00b00137          	lui	sp,0xb00
    6fb0:	0001                	nop
    6fb2:	0220b1b3          	mulhu	gp,ra,sp
    6fb6:	0205                	addi	tp,tp,1
    6fb8:	4289                	li	t0,2
    6fba:	fe5216e3          	bne	tp,t0,6fa6 <test_18+0x2>
    6fbe:	0000aeb7          	lui	t4,0xa
    6fc2:	a00e8e93          	addi	t4,t4,-1536 # 9a00 <__read_next_512b_first32b+0xeb8>
    6fc6:	4e49                	li	t3,18
    6fc8:	15d19c63          	bne	gp,t4,7120 <fail>

00006fcc <test_19>:
    6fcc:	4201                	li	tp,0
    6fce:	00f000b7          	lui	ra,0xf00
    6fd2:	0001                	nop
    6fd4:	0001                	nop
    6fd6:	00b00137          	lui	sp,0xb00
    6fda:	0220b1b3          	mulhu	gp,ra,sp
    6fde:	0205                	addi	tp,tp,1
    6fe0:	4289                	li	t0,2
    6fe2:	fe5216e3          	bne	tp,t0,6fce <test_19+0x2>
    6fe6:	0000aeb7          	lui	t4,0xa
    6fea:	500e8e93          	addi	t4,t4,1280 # a500 <__read_next_512b_first32b+0x19b8>
    6fee:	4e4d                	li	t3,19
    6ff0:	13d19863          	bne	gp,t4,7120 <fail>

00006ff4 <test_20>:
    6ff4:	4201                	li	tp,0
    6ff6:	00b00137          	lui	sp,0xb00
    6ffa:	00d000b7          	lui	ra,0xd00
    6ffe:	0220b1b3          	mulhu	gp,ra,sp
    7002:	0205                	addi	tp,tp,1
    7004:	4289                	li	t0,2
    7006:	fe5218e3          	bne	tp,t0,6ff6 <test_20+0x2>
    700a:	00009eb7          	lui	t4,0x9
    700e:	f00e8e93          	addi	t4,t4,-256 # 8f00 <__read_next_512b_first32b+0x3b8>
    7012:	4e51                	li	t3,20
    7014:	11d19663          	bne	gp,t4,7120 <fail>

00007018 <test_21>:
    7018:	4201                	li	tp,0
    701a:	00b00137          	lui	sp,0xb00
    701e:	00e000b7          	lui	ra,0xe00
    7022:	0001                	nop
    7024:	0220b1b3          	mulhu	gp,ra,sp
    7028:	0205                	addi	tp,tp,1
    702a:	4289                	li	t0,2
    702c:	fe5217e3          	bne	tp,t0,701a <test_21+0x2>
    7030:	0000aeb7          	lui	t4,0xa
    7034:	a00e8e93          	addi	t4,t4,-1536 # 9a00 <__read_next_512b_first32b+0xeb8>
    7038:	4e55                	li	t3,21
    703a:	0fd19363          	bne	gp,t4,7120 <fail>

0000703e <test_22>:
    703e:	4201                	li	tp,0
    7040:	00b00137          	lui	sp,0xb00
    7044:	00f000b7          	lui	ra,0xf00
    7048:	0001                	nop
    704a:	0001                	nop
    704c:	0220b1b3          	mulhu	gp,ra,sp
    7050:	0205                	addi	tp,tp,1
    7052:	4289                	li	t0,2
    7054:	fe5216e3          	bne	tp,t0,7040 <test_22+0x2>
    7058:	0000aeb7          	lui	t4,0xa
    705c:	500e8e93          	addi	t4,t4,1280 # a500 <__read_next_512b_first32b+0x19b8>
    7060:	4e59                	li	t3,22
    7062:	0bd19f63          	bne	gp,t4,7120 <fail>

00007066 <test_23>:
    7066:	4201                	li	tp,0
    7068:	00b00137          	lui	sp,0xb00
    706c:	0001                	nop
    706e:	00d000b7          	lui	ra,0xd00
    7072:	0220b1b3          	mulhu	gp,ra,sp
    7076:	0205                	addi	tp,tp,1
    7078:	4289                	li	t0,2
    707a:	fe5217e3          	bne	tp,t0,7068 <test_23+0x2>
    707e:	00009eb7          	lui	t4,0x9
    7082:	f00e8e93          	addi	t4,t4,-256 # 8f00 <__read_next_512b_first32b+0x3b8>
    7086:	4e5d                	li	t3,23
    7088:	09d19c63          	bne	gp,t4,7120 <fail>

0000708c <test_24>:
    708c:	4201                	li	tp,0
    708e:	00b00137          	lui	sp,0xb00
    7092:	0001                	nop
    7094:	00e000b7          	lui	ra,0xe00
    7098:	0001                	nop
    709a:	0220b1b3          	mulhu	gp,ra,sp
    709e:	0205                	addi	tp,tp,1
    70a0:	4289                	li	t0,2
    70a2:	fe5216e3          	bne	tp,t0,708e <test_24+0x2>
    70a6:	0000aeb7          	lui	t4,0xa
    70aa:	a00e8e93          	addi	t4,t4,-1536 # 9a00 <__read_next_512b_first32b+0xeb8>
    70ae:	4e61                	li	t3,24
    70b0:	07d19863          	bne	gp,t4,7120 <fail>

000070b4 <test_25>:
    70b4:	4201                	li	tp,0
    70b6:	00b00137          	lui	sp,0xb00
    70ba:	0001                	nop
    70bc:	0001                	nop
    70be:	00f000b7          	lui	ra,0xf00
    70c2:	0220b1b3          	mulhu	gp,ra,sp
    70c6:	0205                	addi	tp,tp,1
    70c8:	4289                	li	t0,2
    70ca:	fe5216e3          	bne	tp,t0,70b6 <test_25+0x2>
    70ce:	0000aeb7          	lui	t4,0xa
    70d2:	500e8e93          	addi	t4,t4,1280 # a500 <__read_next_512b_first32b+0x19b8>
    70d6:	4e65                	li	t3,25
    70d8:	05d19463          	bne	gp,t4,7120 <fail>

000070dc <test_26>:
    70dc:	7c0000b7          	lui	ra,0x7c000
    70e0:	02103133          	mulhu	sp,zero,ra
    70e4:	4e81                	li	t4,0
    70e6:	4e69                	li	t3,26
    70e8:	03d11c63          	bne	sp,t4,7120 <fail>

000070ec <test_27>:
    70ec:	800000b7          	lui	ra,0x80000
    70f0:	0200b133          	mulhu	sp,ra,zero
    70f4:	4e81                	li	t4,0
    70f6:	4e6d                	li	t3,27
    70f8:	03d11463          	bne	sp,t4,7120 <fail>

000070fc <test_28>:
    70fc:	020030b3          	mulhu	ra,zero,zero
    7100:	4e81                	li	t4,0
    7102:	4e71                	li	t3,28
    7104:	01d09e63          	bne	ra,t4,7120 <fail>

00007108 <test_29>:
    7108:	021000b7          	lui	ra,0x2100
    710c:	02200137          	lui	sp,0x2200
    7110:	0220b033          	mulhu	zero,ra,sp
    7114:	4e81                	li	t4,0
    7116:	4e75                	li	t3,29
    7118:	01d01463          	bne	zero,t4,7120 <fail>
    711c:	03c01563          	bne	zero,t3,7146 <pass>

00007120 <fail>:
    7120:	10010537          	lui	a0,0x10010
    7124:	00450513          	addi	a0,a0,4 # 10010004 <_sp+0xfffed24>
    7128:	04500593          	li	a1,69
    712c:	05200613          	li	a2,82
    7130:	04f00693          	li	a3,79
    7134:	00a00713          	li	a4,10
    7138:	c10c                	sw	a1,0(a0)
    713a:	c110                	sw	a2,0(a0)
    713c:	c110                	sw	a2,0(a0)
    713e:	c114                	sw	a3,0(a0)
    7140:	c110                	sw	a2,0(a0)
    7142:	c118                	sw	a4,0(a0)
    7144:	9002                	ebreak

00007146 <pass>:
    7146:	10010537          	lui	a0,0x10010
    714a:	00450513          	addi	a0,a0,4 # 10010004 <_sp+0xfffed24>
    714e:	04f00593          	li	a1,79
    7152:	04b00613          	li	a2,75
    7156:	00a00693          	li	a3,10
    715a:	c10c                	sw	a1,0(a0)
    715c:	c110                	sw	a2,0(a0)
    715e:	c114                	sw	a3,0(a0)
    7160:	000f0113          	mv	sp,t5
    7164:	ffc12183          	lw	gp,-4(sp) # 21ffffc <_sp+0x21eed1c>
    7168:	ff812083          	lw	ra,-8(sp)
    716c:	9ccf906f          	j	338 <mulhu_ret>

00007170 <div>:
    7170:	00010f13          	mv	t5,sp
    7174:	fe312e23          	sw	gp,-4(sp)
    7178:	fe112c23          	sw	ra,-8(sp)
    717c:	93c18513          	addi	a0,gp,-1732 # 10258 <div_data>
    7180:	10010637          	lui	a2,0x10010
    7184:	00460613          	addi	a2,a2,4 # 10010004 <_sp+0xfffed24>

00007188 <.prname_next>:
    7188:	00050583          	lb	a1,0(a0)
    718c:	00058663          	beqz	a1,7198 <.prname_done>
    7190:	c20c                	sw	a1,0(a2)
    7192:	0505                	addi	a0,a0,1
    7194:	ff5ff06f          	j	7188 <.prname_next>

00007198 <.prname_done>:
    7198:	02e00593          	li	a1,46
    719c:	c20c                	sw	a1,0(a2)
    719e:	c20c                	sw	a1,0(a2)

000071a0 <test_2>:
    71a0:	40d1                	li	ra,20
    71a2:	4119                	li	sp,6
    71a4:	0220c1b3          	div	gp,ra,sp
    71a8:	4e8d                	li	t4,3
    71aa:	4e09                	li	t3,2
    71ac:	09d19963          	bne	gp,t4,723e <fail>

000071b0 <test_3>:
    71b0:	50b1                	li	ra,-20
    71b2:	4119                	li	sp,6
    71b4:	0220c1b3          	div	gp,ra,sp
    71b8:	5ef5                	li	t4,-3
    71ba:	4e0d                	li	t3,3
    71bc:	09d19163          	bne	gp,t4,723e <fail>

000071c0 <test_4>:
    71c0:	40d1                	li	ra,20
    71c2:	5169                	li	sp,-6
    71c4:	0220c1b3          	div	gp,ra,sp
    71c8:	5ef5                	li	t4,-3
    71ca:	4e11                	li	t3,4
    71cc:	07d19963          	bne	gp,t4,723e <fail>

000071d0 <test_5>:
    71d0:	50b1                	li	ra,-20
    71d2:	5169                	li	sp,-6
    71d4:	0220c1b3          	div	gp,ra,sp
    71d8:	4e8d                	li	t4,3
    71da:	4e15                	li	t3,5
    71dc:	07d19163          	bne	gp,t4,723e <fail>

000071e0 <test_6>:
    71e0:	800000b7          	lui	ra,0x80000
    71e4:	4105                	li	sp,1
    71e6:	0220c1b3          	div	gp,ra,sp
    71ea:	80000eb7          	lui	t4,0x80000
    71ee:	4e19                	li	t3,6
    71f0:	05d19763          	bne	gp,t4,723e <fail>

000071f4 <test_7>:
    71f4:	800000b7          	lui	ra,0x80000
    71f8:	517d                	li	sp,-1
    71fa:	0220c1b3          	div	gp,ra,sp
    71fe:	80000eb7          	lui	t4,0x80000
    7202:	4e1d                	li	t3,7
    7204:	03d19d63          	bne	gp,t4,723e <fail>

00007208 <test_8>:
    7208:	800000b7          	lui	ra,0x80000
    720c:	4101                	li	sp,0
    720e:	0220c1b3          	div	gp,ra,sp
    7212:	5efd                	li	t4,-1
    7214:	4e21                	li	t3,8
    7216:	03d19463          	bne	gp,t4,723e <fail>

0000721a <test_9>:
    721a:	4085                	li	ra,1
    721c:	4101                	li	sp,0
    721e:	0220c1b3          	div	gp,ra,sp
    7222:	5efd                	li	t4,-1
    7224:	4e25                	li	t3,9
    7226:	01d19c63          	bne	gp,t4,723e <fail>

0000722a <test_10>:
    722a:	4081                	li	ra,0
    722c:	4101                	li	sp,0
    722e:	0220c1b3          	div	gp,ra,sp
    7232:	5efd                	li	t4,-1
    7234:	4e29                	li	t3,10
    7236:	01d19463          	bne	gp,t4,723e <fail>
    723a:	03c01563          	bne	zero,t3,7264 <pass>

0000723e <fail>:
    723e:	10010537          	lui	a0,0x10010
    7242:	00450513          	addi	a0,a0,4 # 10010004 <_sp+0xfffed24>
    7246:	04500593          	li	a1,69
    724a:	05200613          	li	a2,82
    724e:	04f00693          	li	a3,79
    7252:	00a00713          	li	a4,10
    7256:	c10c                	sw	a1,0(a0)
    7258:	c110                	sw	a2,0(a0)
    725a:	c110                	sw	a2,0(a0)
    725c:	c114                	sw	a3,0(a0)
    725e:	c110                	sw	a2,0(a0)
    7260:	c118                	sw	a4,0(a0)
    7262:	9002                	ebreak

00007264 <pass>:
    7264:	10010537          	lui	a0,0x10010
    7268:	00450513          	addi	a0,a0,4 # 10010004 <_sp+0xfffed24>
    726c:	04f00593          	li	a1,79
    7270:	04b00613          	li	a2,75
    7274:	00a00693          	li	a3,10
    7278:	c10c                	sw	a1,0(a0)
    727a:	c110                	sw	a2,0(a0)
    727c:	c114                	sw	a3,0(a0)
    727e:	000f0113          	mv	sp,t5
    7282:	ffc12183          	lw	gp,-4(sp)
    7286:	ff812083          	lw	ra,-8(sp)
    728a:	8bef906f          	j	348 <div_ret>

0000728e <divu>:
    728e:	00010f13          	mv	t5,sp
    7292:	fe312e23          	sw	gp,-4(sp)
    7296:	fe112c23          	sw	ra,-8(sp)
    729a:	94018513          	addi	a0,gp,-1728 # 1025c <divu_data>
    729e:	10010637          	lui	a2,0x10010
    72a2:	00460613          	addi	a2,a2,4 # 10010004 <_sp+0xfffed24>

000072a6 <.prname_next>:
    72a6:	00050583          	lb	a1,0(a0)
    72aa:	00058663          	beqz	a1,72b6 <.prname_done>
    72ae:	c20c                	sw	a1,0(a2)
    72b0:	0505                	addi	a0,a0,1
    72b2:	ff5ff06f          	j	72a6 <.prname_next>

000072b6 <.prname_done>:
    72b6:	02e00593          	li	a1,46
    72ba:	c20c                	sw	a1,0(a2)
    72bc:	c20c                	sw	a1,0(a2)

000072be <test_2>:
    72be:	40d1                	li	ra,20
    72c0:	4119                	li	sp,6
    72c2:	0220d1b3          	divu	gp,ra,sp
    72c6:	4e8d                	li	t4,3
    72c8:	4e09                	li	t3,2
    72ca:	09d19b63          	bne	gp,t4,7360 <fail>

000072ce <test_3>:
    72ce:	50b1                	li	ra,-20
    72d0:	4119                	li	sp,6
    72d2:	0220d1b3          	divu	gp,ra,sp
    72d6:	2aaabeb7          	lui	t4,0x2aaab
    72da:	aa7e8e93          	addi	t4,t4,-1369 # 2aaaaaa7 <_sp+0x2aa997c7>
    72de:	4e0d                	li	t3,3
    72e0:	09d19063          	bne	gp,t4,7360 <fail>

000072e4 <test_4>:
    72e4:	40d1                	li	ra,20
    72e6:	5169                	li	sp,-6
    72e8:	0220d1b3          	divu	gp,ra,sp
    72ec:	4e81                	li	t4,0
    72ee:	4e11                	li	t3,4
    72f0:	07d19863          	bne	gp,t4,7360 <fail>

000072f4 <test_5>:
    72f4:	50b1                	li	ra,-20
    72f6:	5169                	li	sp,-6
    72f8:	0220d1b3          	divu	gp,ra,sp
    72fc:	4e81                	li	t4,0
    72fe:	4e15                	li	t3,5
    7300:	07d19063          	bne	gp,t4,7360 <fail>

00007304 <test_6>:
    7304:	800000b7          	lui	ra,0x80000
    7308:	4105                	li	sp,1
    730a:	0220d1b3          	divu	gp,ra,sp
    730e:	80000eb7          	lui	t4,0x80000
    7312:	4e19                	li	t3,6
    7314:	05d19663          	bne	gp,t4,7360 <fail>

00007318 <test_7>:
    7318:	800000b7          	lui	ra,0x80000
    731c:	517d                	li	sp,-1
    731e:	0220d1b3          	divu	gp,ra,sp
    7322:	4e81                	li	t4,0
    7324:	4e1d                	li	t3,7
    7326:	03d19d63          	bne	gp,t4,7360 <fail>

0000732a <test_8>:
    732a:	800000b7          	lui	ra,0x80000
    732e:	4101                	li	sp,0
    7330:	0220d1b3          	divu	gp,ra,sp
    7334:	5efd                	li	t4,-1
    7336:	4e21                	li	t3,8
    7338:	03d19463          	bne	gp,t4,7360 <fail>

0000733c <test_9>:
    733c:	4085                	li	ra,1
    733e:	4101                	li	sp,0
    7340:	0220d1b3          	divu	gp,ra,sp
    7344:	5efd                	li	t4,-1
    7346:	4e25                	li	t3,9
    7348:	01d19c63          	bne	gp,t4,7360 <fail>

0000734c <test_10>:
    734c:	4081                	li	ra,0
    734e:	4101                	li	sp,0
    7350:	0220d1b3          	divu	gp,ra,sp
    7354:	5efd                	li	t4,-1
    7356:	4e29                	li	t3,10
    7358:	01d19463          	bne	gp,t4,7360 <fail>
    735c:	03c01563          	bne	zero,t3,7386 <pass>

00007360 <fail>:
    7360:	10010537          	lui	a0,0x10010
    7364:	00450513          	addi	a0,a0,4 # 10010004 <_sp+0xfffed24>
    7368:	04500593          	li	a1,69
    736c:	05200613          	li	a2,82
    7370:	04f00693          	li	a3,79
    7374:	00a00713          	li	a4,10
    7378:	c10c                	sw	a1,0(a0)
    737a:	c110                	sw	a2,0(a0)
    737c:	c110                	sw	a2,0(a0)
    737e:	c114                	sw	a3,0(a0)
    7380:	c110                	sw	a2,0(a0)
    7382:	c118                	sw	a4,0(a0)
    7384:	9002                	ebreak

00007386 <pass>:
    7386:	10010537          	lui	a0,0x10010
    738a:	00450513          	addi	a0,a0,4 # 10010004 <_sp+0xfffed24>
    738e:	04f00593          	li	a1,79
    7392:	04b00613          	li	a2,75
    7396:	00a00693          	li	a3,10
    739a:	c10c                	sw	a1,0(a0)
    739c:	c110                	sw	a2,0(a0)
    739e:	c114                	sw	a3,0(a0)
    73a0:	000f0113          	mv	sp,t5
    73a4:	ffc12183          	lw	gp,-4(sp)
    73a8:	ff812083          	lw	ra,-8(sp)
    73ac:	fa5f806f          	j	350 <divu_ret>

000073b0 <remu>:
    73b0:	00010f13          	mv	t5,sp
    73b4:	fe312e23          	sw	gp,-4(sp)
    73b8:	fe112c23          	sw	ra,-8(sp)
    73bc:	94818513          	addi	a0,gp,-1720 # 10264 <remu_data>
    73c0:	10010637          	lui	a2,0x10010
    73c4:	00460613          	addi	a2,a2,4 # 10010004 <_sp+0xfffed24>

000073c8 <.prname_next>:
    73c8:	00050583          	lb	a1,0(a0)
    73cc:	00058663          	beqz	a1,73d8 <.prname_done>
    73d0:	c20c                	sw	a1,0(a2)
    73d2:	0505                	addi	a0,a0,1
    73d4:	ff5ff06f          	j	73c8 <.prname_next>

000073d8 <.prname_done>:
    73d8:	02e00593          	li	a1,46
    73dc:	c20c                	sw	a1,0(a2)
    73de:	c20c                	sw	a1,0(a2)

000073e0 <test_2>:
    73e0:	40d1                	li	ra,20
    73e2:	4119                	li	sp,6
    73e4:	0220f1b3          	remu	gp,ra,sp
    73e8:	4e89                	li	t4,2
    73ea:	4e09                	li	t3,2
    73ec:	09d19963          	bne	gp,t4,747e <fail>

000073f0 <test_3>:
    73f0:	50b1                	li	ra,-20
    73f2:	4119                	li	sp,6
    73f4:	0220f1b3          	remu	gp,ra,sp
    73f8:	4e89                	li	t4,2
    73fa:	4e0d                	li	t3,3
    73fc:	09d19163          	bne	gp,t4,747e <fail>

00007400 <test_4>:
    7400:	40d1                	li	ra,20
    7402:	5169                	li	sp,-6
    7404:	0220f1b3          	remu	gp,ra,sp
    7408:	4ed1                	li	t4,20
    740a:	4e11                	li	t3,4
    740c:	07d19963          	bne	gp,t4,747e <fail>

00007410 <test_5>:
    7410:	50b1                	li	ra,-20
    7412:	5169                	li	sp,-6
    7414:	0220f1b3          	remu	gp,ra,sp
    7418:	5eb1                	li	t4,-20
    741a:	4e15                	li	t3,5
    741c:	07d19163          	bne	gp,t4,747e <fail>

00007420 <test_6>:
    7420:	800000b7          	lui	ra,0x80000
    7424:	4105                	li	sp,1
    7426:	0220f1b3          	remu	gp,ra,sp
    742a:	4e81                	li	t4,0
    742c:	4e19                	li	t3,6
    742e:	05d19863          	bne	gp,t4,747e <fail>

00007432 <test_7>:
    7432:	800000b7          	lui	ra,0x80000
    7436:	517d                	li	sp,-1
    7438:	0220f1b3          	remu	gp,ra,sp
    743c:	80000eb7          	lui	t4,0x80000
    7440:	4e1d                	li	t3,7
    7442:	03d19e63          	bne	gp,t4,747e <fail>

00007446 <test_8>:
    7446:	800000b7          	lui	ra,0x80000
    744a:	4101                	li	sp,0
    744c:	0220f1b3          	remu	gp,ra,sp
    7450:	80000eb7          	lui	t4,0x80000
    7454:	4e21                	li	t3,8
    7456:	03d19463          	bne	gp,t4,747e <fail>

0000745a <test_9>:
    745a:	4085                	li	ra,1
    745c:	4101                	li	sp,0
    745e:	0220f1b3          	remu	gp,ra,sp
    7462:	4e85                	li	t4,1
    7464:	4e25                	li	t3,9
    7466:	01d19c63          	bne	gp,t4,747e <fail>

0000746a <test_10>:
    746a:	4081                	li	ra,0
    746c:	4101                	li	sp,0
    746e:	0220f1b3          	remu	gp,ra,sp
    7472:	4e81                	li	t4,0
    7474:	4e29                	li	t3,10
    7476:	01d19463          	bne	gp,t4,747e <fail>
    747a:	03c01563          	bne	zero,t3,74a4 <pass>

0000747e <fail>:
    747e:	10010537          	lui	a0,0x10010
    7482:	00450513          	addi	a0,a0,4 # 10010004 <_sp+0xfffed24>
    7486:	04500593          	li	a1,69
    748a:	05200613          	li	a2,82
    748e:	04f00693          	li	a3,79
    7492:	00a00713          	li	a4,10
    7496:	c10c                	sw	a1,0(a0)
    7498:	c110                	sw	a2,0(a0)
    749a:	c110                	sw	a2,0(a0)
    749c:	c114                	sw	a3,0(a0)
    749e:	c110                	sw	a2,0(a0)
    74a0:	c118                	sw	a4,0(a0)
    74a2:	9002                	ebreak

000074a4 <pass>:
    74a4:	10010537          	lui	a0,0x10010
    74a8:	00450513          	addi	a0,a0,4 # 10010004 <_sp+0xfffed24>
    74ac:	04f00593          	li	a1,79
    74b0:	04b00613          	li	a2,75
    74b4:	00a00693          	li	a3,10
    74b8:	c10c                	sw	a1,0(a0)
    74ba:	c110                	sw	a2,0(a0)
    74bc:	c114                	sw	a3,0(a0)
    74be:	000f0113          	mv	sp,t5
    74c2:	ffc12183          	lw	gp,-4(sp)
    74c6:	ff812083          	lw	ra,-8(sp)
    74ca:	e97f806f          	j	360 <remu_ret>

000074ce <mulh>:
    74ce:	00010f13          	mv	t5,sp
    74d2:	fe312e23          	sw	gp,-4(sp)
    74d6:	fe112c23          	sw	ra,-8(sp)
    74da:	95018513          	addi	a0,gp,-1712 # 1026c <mulh_data>
    74de:	10010637          	lui	a2,0x10010
    74e2:	00460613          	addi	a2,a2,4 # 10010004 <_sp+0xfffed24>

000074e6 <.prname_next>:
    74e6:	00050583          	lb	a1,0(a0)
    74ea:	00058663          	beqz	a1,74f6 <.prname_done>
    74ee:	c20c                	sw	a1,0(a2)
    74f0:	0505                	addi	a0,a0,1
    74f2:	ff5ff06f          	j	74e6 <.prname_next>

000074f6 <.prname_done>:
    74f6:	02e00593          	li	a1,46
    74fa:	c20c                	sw	a1,0(a2)
    74fc:	c20c                	sw	a1,0(a2)

000074fe <test_2>:
    74fe:	4081                	li	ra,0
    7500:	4101                	li	sp,0
    7502:	022091b3          	mulh	gp,ra,sp
    7506:	4e81                	li	t4,0
    7508:	4e09                	li	t3,2
    750a:	3dd19963          	bne	gp,t4,78dc <fail>

0000750e <test_3>:
    750e:	4085                	li	ra,1
    7510:	4105                	li	sp,1
    7512:	022091b3          	mulh	gp,ra,sp
    7516:	4e81                	li	t4,0
    7518:	4e0d                	li	t3,3
    751a:	3dd19163          	bne	gp,t4,78dc <fail>

0000751e <test_4>:
    751e:	408d                	li	ra,3
    7520:	411d                	li	sp,7
    7522:	022091b3          	mulh	gp,ra,sp
    7526:	4e81                	li	t4,0
    7528:	4e11                	li	t3,4
    752a:	3bd19963          	bne	gp,t4,78dc <fail>

0000752e <test_5>:
    752e:	4081                	li	ra,0
    7530:	ffff8137          	lui	sp,0xffff8
    7534:	022091b3          	mulh	gp,ra,sp
    7538:	4e81                	li	t4,0
    753a:	4e15                	li	t3,5
    753c:	3bd19063          	bne	gp,t4,78dc <fail>

00007540 <test_6>:
    7540:	800000b7          	lui	ra,0x80000
    7544:	4101                	li	sp,0
    7546:	022091b3          	mulh	gp,ra,sp
    754a:	4e81                	li	t4,0
    754c:	4e19                	li	t3,6
    754e:	39d19763          	bne	gp,t4,78dc <fail>

00007552 <test_7>:
    7552:	800000b7          	lui	ra,0x80000
    7556:	4101                	li	sp,0
    7558:	022091b3          	mulh	gp,ra,sp
    755c:	4e81                	li	t4,0
    755e:	4e1d                	li	t3,7
    7560:	37d19e63          	bne	gp,t4,78dc <fail>

00007564 <test_30>:
    7564:	aaaab0b7          	lui	ra,0xaaaab
    7568:	aab08093          	addi	ra,ra,-1365 # aaaaaaab <pulp__FC+0xaaaaaaac>
    756c:	00030137          	lui	sp,0x30
    7570:	e7d10113          	addi	sp,sp,-387 # 2fe7d <_sp+0x1eb9d>
    7574:	022091b3          	mulh	gp,ra,sp
    7578:	ffff0eb7          	lui	t4,0xffff0
    757c:	081e8e93          	addi	t4,t4,129 # ffff0081 <pulp__FC+0xffff0082>
    7580:	4e79                	li	t3,30
    7582:	35d19d63          	bne	gp,t4,78dc <fail>

00007586 <test_31>:
    7586:	000300b7          	lui	ra,0x30
    758a:	e7d08093          	addi	ra,ra,-387 # 2fe7d <_sp+0x1eb9d>
    758e:	aaaab137          	lui	sp,0xaaaab
    7592:	aab10113          	addi	sp,sp,-1365 # aaaaaaab <pulp__FC+0xaaaaaaac>
    7596:	022091b3          	mulh	gp,ra,sp
    759a:	ffff0eb7          	lui	t4,0xffff0
    759e:	081e8e93          	addi	t4,t4,129 # ffff0081 <pulp__FC+0xffff0082>
    75a2:	4e7d                	li	t3,31
    75a4:	33d19c63          	bne	gp,t4,78dc <fail>

000075a8 <test_32>:
    75a8:	ff0000b7          	lui	ra,0xff000
    75ac:	ff000137          	lui	sp,0xff000
    75b0:	022091b3          	mulh	gp,ra,sp
    75b4:	6ec1                	lui	t4,0x10
    75b6:	02000e13          	li	t3,32
    75ba:	33d19163          	bne	gp,t4,78dc <fail>

000075be <test_33>:
    75be:	fff00093          	li	ra,-1
    75c2:	fff00113          	li	sp,-1
    75c6:	022091b3          	mulh	gp,ra,sp
    75ca:	4e81                	li	t4,0
    75cc:	02100e13          	li	t3,33
    75d0:	31d19663          	bne	gp,t4,78dc <fail>

000075d4 <test_34>:
    75d4:	fff00093          	li	ra,-1
    75d8:	4105                	li	sp,1
    75da:	022091b3          	mulh	gp,ra,sp
    75de:	fff00e93          	li	t4,-1
    75e2:	02200e13          	li	t3,34
    75e6:	2fd19b63          	bne	gp,t4,78dc <fail>

000075ea <test_35>:
    75ea:	4085                	li	ra,1
    75ec:	fff00113          	li	sp,-1
    75f0:	022091b3          	mulh	gp,ra,sp
    75f4:	fff00e93          	li	t4,-1
    75f8:	02300e13          	li	t3,35
    75fc:	2fd19063          	bne	gp,t4,78dc <fail>

00007600 <test_8>:
    7600:	00d000b7          	lui	ra,0xd00
    7604:	00b00137          	lui	sp,0xb00
    7608:	022090b3          	mulh	ra,ra,sp
    760c:	00009eb7          	lui	t4,0x9
    7610:	f00e8e93          	addi	t4,t4,-256 # 8f00 <__read_next_512b_first32b+0x3b8>
    7614:	4e21                	li	t3,8
    7616:	2dd09363          	bne	ra,t4,78dc <fail>

0000761a <test_9>:
    761a:	00e000b7          	lui	ra,0xe00
    761e:	00b00137          	lui	sp,0xb00
    7622:	02209133          	mulh	sp,ra,sp
    7626:	0000aeb7          	lui	t4,0xa
    762a:	a00e8e93          	addi	t4,t4,-1536 # 9a00 <__read_next_512b_first32b+0xeb8>
    762e:	4e25                	li	t3,9
    7630:	2bd11663          	bne	sp,t4,78dc <fail>

00007634 <test_10>:
    7634:	00d000b7          	lui	ra,0xd00
    7638:	021090b3          	mulh	ra,ra,ra
    763c:	0000beb7          	lui	t4,0xb
    7640:	900e8e93          	addi	t4,t4,-1792 # a900 <__read_next_512b_first32b+0x1db8>
    7644:	4e29                	li	t3,10
    7646:	29d09b63          	bne	ra,t4,78dc <fail>

0000764a <test_11>:
    764a:	4201                	li	tp,0
    764c:	00d000b7          	lui	ra,0xd00
    7650:	00b00137          	lui	sp,0xb00
    7654:	022091b3          	mulh	gp,ra,sp
    7658:	00018313          	mv	t1,gp
    765c:	0205                	addi	tp,tp,1
    765e:	4289                	li	t0,2
    7660:	fe5216e3          	bne	tp,t0,764c <test_11+0x2>
    7664:	00009eb7          	lui	t4,0x9
    7668:	f00e8e93          	addi	t4,t4,-256 # 8f00 <__read_next_512b_first32b+0x3b8>
    766c:	4e2d                	li	t3,11
    766e:	27d31763          	bne	t1,t4,78dc <fail>

00007672 <test_12>:
    7672:	4201                	li	tp,0
    7674:	00e000b7          	lui	ra,0xe00
    7678:	00b00137          	lui	sp,0xb00
    767c:	022091b3          	mulh	gp,ra,sp
    7680:	0001                	nop
    7682:	00018313          	mv	t1,gp
    7686:	0205                	addi	tp,tp,1
    7688:	4289                	li	t0,2
    768a:	fe5215e3          	bne	tp,t0,7674 <test_12+0x2>
    768e:	0000aeb7          	lui	t4,0xa
    7692:	a00e8e93          	addi	t4,t4,-1536 # 9a00 <__read_next_512b_first32b+0xeb8>
    7696:	4e31                	li	t3,12
    7698:	25d31263          	bne	t1,t4,78dc <fail>

0000769c <test_13>:
    769c:	4201                	li	tp,0
    769e:	00f000b7          	lui	ra,0xf00
    76a2:	00b00137          	lui	sp,0xb00
    76a6:	022091b3          	mulh	gp,ra,sp
    76aa:	0001                	nop
    76ac:	0001                	nop
    76ae:	00018313          	mv	t1,gp
    76b2:	0205                	addi	tp,tp,1
    76b4:	4289                	li	t0,2
    76b6:	fe5214e3          	bne	tp,t0,769e <test_13+0x2>
    76ba:	0000aeb7          	lui	t4,0xa
    76be:	500e8e93          	addi	t4,t4,1280 # a500 <__read_next_512b_first32b+0x19b8>
    76c2:	4e35                	li	t3,13
    76c4:	21d31c63          	bne	t1,t4,78dc <fail>

000076c8 <test_14>:
    76c8:	4201                	li	tp,0
    76ca:	00d000b7          	lui	ra,0xd00
    76ce:	00b00137          	lui	sp,0xb00
    76d2:	022091b3          	mulh	gp,ra,sp
    76d6:	0205                	addi	tp,tp,1
    76d8:	4289                	li	t0,2
    76da:	fe5218e3          	bne	tp,t0,76ca <test_14+0x2>
    76de:	00009eb7          	lui	t4,0x9
    76e2:	f00e8e93          	addi	t4,t4,-256 # 8f00 <__read_next_512b_first32b+0x3b8>
    76e6:	4e39                	li	t3,14
    76e8:	1fd19a63          	bne	gp,t4,78dc <fail>

000076ec <test_15>:
    76ec:	4201                	li	tp,0
    76ee:	00e000b7          	lui	ra,0xe00
    76f2:	00b00137          	lui	sp,0xb00
    76f6:	0001                	nop
    76f8:	022091b3          	mulh	gp,ra,sp
    76fc:	0205                	addi	tp,tp,1
    76fe:	4289                	li	t0,2
    7700:	fe5217e3          	bne	tp,t0,76ee <test_15+0x2>
    7704:	0000aeb7          	lui	t4,0xa
    7708:	a00e8e93          	addi	t4,t4,-1536 # 9a00 <__read_next_512b_first32b+0xeb8>
    770c:	4e3d                	li	t3,15
    770e:	1dd19763          	bne	gp,t4,78dc <fail>

00007712 <test_16>:
    7712:	4201                	li	tp,0
    7714:	00f000b7          	lui	ra,0xf00
    7718:	00b00137          	lui	sp,0xb00
    771c:	0001                	nop
    771e:	0001                	nop
    7720:	022091b3          	mulh	gp,ra,sp
    7724:	0205                	addi	tp,tp,1
    7726:	4289                	li	t0,2
    7728:	fe5216e3          	bne	tp,t0,7714 <test_16+0x2>
    772c:	0000aeb7          	lui	t4,0xa
    7730:	500e8e93          	addi	t4,t4,1280 # a500 <__read_next_512b_first32b+0x19b8>
    7734:	4e41                	li	t3,16
    7736:	1bd19363          	bne	gp,t4,78dc <fail>

0000773a <test_17>:
    773a:	4201                	li	tp,0
    773c:	00d000b7          	lui	ra,0xd00
    7740:	0001                	nop
    7742:	00b00137          	lui	sp,0xb00
    7746:	022091b3          	mulh	gp,ra,sp
    774a:	0205                	addi	tp,tp,1
    774c:	4289                	li	t0,2
    774e:	fe5217e3          	bne	tp,t0,773c <test_17+0x2>
    7752:	00009eb7          	lui	t4,0x9
    7756:	f00e8e93          	addi	t4,t4,-256 # 8f00 <__read_next_512b_first32b+0x3b8>
    775a:	4e45                	li	t3,17
    775c:	19d19063          	bne	gp,t4,78dc <fail>

00007760 <test_18>:
    7760:	4201                	li	tp,0
    7762:	00e000b7          	lui	ra,0xe00
    7766:	0001                	nop
    7768:	00b00137          	lui	sp,0xb00
    776c:	0001                	nop
    776e:	022091b3          	mulh	gp,ra,sp
    7772:	0205                	addi	tp,tp,1
    7774:	4289                	li	t0,2
    7776:	fe5216e3          	bne	tp,t0,7762 <test_18+0x2>
    777a:	0000aeb7          	lui	t4,0xa
    777e:	a00e8e93          	addi	t4,t4,-1536 # 9a00 <__read_next_512b_first32b+0xeb8>
    7782:	4e49                	li	t3,18
    7784:	15d19c63          	bne	gp,t4,78dc <fail>

00007788 <test_19>:
    7788:	4201                	li	tp,0
    778a:	00f000b7          	lui	ra,0xf00
    778e:	0001                	nop
    7790:	0001                	nop
    7792:	00b00137          	lui	sp,0xb00
    7796:	022091b3          	mulh	gp,ra,sp
    779a:	0205                	addi	tp,tp,1
    779c:	4289                	li	t0,2
    779e:	fe5216e3          	bne	tp,t0,778a <test_19+0x2>
    77a2:	0000aeb7          	lui	t4,0xa
    77a6:	500e8e93          	addi	t4,t4,1280 # a500 <__read_next_512b_first32b+0x19b8>
    77aa:	4e4d                	li	t3,19
    77ac:	13d19863          	bne	gp,t4,78dc <fail>

000077b0 <test_20>:
    77b0:	4201                	li	tp,0
    77b2:	00b00137          	lui	sp,0xb00
    77b6:	00d000b7          	lui	ra,0xd00
    77ba:	022091b3          	mulh	gp,ra,sp
    77be:	0205                	addi	tp,tp,1
    77c0:	4289                	li	t0,2
    77c2:	fe5218e3          	bne	tp,t0,77b2 <test_20+0x2>
    77c6:	00009eb7          	lui	t4,0x9
    77ca:	f00e8e93          	addi	t4,t4,-256 # 8f00 <__read_next_512b_first32b+0x3b8>
    77ce:	4e51                	li	t3,20
    77d0:	11d19663          	bne	gp,t4,78dc <fail>

000077d4 <test_21>:
    77d4:	4201                	li	tp,0
    77d6:	00b00137          	lui	sp,0xb00
    77da:	00e000b7          	lui	ra,0xe00
    77de:	0001                	nop
    77e0:	022091b3          	mulh	gp,ra,sp
    77e4:	0205                	addi	tp,tp,1
    77e6:	4289                	li	t0,2
    77e8:	fe5217e3          	bne	tp,t0,77d6 <test_21+0x2>
    77ec:	0000aeb7          	lui	t4,0xa
    77f0:	a00e8e93          	addi	t4,t4,-1536 # 9a00 <__read_next_512b_first32b+0xeb8>
    77f4:	4e55                	li	t3,21
    77f6:	0fd19363          	bne	gp,t4,78dc <fail>

000077fa <test_22>:
    77fa:	4201                	li	tp,0
    77fc:	00b00137          	lui	sp,0xb00
    7800:	00f000b7          	lui	ra,0xf00
    7804:	0001                	nop
    7806:	0001                	nop
    7808:	022091b3          	mulh	gp,ra,sp
    780c:	0205                	addi	tp,tp,1
    780e:	4289                	li	t0,2
    7810:	fe5216e3          	bne	tp,t0,77fc <test_22+0x2>
    7814:	0000aeb7          	lui	t4,0xa
    7818:	500e8e93          	addi	t4,t4,1280 # a500 <__read_next_512b_first32b+0x19b8>
    781c:	4e59                	li	t3,22
    781e:	0bd19f63          	bne	gp,t4,78dc <fail>

00007822 <test_23>:
    7822:	4201                	li	tp,0
    7824:	00b00137          	lui	sp,0xb00
    7828:	0001                	nop
    782a:	00d000b7          	lui	ra,0xd00
    782e:	022091b3          	mulh	gp,ra,sp
    7832:	0205                	addi	tp,tp,1
    7834:	4289                	li	t0,2
    7836:	fe5217e3          	bne	tp,t0,7824 <test_23+0x2>
    783a:	00009eb7          	lui	t4,0x9
    783e:	f00e8e93          	addi	t4,t4,-256 # 8f00 <__read_next_512b_first32b+0x3b8>
    7842:	4e5d                	li	t3,23
    7844:	09d19c63          	bne	gp,t4,78dc <fail>

00007848 <test_24>:
    7848:	4201                	li	tp,0
    784a:	00b00137          	lui	sp,0xb00
    784e:	0001                	nop
    7850:	00e000b7          	lui	ra,0xe00
    7854:	0001                	nop
    7856:	022091b3          	mulh	gp,ra,sp
    785a:	0205                	addi	tp,tp,1
    785c:	4289                	li	t0,2
    785e:	fe5216e3          	bne	tp,t0,784a <test_24+0x2>
    7862:	0000aeb7          	lui	t4,0xa
    7866:	a00e8e93          	addi	t4,t4,-1536 # 9a00 <__read_next_512b_first32b+0xeb8>
    786a:	4e61                	li	t3,24
    786c:	07d19863          	bne	gp,t4,78dc <fail>

00007870 <test_25>:
    7870:	4201                	li	tp,0
    7872:	00b00137          	lui	sp,0xb00
    7876:	0001                	nop
    7878:	0001                	nop
    787a:	00f000b7          	lui	ra,0xf00
    787e:	022091b3          	mulh	gp,ra,sp
    7882:	0205                	addi	tp,tp,1
    7884:	4289                	li	t0,2
    7886:	fe5216e3          	bne	tp,t0,7872 <test_25+0x2>
    788a:	0000aeb7          	lui	t4,0xa
    788e:	500e8e93          	addi	t4,t4,1280 # a500 <__read_next_512b_first32b+0x19b8>
    7892:	4e65                	li	t3,25
    7894:	05d19463          	bne	gp,t4,78dc <fail>

00007898 <test_26>:
    7898:	7c0000b7          	lui	ra,0x7c000
    789c:	02101133          	mulh	sp,zero,ra
    78a0:	4e81                	li	t4,0
    78a2:	4e69                	li	t3,26
    78a4:	03d11c63          	bne	sp,t4,78dc <fail>

000078a8 <test_27>:
    78a8:	800000b7          	lui	ra,0x80000
    78ac:	02009133          	mulh	sp,ra,zero
    78b0:	4e81                	li	t4,0
    78b2:	4e6d                	li	t3,27
    78b4:	03d11463          	bne	sp,t4,78dc <fail>

000078b8 <test_28>:
    78b8:	020010b3          	mulh	ra,zero,zero
    78bc:	4e81                	li	t4,0
    78be:	4e71                	li	t3,28
    78c0:	01d09e63          	bne	ra,t4,78dc <fail>

000078c4 <test_29>:
    78c4:	021000b7          	lui	ra,0x2100
    78c8:	02200137          	lui	sp,0x2200
    78cc:	02209033          	mulh	zero,ra,sp
    78d0:	4e81                	li	t4,0
    78d2:	4e75                	li	t3,29
    78d4:	01d01463          	bne	zero,t4,78dc <fail>
    78d8:	03c01563          	bne	zero,t3,7902 <pass>

000078dc <fail>:
    78dc:	10010537          	lui	a0,0x10010
    78e0:	00450513          	addi	a0,a0,4 # 10010004 <_sp+0xfffed24>
    78e4:	04500593          	li	a1,69
    78e8:	05200613          	li	a2,82
    78ec:	04f00693          	li	a3,79
    78f0:	00a00713          	li	a4,10
    78f4:	c10c                	sw	a1,0(a0)
    78f6:	c110                	sw	a2,0(a0)
    78f8:	c110                	sw	a2,0(a0)
    78fa:	c114                	sw	a3,0(a0)
    78fc:	c110                	sw	a2,0(a0)
    78fe:	c118                	sw	a4,0(a0)
    7900:	9002                	ebreak

00007902 <pass>:
    7902:	10010537          	lui	a0,0x10010
    7906:	00450513          	addi	a0,a0,4 # 10010004 <_sp+0xfffed24>
    790a:	04f00593          	li	a1,79
    790e:	04b00613          	li	a2,75
    7912:	00a00693          	li	a3,10
    7916:	c10c                	sw	a1,0(a0)
    7918:	c110                	sw	a2,0(a0)
    791a:	c114                	sw	a3,0(a0)
    791c:	000f0113          	mv	sp,t5
    7920:	ffc12183          	lw	gp,-4(sp) # 21ffffc <_sp+0x21eed1c>
    7924:	ff812083          	lw	ra,-8(sp)
    7928:	a01f806f          	j	328 <mulh_ret>

0000792c <mul>:
    792c:	00010f13          	mv	t5,sp
    7930:	fe312e23          	sw	gp,-4(sp)
    7934:	fe112c23          	sw	ra,-8(sp)
    7938:	95818513          	addi	a0,gp,-1704 # 10274 <mul_data>
    793c:	10010637          	lui	a2,0x10010
    7940:	00460613          	addi	a2,a2,4 # 10010004 <_sp+0xfffed24>

00007944 <.prname_next>:
    7944:	00050583          	lb	a1,0(a0)
    7948:	00058663          	beqz	a1,7954 <.prname_done>
    794c:	c20c                	sw	a1,0(a2)
    794e:	0505                	addi	a0,a0,1
    7950:	ff5ff06f          	j	7944 <.prname_next>

00007954 <.prname_done>:
    7954:	02e00593          	li	a1,46
    7958:	c20c                	sw	a1,0(a2)
    795a:	c20c                	sw	a1,0(a2)

0000795c <test_32>:
    795c:	000080b7          	lui	ra,0x8
    7960:	e0008093          	addi	ra,ra,-512 # 7e00 <test_10+0x4>
    7964:	b6db7137          	lui	sp,0xb6db7
    7968:	db710113          	addi	sp,sp,-585 # b6db6db7 <pulp__FC+0xb6db6db8>
    796c:	022081b3          	mul	gp,ra,sp
    7970:	00001eb7          	lui	t4,0x1
    7974:	200e8e93          	addi	t4,t4,512 # 1200 <.prname_done+0x4>
    7978:	02000e13          	li	t3,32
    797c:	37d19c63          	bne	gp,t4,7cf4 <fail>

00007980 <test_33>:
    7980:	000080b7          	lui	ra,0x8
    7984:	fc008093          	addi	ra,ra,-64 # 7fc0 <test_9+0xe>
    7988:	b6db7137          	lui	sp,0xb6db7
    798c:	db710113          	addi	sp,sp,-585 # b6db6db7 <pulp__FC+0xb6db6db8>
    7990:	022081b3          	mul	gp,ra,sp
    7994:	00001eb7          	lui	t4,0x1
    7998:	240e8e93          	addi	t4,t4,576 # 1240 <test_4+0xc>
    799c:	02100e13          	li	t3,33
    79a0:	35d19a63          	bne	gp,t4,7cf4 <fail>

000079a4 <test_2>:
    79a4:	4081                	li	ra,0
    79a6:	4101                	li	sp,0
    79a8:	022081b3          	mul	gp,ra,sp
    79ac:	4e81                	li	t4,0
    79ae:	4e09                	li	t3,2
    79b0:	35d19263          	bne	gp,t4,7cf4 <fail>

000079b4 <test_3>:
    79b4:	4085                	li	ra,1
    79b6:	4105                	li	sp,1
    79b8:	022081b3          	mul	gp,ra,sp
    79bc:	4e85                	li	t4,1
    79be:	4e0d                	li	t3,3
    79c0:	33d19a63          	bne	gp,t4,7cf4 <fail>

000079c4 <test_4>:
    79c4:	408d                	li	ra,3
    79c6:	411d                	li	sp,7
    79c8:	022081b3          	mul	gp,ra,sp
    79cc:	4ed5                	li	t4,21
    79ce:	4e11                	li	t3,4
    79d0:	33d19263          	bne	gp,t4,7cf4 <fail>

000079d4 <test_5>:
    79d4:	4081                	li	ra,0
    79d6:	ffff8137          	lui	sp,0xffff8
    79da:	022081b3          	mul	gp,ra,sp
    79de:	4e81                	li	t4,0
    79e0:	4e15                	li	t3,5
    79e2:	31d19963          	bne	gp,t4,7cf4 <fail>

000079e6 <test_6>:
    79e6:	800000b7          	lui	ra,0x80000
    79ea:	4101                	li	sp,0
    79ec:	022081b3          	mul	gp,ra,sp
    79f0:	4e81                	li	t4,0
    79f2:	4e19                	li	t3,6
    79f4:	31d19063          	bne	gp,t4,7cf4 <fail>

000079f8 <test_7>:
    79f8:	800000b7          	lui	ra,0x80000
    79fc:	ffff8137          	lui	sp,0xffff8
    7a00:	022081b3          	mul	gp,ra,sp
    7a04:	4e81                	li	t4,0
    7a06:	4e1d                	li	t3,7
    7a08:	2fd19663          	bne	gp,t4,7cf4 <fail>

00007a0c <test_30>:
    7a0c:	aaaab0b7          	lui	ra,0xaaaab
    7a10:	aab08093          	addi	ra,ra,-1365 # aaaaaaab <pulp__FC+0xaaaaaaac>
    7a14:	00030137          	lui	sp,0x30
    7a18:	e7d10113          	addi	sp,sp,-387 # 2fe7d <_sp+0x1eb9d>
    7a1c:	022081b3          	mul	gp,ra,sp
    7a20:	00010eb7          	lui	t4,0x10
    7a24:	f7fe8e93          	addi	t4,t4,-129 # ff7f <__read_next_512b_first32b+0x7437>
    7a28:	4e79                	li	t3,30
    7a2a:	2dd19563          	bne	gp,t4,7cf4 <fail>

00007a2e <test_31>:
    7a2e:	000300b7          	lui	ra,0x30
    7a32:	e7d08093          	addi	ra,ra,-387 # 2fe7d <_sp+0x1eb9d>
    7a36:	aaaab137          	lui	sp,0xaaaab
    7a3a:	aab10113          	addi	sp,sp,-1365 # aaaaaaab <pulp__FC+0xaaaaaaac>
    7a3e:	022081b3          	mul	gp,ra,sp
    7a42:	00010eb7          	lui	t4,0x10
    7a46:	f7fe8e93          	addi	t4,t4,-129 # ff7f <__read_next_512b_first32b+0x7437>
    7a4a:	4e7d                	li	t3,31
    7a4c:	2bd19463          	bne	gp,t4,7cf4 <fail>

00007a50 <test_34>:
    7a50:	ff0000b7          	lui	ra,0xff000
    7a54:	ff000137          	lui	sp,0xff000
    7a58:	022081b3          	mul	gp,ra,sp
    7a5c:	4e81                	li	t4,0
    7a5e:	02200e13          	li	t3,34
    7a62:	29d19963          	bne	gp,t4,7cf4 <fail>

00007a66 <test_35>:
    7a66:	fff00093          	li	ra,-1
    7a6a:	fff00113          	li	sp,-1
    7a6e:	022081b3          	mul	gp,ra,sp
    7a72:	4e85                	li	t4,1
    7a74:	02300e13          	li	t3,35
    7a78:	27d19e63          	bne	gp,t4,7cf4 <fail>

00007a7c <test_36>:
    7a7c:	fff00093          	li	ra,-1
    7a80:	4105                	li	sp,1
    7a82:	022081b3          	mul	gp,ra,sp
    7a86:	fff00e93          	li	t4,-1
    7a8a:	02400e13          	li	t3,36
    7a8e:	27d19363          	bne	gp,t4,7cf4 <fail>

00007a92 <test_37>:
    7a92:	4085                	li	ra,1
    7a94:	fff00113          	li	sp,-1
    7a98:	022081b3          	mul	gp,ra,sp
    7a9c:	fff00e93          	li	t4,-1
    7aa0:	02500e13          	li	t3,37
    7aa4:	25d19863          	bne	gp,t4,7cf4 <fail>

00007aa8 <test_8>:
    7aa8:	40b5                	li	ra,13
    7aaa:	412d                	li	sp,11
    7aac:	022080b3          	mul	ra,ra,sp
    7ab0:	08f00e93          	li	t4,143
    7ab4:	4e21                	li	t3,8
    7ab6:	23d09f63          	bne	ra,t4,7cf4 <fail>

00007aba <test_9>:
    7aba:	40b9                	li	ra,14
    7abc:	412d                	li	sp,11
    7abe:	02208133          	mul	sp,ra,sp
    7ac2:	09a00e93          	li	t4,154
    7ac6:	4e25                	li	t3,9
    7ac8:	23d11663          	bne	sp,t4,7cf4 <fail>

00007acc <test_10>:
    7acc:	40b5                	li	ra,13
    7ace:	021080b3          	mul	ra,ra,ra
    7ad2:	0a900e93          	li	t4,169
    7ad6:	4e29                	li	t3,10
    7ad8:	21d09e63          	bne	ra,t4,7cf4 <fail>

00007adc <test_11>:
    7adc:	4201                	li	tp,0
    7ade:	40b5                	li	ra,13
    7ae0:	412d                	li	sp,11
    7ae2:	022081b3          	mul	gp,ra,sp
    7ae6:	00018313          	mv	t1,gp
    7aea:	0205                	addi	tp,tp,1
    7aec:	4289                	li	t0,2
    7aee:	fe5218e3          	bne	tp,t0,7ade <test_11+0x2>
    7af2:	08f00e93          	li	t4,143
    7af6:	4e2d                	li	t3,11
    7af8:	1fd31e63          	bne	t1,t4,7cf4 <fail>

00007afc <test_12>:
    7afc:	4201                	li	tp,0
    7afe:	40b9                	li	ra,14
    7b00:	412d                	li	sp,11
    7b02:	022081b3          	mul	gp,ra,sp
    7b06:	0001                	nop
    7b08:	00018313          	mv	t1,gp
    7b0c:	0205                	addi	tp,tp,1
    7b0e:	4289                	li	t0,2
    7b10:	fe5217e3          	bne	tp,t0,7afe <test_12+0x2>
    7b14:	09a00e93          	li	t4,154
    7b18:	4e31                	li	t3,12
    7b1a:	1dd31d63          	bne	t1,t4,7cf4 <fail>

00007b1e <test_13>:
    7b1e:	4201                	li	tp,0
    7b20:	40bd                	li	ra,15
    7b22:	412d                	li	sp,11
    7b24:	022081b3          	mul	gp,ra,sp
    7b28:	0001                	nop
    7b2a:	0001                	nop
    7b2c:	00018313          	mv	t1,gp
    7b30:	0205                	addi	tp,tp,1
    7b32:	4289                	li	t0,2
    7b34:	fe5216e3          	bne	tp,t0,7b20 <test_13+0x2>
    7b38:	0a500e93          	li	t4,165
    7b3c:	4e35                	li	t3,13
    7b3e:	1bd31b63          	bne	t1,t4,7cf4 <fail>

00007b42 <test_14>:
    7b42:	4201                	li	tp,0
    7b44:	40b5                	li	ra,13
    7b46:	412d                	li	sp,11
    7b48:	022081b3          	mul	gp,ra,sp
    7b4c:	0205                	addi	tp,tp,1
    7b4e:	4289                	li	t0,2
    7b50:	fe521ae3          	bne	tp,t0,7b44 <test_14+0x2>
    7b54:	08f00e93          	li	t4,143
    7b58:	4e39                	li	t3,14
    7b5a:	19d19d63          	bne	gp,t4,7cf4 <fail>

00007b5e <test_15>:
    7b5e:	4201                	li	tp,0
    7b60:	40b9                	li	ra,14
    7b62:	412d                	li	sp,11
    7b64:	0001                	nop
    7b66:	022081b3          	mul	gp,ra,sp
    7b6a:	0205                	addi	tp,tp,1
    7b6c:	4289                	li	t0,2
    7b6e:	fe5219e3          	bne	tp,t0,7b60 <test_15+0x2>
    7b72:	09a00e93          	li	t4,154
    7b76:	4e3d                	li	t3,15
    7b78:	17d19e63          	bne	gp,t4,7cf4 <fail>

00007b7c <test_16>:
    7b7c:	4201                	li	tp,0
    7b7e:	40bd                	li	ra,15
    7b80:	412d                	li	sp,11
    7b82:	0001                	nop
    7b84:	0001                	nop
    7b86:	022081b3          	mul	gp,ra,sp
    7b8a:	0205                	addi	tp,tp,1
    7b8c:	4289                	li	t0,2
    7b8e:	fe5218e3          	bne	tp,t0,7b7e <test_16+0x2>
    7b92:	0a500e93          	li	t4,165
    7b96:	4e41                	li	t3,16
    7b98:	15d19e63          	bne	gp,t4,7cf4 <fail>

00007b9c <test_17>:
    7b9c:	4201                	li	tp,0
    7b9e:	40b5                	li	ra,13
    7ba0:	0001                	nop
    7ba2:	412d                	li	sp,11
    7ba4:	022081b3          	mul	gp,ra,sp
    7ba8:	0205                	addi	tp,tp,1
    7baa:	4289                	li	t0,2
    7bac:	fe5219e3          	bne	tp,t0,7b9e <test_17+0x2>
    7bb0:	08f00e93          	li	t4,143
    7bb4:	4e45                	li	t3,17
    7bb6:	13d19f63          	bne	gp,t4,7cf4 <fail>

00007bba <test_18>:
    7bba:	4201                	li	tp,0
    7bbc:	40b9                	li	ra,14
    7bbe:	0001                	nop
    7bc0:	412d                	li	sp,11
    7bc2:	0001                	nop
    7bc4:	022081b3          	mul	gp,ra,sp
    7bc8:	0205                	addi	tp,tp,1
    7bca:	4289                	li	t0,2
    7bcc:	fe5218e3          	bne	tp,t0,7bbc <test_18+0x2>
    7bd0:	09a00e93          	li	t4,154
    7bd4:	4e49                	li	t3,18
    7bd6:	11d19f63          	bne	gp,t4,7cf4 <fail>

00007bda <test_19>:
    7bda:	4201                	li	tp,0
    7bdc:	40bd                	li	ra,15
    7bde:	0001                	nop
    7be0:	0001                	nop
    7be2:	412d                	li	sp,11
    7be4:	022081b3          	mul	gp,ra,sp
    7be8:	0205                	addi	tp,tp,1
    7bea:	4289                	li	t0,2
    7bec:	fe5218e3          	bne	tp,t0,7bdc <test_19+0x2>
    7bf0:	0a500e93          	li	t4,165
    7bf4:	4e4d                	li	t3,19
    7bf6:	0fd19f63          	bne	gp,t4,7cf4 <fail>

00007bfa <test_20>:
    7bfa:	4201                	li	tp,0
    7bfc:	412d                	li	sp,11
    7bfe:	40b5                	li	ra,13
    7c00:	022081b3          	mul	gp,ra,sp
    7c04:	0205                	addi	tp,tp,1
    7c06:	4289                	li	t0,2
    7c08:	fe521ae3          	bne	tp,t0,7bfc <test_20+0x2>
    7c0c:	08f00e93          	li	t4,143
    7c10:	4e51                	li	t3,20
    7c12:	0fd19163          	bne	gp,t4,7cf4 <fail>

00007c16 <test_21>:
    7c16:	4201                	li	tp,0
    7c18:	412d                	li	sp,11
    7c1a:	40b9                	li	ra,14
    7c1c:	0001                	nop
    7c1e:	022081b3          	mul	gp,ra,sp
    7c22:	0205                	addi	tp,tp,1
    7c24:	4289                	li	t0,2
    7c26:	fe5219e3          	bne	tp,t0,7c18 <test_21+0x2>
    7c2a:	09a00e93          	li	t4,154
    7c2e:	4e55                	li	t3,21
    7c30:	0dd19263          	bne	gp,t4,7cf4 <fail>

00007c34 <test_22>:
    7c34:	4201                	li	tp,0
    7c36:	412d                	li	sp,11
    7c38:	40bd                	li	ra,15
    7c3a:	0001                	nop
    7c3c:	0001                	nop
    7c3e:	022081b3          	mul	gp,ra,sp
    7c42:	0205                	addi	tp,tp,1
    7c44:	4289                	li	t0,2
    7c46:	fe5218e3          	bne	tp,t0,7c36 <test_22+0x2>
    7c4a:	0a500e93          	li	t4,165
    7c4e:	4e59                	li	t3,22
    7c50:	0bd19263          	bne	gp,t4,7cf4 <fail>

00007c54 <test_23>:
    7c54:	4201                	li	tp,0
    7c56:	412d                	li	sp,11
    7c58:	0001                	nop
    7c5a:	40b5                	li	ra,13
    7c5c:	022081b3          	mul	gp,ra,sp
    7c60:	0205                	addi	tp,tp,1
    7c62:	4289                	li	t0,2
    7c64:	fe5219e3          	bne	tp,t0,7c56 <test_23+0x2>
    7c68:	08f00e93          	li	t4,143
    7c6c:	4e5d                	li	t3,23
    7c6e:	09d19363          	bne	gp,t4,7cf4 <fail>

00007c72 <test_24>:
    7c72:	4201                	li	tp,0
    7c74:	412d                	li	sp,11
    7c76:	0001                	nop
    7c78:	40b9                	li	ra,14
    7c7a:	0001                	nop
    7c7c:	022081b3          	mul	gp,ra,sp
    7c80:	0205                	addi	tp,tp,1
    7c82:	4289                	li	t0,2
    7c84:	fe5218e3          	bne	tp,t0,7c74 <test_24+0x2>
    7c88:	09a00e93          	li	t4,154
    7c8c:	4e61                	li	t3,24
    7c8e:	07d19363          	bne	gp,t4,7cf4 <fail>

00007c92 <test_25>:
    7c92:	4201                	li	tp,0
    7c94:	412d                	li	sp,11
    7c96:	0001                	nop
    7c98:	0001                	nop
    7c9a:	40bd                	li	ra,15
    7c9c:	022081b3          	mul	gp,ra,sp
    7ca0:	0205                	addi	tp,tp,1
    7ca2:	4289                	li	t0,2
    7ca4:	fe5218e3          	bne	tp,t0,7c94 <test_25+0x2>
    7ca8:	0a500e93          	li	t4,165
    7cac:	4e65                	li	t3,25
    7cae:	05d19363          	bne	gp,t4,7cf4 <fail>

00007cb2 <test_26>:
    7cb2:	40fd                	li	ra,31
    7cb4:	02100133          	mul	sp,zero,ra
    7cb8:	4e81                	li	t4,0
    7cba:	4e69                	li	t3,26
    7cbc:	03d11c63          	bne	sp,t4,7cf4 <fail>

00007cc0 <test_27>:
    7cc0:	02000093          	li	ra,32
    7cc4:	02008133          	mul	sp,ra,zero
    7cc8:	4e81                	li	t4,0
    7cca:	4e6d                	li	t3,27
    7ccc:	03d11463          	bne	sp,t4,7cf4 <fail>

00007cd0 <test_28>:
    7cd0:	020000b3          	mul	ra,zero,zero
    7cd4:	4e81                	li	t4,0
    7cd6:	4e71                	li	t3,28
    7cd8:	01d09e63          	bne	ra,t4,7cf4 <fail>

00007cdc <test_29>:
    7cdc:	02100093          	li	ra,33
    7ce0:	02200113          	li	sp,34
    7ce4:	02208033          	mul	zero,ra,sp
    7ce8:	4e81                	li	t4,0
    7cea:	4e75                	li	t3,29
    7cec:	01d01463          	bne	zero,t4,7cf4 <fail>
    7cf0:	03c01563          	bne	zero,t3,7d1a <pass>

00007cf4 <fail>:
    7cf4:	10010537          	lui	a0,0x10010
    7cf8:	00450513          	addi	a0,a0,4 # 10010004 <_sp+0xfffed24>
    7cfc:	04500593          	li	a1,69
    7d00:	05200613          	li	a2,82
    7d04:	04f00693          	li	a3,79
    7d08:	00a00713          	li	a4,10
    7d0c:	c10c                	sw	a1,0(a0)
    7d0e:	c110                	sw	a2,0(a0)
    7d10:	c110                	sw	a2,0(a0)
    7d12:	c114                	sw	a3,0(a0)
    7d14:	c110                	sw	a2,0(a0)
    7d16:	c118                	sw	a4,0(a0)
    7d18:	9002                	ebreak

00007d1a <pass>:
    7d1a:	10010537          	lui	a0,0x10010
    7d1e:	00450513          	addi	a0,a0,4 # 10010004 <_sp+0xfffed24>
    7d22:	04f00593          	li	a1,79
    7d26:	04b00613          	li	a2,75
    7d2a:	00a00693          	li	a3,10
    7d2e:	c10c                	sw	a1,0(a0)
    7d30:	c110                	sw	a2,0(a0)
    7d32:	c114                	sw	a3,0(a0)
    7d34:	000f0113          	mv	sp,t5
    7d38:	ffc12183          	lw	gp,-4(sp) # fefffffc <pulp__FC+0xfefffffd>
    7d3c:	ff812083          	lw	ra,-8(sp)
    7d40:	e00f806f          	j	340 <mul_ret>

00007d44 <rem>:
    7d44:	00010f13          	mv	t5,sp
    7d48:	fe312e23          	sw	gp,-4(sp)
    7d4c:	fe112c23          	sw	ra,-8(sp)
    7d50:	95c18513          	addi	a0,gp,-1700 # 10278 <rem_data>
    7d54:	10010637          	lui	a2,0x10010
    7d58:	00460613          	addi	a2,a2,4 # 10010004 <_sp+0xfffed24>

00007d5c <.prname_next>:
    7d5c:	00050583          	lb	a1,0(a0)
    7d60:	00058663          	beqz	a1,7d6c <.prname_done>
    7d64:	c20c                	sw	a1,0(a2)
    7d66:	0505                	addi	a0,a0,1
    7d68:	ff5ff06f          	j	7d5c <.prname_next>

00007d6c <.prname_done>:
    7d6c:	02e00593          	li	a1,46
    7d70:	c20c                	sw	a1,0(a2)
    7d72:	c20c                	sw	a1,0(a2)

00007d74 <test_2>:
    7d74:	40d1                	li	ra,20
    7d76:	4119                	li	sp,6
    7d78:	0220e1b3          	rem	gp,ra,sp
    7d7c:	4e89                	li	t4,2
    7d7e:	4e09                	li	t3,2
    7d80:	09d19863          	bne	gp,t4,7e10 <fail>

00007d84 <test_3>:
    7d84:	50b1                	li	ra,-20
    7d86:	4119                	li	sp,6
    7d88:	0220e1b3          	rem	gp,ra,sp
    7d8c:	5ef9                	li	t4,-2
    7d8e:	4e0d                	li	t3,3
    7d90:	09d19063          	bne	gp,t4,7e10 <fail>

00007d94 <test_4>:
    7d94:	40d1                	li	ra,20
    7d96:	5169                	li	sp,-6
    7d98:	0220e1b3          	rem	gp,ra,sp
    7d9c:	4e89                	li	t4,2
    7d9e:	4e11                	li	t3,4
    7da0:	07d19863          	bne	gp,t4,7e10 <fail>

00007da4 <test_5>:
    7da4:	50b1                	li	ra,-20
    7da6:	5169                	li	sp,-6
    7da8:	0220e1b3          	rem	gp,ra,sp
    7dac:	5ef9                	li	t4,-2
    7dae:	4e15                	li	t3,5
    7db0:	07d19063          	bne	gp,t4,7e10 <fail>

00007db4 <test_6>:
    7db4:	800000b7          	lui	ra,0x80000
    7db8:	4105                	li	sp,1
    7dba:	0220e1b3          	rem	gp,ra,sp
    7dbe:	4e81                	li	t4,0
    7dc0:	4e19                	li	t3,6
    7dc2:	05d19763          	bne	gp,t4,7e10 <fail>

00007dc6 <test_7>:
    7dc6:	800000b7          	lui	ra,0x80000
    7dca:	517d                	li	sp,-1
    7dcc:	0220e1b3          	rem	gp,ra,sp
    7dd0:	4e81                	li	t4,0
    7dd2:	4e1d                	li	t3,7
    7dd4:	03d19e63          	bne	gp,t4,7e10 <fail>

00007dd8 <test_8>:
    7dd8:	800000b7          	lui	ra,0x80000
    7ddc:	4101                	li	sp,0
    7dde:	0220e1b3          	rem	gp,ra,sp
    7de2:	80000eb7          	lui	t4,0x80000
    7de6:	4e21                	li	t3,8
    7de8:	03d19463          	bne	gp,t4,7e10 <fail>

00007dec <test_9>:
    7dec:	4085                	li	ra,1
    7dee:	4101                	li	sp,0
    7df0:	0220e1b3          	rem	gp,ra,sp
    7df4:	4e85                	li	t4,1
    7df6:	4e25                	li	t3,9
    7df8:	01d19c63          	bne	gp,t4,7e10 <fail>

00007dfc <test_10>:
    7dfc:	4081                	li	ra,0
    7dfe:	4101                	li	sp,0
    7e00:	0220e1b3          	rem	gp,ra,sp
    7e04:	4e81                	li	t4,0
    7e06:	4e29                	li	t3,10
    7e08:	01d19463          	bne	gp,t4,7e10 <fail>
    7e0c:	03c01563          	bne	zero,t3,7e36 <pass>

00007e10 <fail>:
    7e10:	10010537          	lui	a0,0x10010
    7e14:	00450513          	addi	a0,a0,4 # 10010004 <_sp+0xfffed24>
    7e18:	04500593          	li	a1,69
    7e1c:	05200613          	li	a2,82
    7e20:	04f00693          	li	a3,79
    7e24:	00a00713          	li	a4,10
    7e28:	c10c                	sw	a1,0(a0)
    7e2a:	c110                	sw	a2,0(a0)
    7e2c:	c110                	sw	a2,0(a0)
    7e2e:	c114                	sw	a3,0(a0)
    7e30:	c110                	sw	a2,0(a0)
    7e32:	c118                	sw	a4,0(a0)
    7e34:	9002                	ebreak

00007e36 <pass>:
    7e36:	10010537          	lui	a0,0x10010
    7e3a:	00450513          	addi	a0,a0,4 # 10010004 <_sp+0xfffed24>
    7e3e:	04f00593          	li	a1,79
    7e42:	04b00613          	li	a2,75
    7e46:	00a00693          	li	a3,10
    7e4a:	c10c                	sw	a1,0(a0)
    7e4c:	c110                	sw	a2,0(a0)
    7e4e:	c114                	sw	a3,0(a0)
    7e50:	000f0113          	mv	sp,t5
    7e54:	ffc12183          	lw	gp,-4(sp)
    7e58:	ff812083          	lw	ra,-8(sp)
    7e5c:	cfcf806f          	j	358 <rem_ret>

00007e60 <mulhsu>:
    7e60:	00010f13          	mv	t5,sp
    7e64:	fe312e23          	sw	gp,-4(sp)
    7e68:	fe112c23          	sw	ra,-8(sp)
    7e6c:	96018513          	addi	a0,gp,-1696 # 1027c <mulhsu_data>
    7e70:	10010637          	lui	a2,0x10010
    7e74:	00460613          	addi	a2,a2,4 # 10010004 <_sp+0xfffed24>

00007e78 <.prname_next>:
    7e78:	00050583          	lb	a1,0(a0)
    7e7c:	00058663          	beqz	a1,7e88 <.prname_done>
    7e80:	c20c                	sw	a1,0(a2)
    7e82:	0505                	addi	a0,a0,1
    7e84:	ff5ff06f          	j	7e78 <.prname_next>

00007e88 <.prname_done>:
    7e88:	02e00593          	li	a1,46
    7e8c:	c20c                	sw	a1,0(a2)
    7e8e:	c20c                	sw	a1,0(a2)

00007e90 <test_2>:
    7e90:	4081                	li	ra,0
    7e92:	4101                	li	sp,0
    7e94:	0220a1b3          	mulhsu	gp,ra,sp
    7e98:	4e81                	li	t4,0
    7e9a:	4e09                	li	t3,2
    7e9c:	3dd19c63          	bne	gp,t4,8274 <fail>

00007ea0 <test_3>:
    7ea0:	4085                	li	ra,1
    7ea2:	4105                	li	sp,1
    7ea4:	0220a1b3          	mulhsu	gp,ra,sp
    7ea8:	4e81                	li	t4,0
    7eaa:	4e0d                	li	t3,3
    7eac:	3dd19463          	bne	gp,t4,8274 <fail>

00007eb0 <test_4>:
    7eb0:	408d                	li	ra,3
    7eb2:	411d                	li	sp,7
    7eb4:	0220a1b3          	mulhsu	gp,ra,sp
    7eb8:	4e81                	li	t4,0
    7eba:	4e11                	li	t3,4
    7ebc:	3bd19c63          	bne	gp,t4,8274 <fail>

00007ec0 <test_5>:
    7ec0:	4081                	li	ra,0
    7ec2:	ffff8137          	lui	sp,0xffff8
    7ec6:	0220a1b3          	mulhsu	gp,ra,sp
    7eca:	4e81                	li	t4,0
    7ecc:	4e15                	li	t3,5
    7ece:	3bd19363          	bne	gp,t4,8274 <fail>

00007ed2 <test_6>:
    7ed2:	800000b7          	lui	ra,0x80000
    7ed6:	4101                	li	sp,0
    7ed8:	0220a1b3          	mulhsu	gp,ra,sp
    7edc:	4e81                	li	t4,0
    7ede:	4e19                	li	t3,6
    7ee0:	39d19a63          	bne	gp,t4,8274 <fail>

00007ee4 <test_7>:
    7ee4:	800000b7          	lui	ra,0x80000
    7ee8:	ffff8137          	lui	sp,0xffff8
    7eec:	0220a1b3          	mulhsu	gp,ra,sp
    7ef0:	80004eb7          	lui	t4,0x80004
    7ef4:	4e1d                	li	t3,7
    7ef6:	37d19f63          	bne	gp,t4,8274 <fail>

00007efa <test_30>:
    7efa:	aaaab0b7          	lui	ra,0xaaaab
    7efe:	aab08093          	addi	ra,ra,-1365 # aaaaaaab <pulp__FC+0xaaaaaaac>
    7f02:	00030137          	lui	sp,0x30
    7f06:	e7d10113          	addi	sp,sp,-387 # 2fe7d <_sp+0x1eb9d>
    7f0a:	0220a1b3          	mulhsu	gp,ra,sp
    7f0e:	ffff0eb7          	lui	t4,0xffff0
    7f12:	081e8e93          	addi	t4,t4,129 # ffff0081 <pulp__FC+0xffff0082>
    7f16:	4e79                	li	t3,30
    7f18:	35d19e63          	bne	gp,t4,8274 <fail>

00007f1c <test_31>:
    7f1c:	000300b7          	lui	ra,0x30
    7f20:	e7d08093          	addi	ra,ra,-387 # 2fe7d <_sp+0x1eb9d>
    7f24:	aaaab137          	lui	sp,0xaaaab
    7f28:	aab10113          	addi	sp,sp,-1365 # aaaaaaab <pulp__FC+0xaaaaaaac>
    7f2c:	0220a1b3          	mulhsu	gp,ra,sp
    7f30:	00020eb7          	lui	t4,0x20
    7f34:	efee8e93          	addi	t4,t4,-258 # 1fefe <_sp+0xec1e>
    7f38:	4e7d                	li	t3,31
    7f3a:	33d19d63          	bne	gp,t4,8274 <fail>

00007f3e <test_32>:
    7f3e:	ff0000b7          	lui	ra,0xff000
    7f42:	ff000137          	lui	sp,0xff000
    7f46:	0220a1b3          	mulhsu	gp,ra,sp
    7f4a:	ff010eb7          	lui	t4,0xff010
    7f4e:	02000e13          	li	t3,32
    7f52:	33d19163          	bne	gp,t4,8274 <fail>

00007f56 <test_33>:
    7f56:	fff00093          	li	ra,-1
    7f5a:	fff00113          	li	sp,-1
    7f5e:	0220a1b3          	mulhsu	gp,ra,sp
    7f62:	fff00e93          	li	t4,-1
    7f66:	02100e13          	li	t3,33
    7f6a:	31d19563          	bne	gp,t4,8274 <fail>

00007f6e <test_34>:
    7f6e:	fff00093          	li	ra,-1
    7f72:	4105                	li	sp,1
    7f74:	0220a1b3          	mulhsu	gp,ra,sp
    7f78:	fff00e93          	li	t4,-1
    7f7c:	02200e13          	li	t3,34
    7f80:	2fd19a63          	bne	gp,t4,8274 <fail>

00007f84 <test_35>:
    7f84:	4085                	li	ra,1
    7f86:	fff00113          	li	sp,-1
    7f8a:	0220a1b3          	mulhsu	gp,ra,sp
    7f8e:	4e81                	li	t4,0
    7f90:	02300e13          	li	t3,35
    7f94:	2fd19063          	bne	gp,t4,8274 <fail>

00007f98 <test_8>:
    7f98:	00d000b7          	lui	ra,0xd00
    7f9c:	00b00137          	lui	sp,0xb00
    7fa0:	0220a0b3          	mulhsu	ra,ra,sp
    7fa4:	00009eb7          	lui	t4,0x9
    7fa8:	f00e8e93          	addi	t4,t4,-256 # 8f00 <__read_next_512b_first32b+0x3b8>
    7fac:	4e21                	li	t3,8
    7fae:	2dd09363          	bne	ra,t4,8274 <fail>

00007fb2 <test_9>:
    7fb2:	00e000b7          	lui	ra,0xe00
    7fb6:	00b00137          	lui	sp,0xb00
    7fba:	0220a133          	mulhsu	sp,ra,sp
    7fbe:	0000aeb7          	lui	t4,0xa
    7fc2:	a00e8e93          	addi	t4,t4,-1536 # 9a00 <__read_next_512b_first32b+0xeb8>
    7fc6:	4e25                	li	t3,9
    7fc8:	2bd11663          	bne	sp,t4,8274 <fail>

00007fcc <test_10>:
    7fcc:	00d000b7          	lui	ra,0xd00
    7fd0:	0210a0b3          	mulhsu	ra,ra,ra
    7fd4:	0000beb7          	lui	t4,0xb
    7fd8:	900e8e93          	addi	t4,t4,-1792 # a900 <__read_next_512b_first32b+0x1db8>
    7fdc:	4e29                	li	t3,10
    7fde:	29d09b63          	bne	ra,t4,8274 <fail>

00007fe2 <test_11>:
    7fe2:	4201                	li	tp,0
    7fe4:	00d000b7          	lui	ra,0xd00
    7fe8:	00b00137          	lui	sp,0xb00
    7fec:	0220a1b3          	mulhsu	gp,ra,sp
    7ff0:	00018313          	mv	t1,gp
    7ff4:	0205                	addi	tp,tp,1
    7ff6:	4289                	li	t0,2
    7ff8:	fe5216e3          	bne	tp,t0,7fe4 <test_11+0x2>
    7ffc:	00009eb7          	lui	t4,0x9
    8000:	f00e8e93          	addi	t4,t4,-256 # 8f00 <__read_next_512b_first32b+0x3b8>
    8004:	4e2d                	li	t3,11
    8006:	27d31763          	bne	t1,t4,8274 <fail>

0000800a <test_12>:
    800a:	4201                	li	tp,0
    800c:	00e000b7          	lui	ra,0xe00
    8010:	00b00137          	lui	sp,0xb00
    8014:	0220a1b3          	mulhsu	gp,ra,sp
    8018:	0001                	nop
    801a:	00018313          	mv	t1,gp
    801e:	0205                	addi	tp,tp,1
    8020:	4289                	li	t0,2
    8022:	fe5215e3          	bne	tp,t0,800c <test_12+0x2>
    8026:	0000aeb7          	lui	t4,0xa
    802a:	a00e8e93          	addi	t4,t4,-1536 # 9a00 <__read_next_512b_first32b+0xeb8>
    802e:	4e31                	li	t3,12
    8030:	25d31263          	bne	t1,t4,8274 <fail>

00008034 <test_13>:
    8034:	4201                	li	tp,0
    8036:	00f000b7          	lui	ra,0xf00
    803a:	00b00137          	lui	sp,0xb00
    803e:	0220a1b3          	mulhsu	gp,ra,sp
    8042:	0001                	nop
    8044:	0001                	nop
    8046:	00018313          	mv	t1,gp
    804a:	0205                	addi	tp,tp,1
    804c:	4289                	li	t0,2
    804e:	fe5214e3          	bne	tp,t0,8036 <test_13+0x2>
    8052:	0000aeb7          	lui	t4,0xa
    8056:	500e8e93          	addi	t4,t4,1280 # a500 <__read_next_512b_first32b+0x19b8>
    805a:	4e35                	li	t3,13
    805c:	21d31c63          	bne	t1,t4,8274 <fail>

00008060 <test_14>:
    8060:	4201                	li	tp,0
    8062:	00d000b7          	lui	ra,0xd00
    8066:	00b00137          	lui	sp,0xb00
    806a:	0220a1b3          	mulhsu	gp,ra,sp
    806e:	0205                	addi	tp,tp,1
    8070:	4289                	li	t0,2
    8072:	fe5218e3          	bne	tp,t0,8062 <test_14+0x2>
    8076:	00009eb7          	lui	t4,0x9
    807a:	f00e8e93          	addi	t4,t4,-256 # 8f00 <__read_next_512b_first32b+0x3b8>
    807e:	4e39                	li	t3,14
    8080:	1fd19a63          	bne	gp,t4,8274 <fail>

00008084 <test_15>:
    8084:	4201                	li	tp,0
    8086:	00e000b7          	lui	ra,0xe00
    808a:	00b00137          	lui	sp,0xb00
    808e:	0001                	nop
    8090:	0220a1b3          	mulhsu	gp,ra,sp
    8094:	0205                	addi	tp,tp,1
    8096:	4289                	li	t0,2
    8098:	fe5217e3          	bne	tp,t0,8086 <test_15+0x2>
    809c:	0000aeb7          	lui	t4,0xa
    80a0:	a00e8e93          	addi	t4,t4,-1536 # 9a00 <__read_next_512b_first32b+0xeb8>
    80a4:	4e3d                	li	t3,15
    80a6:	1dd19763          	bne	gp,t4,8274 <fail>

000080aa <test_16>:
    80aa:	4201                	li	tp,0
    80ac:	00f000b7          	lui	ra,0xf00
    80b0:	00b00137          	lui	sp,0xb00
    80b4:	0001                	nop
    80b6:	0001                	nop
    80b8:	0220a1b3          	mulhsu	gp,ra,sp
    80bc:	0205                	addi	tp,tp,1
    80be:	4289                	li	t0,2
    80c0:	fe5216e3          	bne	tp,t0,80ac <test_16+0x2>
    80c4:	0000aeb7          	lui	t4,0xa
    80c8:	500e8e93          	addi	t4,t4,1280 # a500 <__read_next_512b_first32b+0x19b8>
    80cc:	4e41                	li	t3,16
    80ce:	1bd19363          	bne	gp,t4,8274 <fail>

000080d2 <test_17>:
    80d2:	4201                	li	tp,0
    80d4:	00d000b7          	lui	ra,0xd00
    80d8:	0001                	nop
    80da:	00b00137          	lui	sp,0xb00
    80de:	0220a1b3          	mulhsu	gp,ra,sp
    80e2:	0205                	addi	tp,tp,1
    80e4:	4289                	li	t0,2
    80e6:	fe5217e3          	bne	tp,t0,80d4 <test_17+0x2>
    80ea:	00009eb7          	lui	t4,0x9
    80ee:	f00e8e93          	addi	t4,t4,-256 # 8f00 <__read_next_512b_first32b+0x3b8>
    80f2:	4e45                	li	t3,17
    80f4:	19d19063          	bne	gp,t4,8274 <fail>

000080f8 <test_18>:
    80f8:	4201                	li	tp,0
    80fa:	00e000b7          	lui	ra,0xe00
    80fe:	0001                	nop
    8100:	00b00137          	lui	sp,0xb00
    8104:	0001                	nop
    8106:	0220a1b3          	mulhsu	gp,ra,sp
    810a:	0205                	addi	tp,tp,1
    810c:	4289                	li	t0,2
    810e:	fe5216e3          	bne	tp,t0,80fa <test_18+0x2>
    8112:	0000aeb7          	lui	t4,0xa
    8116:	a00e8e93          	addi	t4,t4,-1536 # 9a00 <__read_next_512b_first32b+0xeb8>
    811a:	4e49                	li	t3,18
    811c:	15d19c63          	bne	gp,t4,8274 <fail>

00008120 <test_19>:
    8120:	4201                	li	tp,0
    8122:	00f000b7          	lui	ra,0xf00
    8126:	0001                	nop
    8128:	0001                	nop
    812a:	00b00137          	lui	sp,0xb00
    812e:	0220a1b3          	mulhsu	gp,ra,sp
    8132:	0205                	addi	tp,tp,1
    8134:	4289                	li	t0,2
    8136:	fe5216e3          	bne	tp,t0,8122 <test_19+0x2>
    813a:	0000aeb7          	lui	t4,0xa
    813e:	500e8e93          	addi	t4,t4,1280 # a500 <__read_next_512b_first32b+0x19b8>
    8142:	4e4d                	li	t3,19
    8144:	13d19863          	bne	gp,t4,8274 <fail>

00008148 <test_20>:
    8148:	4201                	li	tp,0
    814a:	00b00137          	lui	sp,0xb00
    814e:	00d000b7          	lui	ra,0xd00
    8152:	0220a1b3          	mulhsu	gp,ra,sp
    8156:	0205                	addi	tp,tp,1
    8158:	4289                	li	t0,2
    815a:	fe5218e3          	bne	tp,t0,814a <test_20+0x2>
    815e:	00009eb7          	lui	t4,0x9
    8162:	f00e8e93          	addi	t4,t4,-256 # 8f00 <__read_next_512b_first32b+0x3b8>
    8166:	4e51                	li	t3,20
    8168:	11d19663          	bne	gp,t4,8274 <fail>

0000816c <test_21>:
    816c:	4201                	li	tp,0
    816e:	00b00137          	lui	sp,0xb00
    8172:	00e000b7          	lui	ra,0xe00
    8176:	0001                	nop
    8178:	0220a1b3          	mulhsu	gp,ra,sp
    817c:	0205                	addi	tp,tp,1
    817e:	4289                	li	t0,2
    8180:	fe5217e3          	bne	tp,t0,816e <test_21+0x2>
    8184:	0000aeb7          	lui	t4,0xa
    8188:	a00e8e93          	addi	t4,t4,-1536 # 9a00 <__read_next_512b_first32b+0xeb8>
    818c:	4e55                	li	t3,21
    818e:	0fd19363          	bne	gp,t4,8274 <fail>

00008192 <test_22>:
    8192:	4201                	li	tp,0
    8194:	00b00137          	lui	sp,0xb00
    8198:	00f000b7          	lui	ra,0xf00
    819c:	0001                	nop
    819e:	0001                	nop
    81a0:	0220a1b3          	mulhsu	gp,ra,sp
    81a4:	0205                	addi	tp,tp,1
    81a6:	4289                	li	t0,2
    81a8:	fe5216e3          	bne	tp,t0,8194 <test_22+0x2>
    81ac:	0000aeb7          	lui	t4,0xa
    81b0:	500e8e93          	addi	t4,t4,1280 # a500 <__read_next_512b_first32b+0x19b8>
    81b4:	4e59                	li	t3,22
    81b6:	0bd19f63          	bne	gp,t4,8274 <fail>

000081ba <test_23>:
    81ba:	4201                	li	tp,0
    81bc:	00b00137          	lui	sp,0xb00
    81c0:	0001                	nop
    81c2:	00d000b7          	lui	ra,0xd00
    81c6:	0220a1b3          	mulhsu	gp,ra,sp
    81ca:	0205                	addi	tp,tp,1
    81cc:	4289                	li	t0,2
    81ce:	fe5217e3          	bne	tp,t0,81bc <test_23+0x2>
    81d2:	00009eb7          	lui	t4,0x9
    81d6:	f00e8e93          	addi	t4,t4,-256 # 8f00 <__read_next_512b_first32b+0x3b8>
    81da:	4e5d                	li	t3,23
    81dc:	09d19c63          	bne	gp,t4,8274 <fail>

000081e0 <test_24>:
    81e0:	4201                	li	tp,0
    81e2:	00b00137          	lui	sp,0xb00
    81e6:	0001                	nop
    81e8:	00e000b7          	lui	ra,0xe00
    81ec:	0001                	nop
    81ee:	0220a1b3          	mulhsu	gp,ra,sp
    81f2:	0205                	addi	tp,tp,1
    81f4:	4289                	li	t0,2
    81f6:	fe5216e3          	bne	tp,t0,81e2 <test_24+0x2>
    81fa:	0000aeb7          	lui	t4,0xa
    81fe:	a00e8e93          	addi	t4,t4,-1536 # 9a00 <__read_next_512b_first32b+0xeb8>
    8202:	4e61                	li	t3,24
    8204:	07d19863          	bne	gp,t4,8274 <fail>

00008208 <test_25>:
    8208:	4201                	li	tp,0
    820a:	00b00137          	lui	sp,0xb00
    820e:	0001                	nop
    8210:	0001                	nop
    8212:	00f000b7          	lui	ra,0xf00
    8216:	0220a1b3          	mulhsu	gp,ra,sp
    821a:	0205                	addi	tp,tp,1
    821c:	4289                	li	t0,2
    821e:	fe5216e3          	bne	tp,t0,820a <test_25+0x2>
    8222:	0000aeb7          	lui	t4,0xa
    8226:	500e8e93          	addi	t4,t4,1280 # a500 <__read_next_512b_first32b+0x19b8>
    822a:	4e65                	li	t3,25
    822c:	05d19463          	bne	gp,t4,8274 <fail>

00008230 <test_26>:
    8230:	7c0000b7          	lui	ra,0x7c000
    8234:	02102133          	mulhsu	sp,zero,ra
    8238:	4e81                	li	t4,0
    823a:	4e69                	li	t3,26
    823c:	03d11c63          	bne	sp,t4,8274 <fail>

00008240 <test_27>:
    8240:	800000b7          	lui	ra,0x80000
    8244:	0200a133          	mulhsu	sp,ra,zero
    8248:	4e81                	li	t4,0
    824a:	4e6d                	li	t3,27
    824c:	03d11463          	bne	sp,t4,8274 <fail>

00008250 <test_28>:
    8250:	020020b3          	mulhsu	ra,zero,zero
    8254:	4e81                	li	t4,0
    8256:	4e71                	li	t3,28
    8258:	01d09e63          	bne	ra,t4,8274 <fail>

0000825c <test_29>:
    825c:	021000b7          	lui	ra,0x2100
    8260:	02200137          	lui	sp,0x2200
    8264:	0220a033          	mulhsu	zero,ra,sp
    8268:	4e81                	li	t4,0
    826a:	4e75                	li	t3,29
    826c:	01d01463          	bne	zero,t4,8274 <fail>
    8270:	03c01563          	bne	zero,t3,829a <pass>

00008274 <fail>:
    8274:	10010537          	lui	a0,0x10010
    8278:	00450513          	addi	a0,a0,4 # 10010004 <_sp+0xfffed24>
    827c:	04500593          	li	a1,69
    8280:	05200613          	li	a2,82
    8284:	04f00693          	li	a3,79
    8288:	00a00713          	li	a4,10
    828c:	c10c                	sw	a1,0(a0)
    828e:	c110                	sw	a2,0(a0)
    8290:	c110                	sw	a2,0(a0)
    8292:	c114                	sw	a3,0(a0)
    8294:	c110                	sw	a2,0(a0)
    8296:	c118                	sw	a4,0(a0)
    8298:	9002                	ebreak

0000829a <pass>:
    829a:	10010537          	lui	a0,0x10010
    829e:	00450513          	addi	a0,a0,4 # 10010004 <_sp+0xfffed24>
    82a2:	04f00593          	li	a1,79
    82a6:	04b00613          	li	a2,75
    82aa:	00a00693          	li	a3,10
    82ae:	c10c                	sw	a1,0(a0)
    82b0:	c110                	sw	a2,0(a0)
    82b2:	c114                	sw	a3,0(a0)
    82b4:	000f0113          	mv	sp,t5
    82b8:	ffc12183          	lw	gp,-4(sp) # 21ffffc <_sp+0x21eed1c>
    82bc:	ff812083          	lw	ra,-8(sp)
    82c0:	870f806f          	j	330 <mulhsu_ret>

000082c4 <print_chr>:
    82c4:	100107b7          	lui	a5,0x10010
    82c8:	c3c8                	sw	a0,4(a5)
    82ca:	8082                	ret

000082cc <print_str>:
    82cc:	10010737          	lui	a4,0x10010
    82d0:	00054783          	lbu	a5,0(a0)
    82d4:	e391                	bnez	a5,82d8 <print_str+0xc>
    82d6:	8082                	ret
    82d8:	0505                	addi	a0,a0,1
    82da:	c35c                	sw	a5,4(a4)
    82dc:	bfd5                	j	82d0 <print_str+0x4>

000082de <print_dec>:
    82de:	1141                	addi	sp,sp,-16
    82e0:	005c                	addi	a5,sp,4
    82e2:	86be                	mv	a3,a5
    82e4:	4629                	li	a2,10
    82e6:	ed19                	bnez	a0,8304 <print_dec+0x26>
    82e8:	00d78e63          	beq	a5,a3,8304 <print_dec+0x26>
    82ec:	10010637          	lui	a2,0x10010
    82f0:	17fd                	addi	a5,a5,-1
    82f2:	0007c703          	lbu	a4,0(a5) # 10010000 <_sp+0xfffed20>
    82f6:	03070713          	addi	a4,a4,48 # 10010030 <_sp+0xfffed50>
    82fa:	c258                	sw	a4,4(a2)
    82fc:	fed79ae3          	bne	a5,a3,82f0 <print_dec+0x12>
    8300:	0141                	addi	sp,sp,16
    8302:	8082                	ret
    8304:	02c57733          	remu	a4,a0,a2
    8308:	0785                	addi	a5,a5,1
    830a:	fee78fa3          	sb	a4,-1(a5)
    830e:	02c55533          	divu	a0,a0,a2
    8312:	bfd1                	j	82e6 <print_dec+0x8>

00008314 <print_hex>:
    8314:	15fd                	addi	a1,a1,-1
    8316:	00010737          	lui	a4,0x10
    831a:	058a                	slli	a1,a1,0x2
    831c:	02c70713          	addi	a4,a4,44 # 1002c <__read_next_512b_first32b+0x74e4>
    8320:	100106b7          	lui	a3,0x10010
    8324:	0005d363          	bgez	a1,832a <print_hex+0x16>
    8328:	8082                	ret
    832a:	00b557b3          	srl	a5,a0,a1
    832e:	8bbd                	andi	a5,a5,15
    8330:	97ba                	add	a5,a5,a4
    8332:	0007c783          	lbu	a5,0(a5)
    8336:	15f1                	addi	a1,a1,-4
    8338:	c2dc                	sw	a5,4(a3)
    833a:	b7ed                	j	8324 <print_hex+0x10>

0000833c <print>:
    833c:	7179                	addi	sp,sp,-48
    833e:	d422                	sw	s0,40(sp)
    8340:	d226                	sw	s1,36(sp)
    8342:	d04a                	sw	s2,32(sp)
    8344:	ce4e                	sw	s3,28(sp)
    8346:	cc52                	sw	s4,24(sp)
    8348:	ca56                	sw	s5,20(sp)
    834a:	c85a                	sw	s6,16(sp)
    834c:	c65e                	sw	s7,12(sp)
    834e:	d606                	sw	ra,44(sp)
    8350:	c462                	sw	s8,8(sp)
    8352:	842a                	mv	s0,a0
    8354:	87ae                	mv	a5,a1
    8356:	4481                	li	s1,0
    8358:	02500913          	li	s2,37
    835c:	100109b7          	lui	s3,0x10010
    8360:	02d00a13          	li	s4,45
    8364:	03000a93          	li	s5,48
    8368:	4b25                	li	s6,9
    836a:	4ba9                	li	s7,10
    836c:	00044703          	lbu	a4,0(s0)
    8370:	ef11                	bnez	a4,838c <print+0x50>
    8372:	50b2                	lw	ra,44(sp)
    8374:	5422                	lw	s0,40(sp)
    8376:	8526                	mv	a0,s1
    8378:	5902                	lw	s2,32(sp)
    837a:	5492                	lw	s1,36(sp)
    837c:	49f2                	lw	s3,28(sp)
    837e:	4a62                	lw	s4,24(sp)
    8380:	4ad2                	lw	s5,20(sp)
    8382:	4b42                	lw	s6,16(sp)
    8384:	4bb2                	lw	s7,12(sp)
    8386:	4c22                	lw	s8,8(sp)
    8388:	6145                	addi	sp,sp,48
    838a:	8082                	ret
    838c:	0b271863          	bne	a4,s2,843c <print+0x100>
    8390:	00144683          	lbu	a3,1(s0)
    8394:	def9                	beqz	a3,8372 <print+0x36>
    8396:	00140713          	addi	a4,s0,1
    839a:	0b268063          	beq	a3,s2,843a <print+0xfe>
    839e:	01469463          	bne	a3,s4,83a6 <print+0x6a>
    83a2:	00240713          	addi	a4,s0,2
    83a6:	843a                	mv	s0,a4
    83a8:	00044703          	lbu	a4,0(s0)
    83ac:	00140693          	addi	a3,s0,1
    83b0:	03570863          	beq	a4,s5,83e0 <print+0xa4>
    83b4:	4581                	li	a1,0
    83b6:	00044703          	lbu	a4,0(s0)
    83ba:	00140513          	addi	a0,s0,1
    83be:	fd070693          	addi	a3,a4,-48
    83c2:	0ff6f613          	andi	a2,a3,255
    83c6:	00cb7f63          	bleu	a2,s6,83e4 <print+0xa8>
    83ca:	07300693          	li	a3,115
    83ce:	02d71063          	bne	a4,a3,83ee <print+0xb2>
    83d2:	4388                	lw	a0,0(a5)
    83d4:	00478c13          	addi	s8,a5,4
    83d8:	3dd5                	jal	82cc <print_str>
    83da:	87e2                	mv	a5,s8
    83dc:	0405                	addi	s0,s0,1
    83de:	b779                	j	836c <print+0x30>
    83e0:	8436                	mv	s0,a3
    83e2:	b7d9                	j	83a8 <print+0x6c>
    83e4:	037585b3          	mul	a1,a1,s7
    83e8:	842a                	mv	s0,a0
    83ea:	95b6                	add	a1,a1,a3
    83ec:	b7e9                	j	83b6 <print+0x7a>
    83ee:	06400693          	li	a3,100
    83f2:	00d71863          	bne	a4,a3,8402 <print+0xc6>
    83f6:	4388                	lw	a0,0(a5)
    83f8:	00478c13          	addi	s8,a5,4
    83fc:	35cd                	jal	82de <print_dec>
    83fe:	0485                	addi	s1,s1,1
    8400:	bfe9                	j	83da <print+0x9e>
    8402:	07800693          	li	a3,120
    8406:	00d71763          	bne	a4,a3,8414 <print+0xd8>
    840a:	4388                	lw	a0,0(a5)
    840c:	00478c13          	addi	s8,a5,4
    8410:	3711                	jal	8314 <print_hex>
    8412:	b7f5                	j	83fe <print+0xc2>
    8414:	05800693          	li	a3,88
    8418:	fed709e3          	beq	a4,a3,840a <print+0xce>
    841c:	07500693          	li	a3,117
    8420:	fcd70be3          	beq	a4,a3,83f6 <print+0xba>
    8424:	06300693          	li	a3,99
    8428:	fad71ae3          	bne	a4,a3,83dc <print+0xa0>
    842c:	0007c703          	lbu	a4,0(a5)
    8430:	0485                	addi	s1,s1,1
    8432:	0791                	addi	a5,a5,4
    8434:	00e9a223          	sw	a4,4(s3) # 10010004 <_sp+0xfffed24>
    8438:	b755                	j	83dc <print+0xa0>
    843a:	843a                	mv	s0,a4
    843c:	00044703          	lbu	a4,0(s0)
    8440:	0485                	addi	s1,s1,1
    8442:	00e9a223          	sw	a4,4(s3)
    8446:	bf59                	j	83dc <print+0xa0>

00008448 <print_void>:
    8448:	8082                	ret

0000844a <printf>:
    844a:	7139                	addi	sp,sp,-64
    844c:	d22e                	sw	a1,36(sp)
    844e:	104c                	addi	a1,sp,36
    8450:	ce06                	sw	ra,28(sp)
    8452:	d432                	sw	a2,40(sp)
    8454:	d636                	sw	a3,44(sp)
    8456:	d83a                	sw	a4,48(sp)
    8458:	da3e                	sw	a5,52(sp)
    845a:	dc42                	sw	a6,56(sp)
    845c:	de46                	sw	a7,60(sp)
    845e:	c62e                	sw	a1,12(sp)
    8460:	3df1                	jal	833c <print>
    8462:	40f2                	lw	ra,28(sp)
    8464:	6121                	addi	sp,sp,64
    8466:	8082                	ret

00008468 <sys_gettime>:
    8468:	100407b7          	lui	a5,0x10040
    846c:	03078713          	addi	a4,a5,48 # 10040030 <_sp+0x1002ed50>
    8470:	5b9c                	lw	a5,48(a5)
    8472:	c15c                	sw	a5,4(a0)
    8474:	435c                	lw	a5,4(a4)
    8476:	c11c                	sw	a5,0(a0)
    8478:	8082                	ret

0000847a <time>:
    847a:	b0002573          	csrr	a0,0xb00
    847e:	8082                	ret

00008480 <insn>:
    8480:	b0002573          	csrr	a0,0xb00
    8484:	8082                	ret

00008486 <memcpy>:
    8486:	962a                	add	a2,a2,a0
    8488:	87aa                	mv	a5,a0
    848a:	00c79363          	bne	a5,a2,8490 <memcpy+0xa>
    848e:	8082                	ret
    8490:	0585                	addi	a1,a1,1
    8492:	fff5c703          	lbu	a4,-1(a1)
    8496:	0785                	addi	a5,a5,1
    8498:	fee78fa3          	sb	a4,-1(a5)
    849c:	b7fd                	j	848a <memcpy+0x4>

0000849e <memset>:
    849e:	962a                	add	a2,a2,a0
    84a0:	87aa                	mv	a5,a0
    84a2:	00c79363          	bne	a5,a2,84a8 <memset+0xa>
    84a6:	8082                	ret
    84a8:	00b78023          	sb	a1,0(a5)
    84ac:	0785                	addi	a5,a5,1
    84ae:	bfd5                	j	84a2 <memset+0x4>

000084b0 <memcmp>:
    84b0:	ce11                	beqz	a2,84cc <memcmp+0x1c>
    84b2:	00150793          	addi	a5,a0,1
    84b6:	9532                	add	a0,a0,a2
    84b8:	fff7c603          	lbu	a2,-1(a5)
    84bc:	0005c703          	lbu	a4,0(a1)
    84c0:	00a78563          	beq	a5,a0,84ca <memcmp+0x1a>
    84c4:	0785                	addi	a5,a5,1
    84c6:	00e60563          	beq	a2,a4,84d0 <memcmp+0x20>
    84ca:	8e19                	sub	a2,a2,a4
    84cc:	8532                	mv	a0,a2
    84ce:	8082                	ret
    84d0:	0585                	addi	a1,a1,1
    84d2:	b7dd                	j	84b8 <memcmp+0x8>

000084d4 <memmove>:
    84d4:	00b57e63          	bleu	a1,a0,84f0 <memmove+0x1c>
    84d8:	962a                	add	a2,a2,a0
    84da:	87aa                	mv	a5,a0
    84dc:	00c79363          	bne	a5,a2,84e2 <memmove+0xe>
    84e0:	8082                	ret
    84e2:	0585                	addi	a1,a1,1
    84e4:	fff5c703          	lbu	a4,-1(a1)
    84e8:	0785                	addi	a5,a5,1
    84ea:	fee78fa3          	sb	a4,-1(a5)
    84ee:	b7fd                	j	84dc <memmove+0x8>
    84f0:	00a5fa63          	bleu	a0,a1,8504 <memmove+0x30>
    84f4:	fff60793          	addi	a5,a2,-1 # 1000ffff <_sp+0xfffed1f>
    84f8:	95be                	add	a1,a1,a5
    84fa:	97aa                	add	a5,a5,a0
    84fc:	8e1d                	sub	a2,a2,a5
    84fe:	00c78733          	add	a4,a5,a2
    8502:	e311                	bnez	a4,8506 <memmove+0x32>
    8504:	8082                	ret
    8506:	15fd                	addi	a1,a1,-1
    8508:	0015c703          	lbu	a4,1(a1)
    850c:	17fd                	addi	a5,a5,-1
    850e:	00e780a3          	sb	a4,1(a5)
    8512:	b7f5                	j	84fe <memmove+0x2a>

00008514 <strnlen>:
    8514:	872a                	mv	a4,a0
    8516:	95aa                	add	a1,a1,a0
    8518:	87aa                	mv	a5,a0
    851a:	40e78533          	sub	a0,a5,a4
    851e:	00b78563          	beq	a5,a1,8528 <strnlen+0x14>
    8522:	0007c683          	lbu	a3,0(a5)
    8526:	e291                	bnez	a3,852a <strnlen+0x16>
    8528:	8082                	ret
    852a:	0785                	addi	a5,a5,1
    852c:	b7fd                	j	851a <strnlen+0x6>

0000852e <strlen>:
    852e:	87aa                	mv	a5,a0
    8530:	0785                	addi	a5,a5,1
    8532:	fff7c703          	lbu	a4,-1(a5)
    8536:	ff6d                	bnez	a4,8530 <strlen+0x2>
    8538:	40a78533          	sub	a0,a5,a0
    853c:	157d                	addi	a0,a0,-1
    853e:	8082                	ret

00008540 <strcpy>:
    8540:	872a                	mv	a4,a0
    8542:	00b767b3          	or	a5,a4,a1
    8546:	8b8d                	andi	a5,a5,3
    8548:	efa9                	bnez	a5,85a2 <strcpy+0x62>
    854a:	feff0637          	lui	a2,0xfeff0
    854e:	80808837          	lui	a6,0x80808
    8552:	eff60613          	addi	a2,a2,-257 # fefefeff <pulp__FC+0xfefeff00>
    8556:	08080813          	addi	a6,a6,128 # 80808080 <pulp__FC+0x80808081>
    855a:	419c                	lw	a5,0(a1)
    855c:	00c786b3          	add	a3,a5,a2
    8560:	fff7c893          	not	a7,a5
    8564:	0116f6b3          	and	a3,a3,a7
    8568:	0106f6b3          	and	a3,a3,a6
    856c:	c2b9                	beqz	a3,85b2 <strcpy+0x72>
    856e:	86be                	mv	a3,a5
    8570:	00d70023          	sb	a3,0(a4)
    8574:	0ff7f693          	andi	a3,a5,255
    8578:	ce85                	beqz	a3,85b0 <strcpy+0x70>
    857a:	0087d693          	srli	a3,a5,0x8
    857e:	8636                	mv	a2,a3
    8580:	00c700a3          	sb	a2,1(a4)
    8584:	0ff6f693          	andi	a3,a3,255
    8588:	c685                	beqz	a3,85b0 <strcpy+0x70>
    858a:	0107d693          	srli	a3,a5,0x10
    858e:	8636                	mv	a2,a3
    8590:	00c70123          	sb	a2,2(a4)
    8594:	0ff6f693          	andi	a3,a3,255
    8598:	ce81                	beqz	a3,85b0 <strcpy+0x70>
    859a:	83e1                	srli	a5,a5,0x18
    859c:	00f701a3          	sb	a5,3(a4)
    85a0:	8082                	ret
    85a2:	0585                	addi	a1,a1,1
    85a4:	fff5c783          	lbu	a5,-1(a1)
    85a8:	0705                	addi	a4,a4,1
    85aa:	fef70fa3          	sb	a5,-1(a4)
    85ae:	fbd1                	bnez	a5,8542 <strcpy+0x2>
    85b0:	8082                	ret
    85b2:	c31c                	sw	a5,0(a4)
    85b4:	0591                	addi	a1,a1,4
    85b6:	0711                	addi	a4,a4,4
    85b8:	b74d                	j	855a <strcpy+0x1a>

000085ba <strcmp>:
    85ba:	00b567b3          	or	a5,a0,a1
    85be:	8b8d                	andi	a5,a5,3
    85c0:	eb85                	bnez	a5,85f0 <strcmp+0x36>
    85c2:	feff06b7          	lui	a3,0xfeff0
    85c6:	80808637          	lui	a2,0x80808
    85ca:	eff68693          	addi	a3,a3,-257 # fefefeff <pulp__FC+0xfefeff00>
    85ce:	08060613          	addi	a2,a2,128 # 80808080 <pulp__FC+0x80808081>
    85d2:	411c                	lw	a5,0(a0)
    85d4:	4198                	lw	a4,0(a1)
    85d6:	06e78d63          	beq	a5,a4,8650 <strcmp+0x96>
    85da:	0ff7f693          	andi	a3,a5,255
    85de:	0ff77613          	andi	a2,a4,255
    85e2:	02c68763          	beq	a3,a2,8610 <strcmp+0x56>
    85e6:	4505                	li	a0,1
    85e8:	06c6f363          	bleu	a2,a3,864e <strcmp+0x94>
    85ec:	557d                	li	a0,-1
    85ee:	8082                	ret
    85f0:	0505                	addi	a0,a0,1
    85f2:	0585                	addi	a1,a1,1
    85f4:	fff54783          	lbu	a5,-1(a0)
    85f8:	fff5c703          	lbu	a4,-1(a1)
    85fc:	00e78763          	beq	a5,a4,860a <strcmp+0x50>
    8600:	557d                	li	a0,-1
    8602:	04e7e663          	bltu	a5,a4,864e <strcmp+0x94>
    8606:	4505                	li	a0,1
    8608:	8082                	ret
    860a:	fbc5                	bnez	a5,85ba <strcmp>
    860c:	4501                	li	a0,0
    860e:	a081                	j	864e <strcmp+0x94>
    8610:	4501                	li	a0,0
    8612:	ce95                	beqz	a3,864e <strcmp+0x94>
    8614:	0087d693          	srli	a3,a5,0x8
    8618:	00875613          	srli	a2,a4,0x8
    861c:	0ff6f693          	andi	a3,a3,255
    8620:	0ff67613          	andi	a2,a2,255
    8624:	fcc691e3          	bne	a3,a2,85e6 <strcmp+0x2c>
    8628:	c29d                	beqz	a3,864e <strcmp+0x94>
    862a:	0107d693          	srli	a3,a5,0x10
    862e:	01075613          	srli	a2,a4,0x10
    8632:	0ff6f693          	andi	a3,a3,255
    8636:	0ff67613          	andi	a2,a2,255
    863a:	fac696e3          	bne	a3,a2,85e6 <strcmp+0x2c>
    863e:	ca81                	beqz	a3,864e <strcmp+0x94>
    8640:	83e1                	srli	a5,a5,0x18
    8642:	8361                	srli	a4,a4,0x18
    8644:	00e78563          	beq	a5,a4,864e <strcmp+0x94>
    8648:	4505                	li	a0,1
    864a:	fae7e1e3          	bltu	a5,a4,85ec <strcmp+0x32>
    864e:	8082                	ret
    8650:	00d78733          	add	a4,a5,a3
    8654:	fff7c793          	not	a5,a5
    8658:	8ff9                	and	a5,a5,a4
    865a:	8ff1                	and	a5,a5,a2
    865c:	fbc5                	bnez	a5,860c <strcmp+0x52>
    865e:	0511                	addi	a0,a0,4
    8660:	0591                	addi	a1,a1,4
    8662:	bf85                	j	85d2 <strcmp+0x18>

00008664 <strncmp>:
    8664:	87aa                	mv	a5,a0
    8666:	40a78733          	sub	a4,a5,a0
    866a:	00c75e63          	ble	a2,a4,8686 <strncmp+0x22>
    866e:	0007c683          	lbu	a3,0(a5)
    8672:	0005c703          	lbu	a4,0(a1)
    8676:	00d76a63          	bltu	a4,a3,868a <strncmp+0x26>
    867a:	00e6ea63          	bltu	a3,a4,868e <strncmp+0x2a>
    867e:	c681                	beqz	a3,8686 <strncmp+0x22>
    8680:	0785                	addi	a5,a5,1
    8682:	0585                	addi	a1,a1,1
    8684:	f36d                	bnez	a4,8666 <strncmp+0x2>
    8686:	4501                	li	a0,0
    8688:	8082                	ret
    868a:	4505                	li	a0,1
    868c:	8082                	ret
    868e:	557d                	li	a0,-1
    8690:	8082                	ret

00008692 <atoi>:
    8692:	02000713          	li	a4,32
    8696:	00054783          	lbu	a5,0(a0)
    869a:	02e78063          	beq	a5,a4,86ba <atoi+0x28>
    869e:	02d00713          	li	a4,45
    86a2:	00e78e63          	beq	a5,a4,86be <atoi+0x2c>
    86a6:	02b00713          	li	a4,43
    86aa:	4681                	li	a3,0
    86ac:	00e79363          	bne	a5,a4,86b2 <atoi+0x20>
    86b0:	0505                	addi	a0,a0,1
    86b2:	4781                	li	a5,0
    86b4:	45a5                	li	a1,9
    86b6:	4829                	li	a6,10
    86b8:	a819                	j	86ce <atoi+0x3c>
    86ba:	0505                	addi	a0,a0,1
    86bc:	bfe9                	j	8696 <atoi+0x4>
    86be:	4685                	li	a3,1
    86c0:	bfc5                	j	86b0 <atoi+0x1e>
    86c2:	030787b3          	mul	a5,a5,a6
    86c6:	0505                	addi	a0,a0,1
    86c8:	97b2                	add	a5,a5,a2
    86ca:	fd078793          	addi	a5,a5,-48
    86ce:	00054603          	lbu	a2,0(a0)
    86d2:	fd060713          	addi	a4,a2,-48
    86d6:	0ff77713          	andi	a4,a4,255
    86da:	fee5f4e3          	bleu	a4,a1,86c2 <atoi+0x30>
    86de:	557d                	li	a0,-1
    86e0:	e291                	bnez	a3,86e4 <atoi+0x52>
    86e2:	4505                	li	a0,1
    86e4:	02a78533          	mul	a0,a5,a0
    86e8:	8082                	ret

000086ea <uart_echo>:
    86ea:	100107b7          	lui	a5,0x10010
    86ee:	438c                	lw	a1,0(a5)
    86f0:	1141                	addi	sp,sp,-16
    86f2:	c422                	sw	s0,8(sp)
    86f4:	c226                	sw	s1,4(sp)
    86f6:	c04a                	sw	s2,0(sp)
    86f8:	c606                	sw	ra,12(sp)
    86fa:	80000437          	lui	s0,0x80000
    86fe:	000104b7          	lui	s1,0x10
    8702:	10010937          	lui	s2,0x10010
    8706:	00859863          	bne	a1,s0,8716 <uart_echo+0x2c>
    870a:	40b2                	lw	ra,12(sp)
    870c:	4422                	lw	s0,8(sp)
    870e:	4492                	lw	s1,4(sp)
    8710:	4902                	lw	s2,0(sp)
    8712:	0141                	addi	sp,sp,16
    8714:	8082                	ret
    8716:	0ff5f593          	andi	a1,a1,255
    871a:	04048513          	addi	a0,s1,64 # 10040 <__read_next_512b_first32b+0x74f8>
    871e:	3335                	jal	844a <printf>
    8720:	00092583          	lw	a1,0(s2) # 10010000 <_sp+0xfffed20>
    8724:	b7cd                	j	8706 <uart_echo+0x1c>

00008726 <uart_irq_handler>:
    8726:	b7d1                	j	86ea <uart_echo>

00008728 <dma_irq_handler>:
    8728:	100707b7          	lui	a5,0x10070
    872c:	439c                	lw	a5,0(a5)
    872e:	800006b7          	lui	a3,0x80000
    8732:	10070737          	lui	a4,0x10070
    8736:	4605                	li	a2,1
    8738:	00d79363          	bne	a5,a3,873e <dma_irq_handler+0x16>
    873c:	8082                	ret
    873e:	0007d363          	bgez	a5,8744 <dma_irq_handler+0x1c>
    8742:	cf10                	sw	a2,24(a4)
    8744:	431c                	lw	a5,0(a4)
    8746:	bfcd                	j	8738 <dma_irq_handler+0x10>

00008748 <time_irq_handler>:
    8748:	9b01a703          	lw	a4,-1616(gp) # 102cc <timer_irq_count>
    874c:	00010537          	lui	a0,0x10
    8750:	04850513          	addi	a0,a0,72 # 10048 <__read_next_512b_first32b+0x7500>
    8754:	0705                	addi	a4,a4,1
    8756:	9ae1a823          	sw	a4,-1616(gp) # 102cc <timer_irq_count>
    875a:	9b01a583          	lw	a1,-1616(gp) # 102cc <timer_irq_count>
    875e:	b1f5                	j	844a <printf>

00008760 <irq_puts>:
    8760:	85aa                	mv	a1,a0
    8762:	00010537          	lui	a0,0x10
    8766:	05850513          	addi	a0,a0,88 # 10058 <__read_next_512b_first32b+0x7510>
    876a:	b1c5                	j	844a <printf>

0000876c <mstatus_enable>:
    876c:	300027f3          	csrr	a5,mstatus
    8770:	98f1a423          	sw	a5,-1656(gp) # 102a4 <__SDATA_BEGIN__>
    8774:	9881a683          	lw	a3,-1656(gp) # 102a4 <__SDATA_BEGIN__>
    8778:	4785                	li	a5,1
    877a:	00a79533          	sll	a0,a5,a0
    877e:	8d55                	or	a0,a0,a3
    8780:	98a1a423          	sw	a0,-1656(gp) # 102a4 <__SDATA_BEGIN__>
    8784:	9881a783          	lw	a5,-1656(gp) # 102a4 <__SDATA_BEGIN__>
    8788:	30079073          	csrw	mstatus,a5
    878c:	8082                	ret

0000878e <mstatus_disable>:
    878e:	300027f3          	csrr	a5,mstatus
    8792:	98f1a423          	sw	a5,-1656(gp) # 102a4 <__SDATA_BEGIN__>
    8796:	9881a683          	lw	a3,-1656(gp) # 102a4 <__SDATA_BEGIN__>
    879a:	4785                	li	a5,1
    879c:	00a79533          	sll	a0,a5,a0
    87a0:	fff54513          	not	a0,a0
    87a4:	8d75                	and	a0,a0,a3
    87a6:	98a1a423          	sw	a0,-1656(gp) # 102a4 <__SDATA_BEGIN__>
    87aa:	9881a783          	lw	a5,-1656(gp) # 102a4 <__SDATA_BEGIN__>
    87ae:	30079073          	csrw	mstatus,a5
    87b2:	8082                	ret

000087b4 <irq_init>:
    87b4:	577d                	li	a4,-1
    87b6:	1141                	addi	sp,sp,-16
    87b8:	98e1a623          	sw	a4,-1652(gp) # 102a8 <ie_mask32_std>
    87bc:	c606                	sw	ra,12(sp)
    87be:	98c1a783          	lw	a5,-1652(gp) # 102a8 <ie_mask32_std>
    87c2:	30479073          	csrw	0x304,a5
    87c6:	450d                	li	a0,3
    87c8:	37d9                	jal	878e <mstatus_disable>
    87ca:	40b2                	lw	ra,12(sp)
    87cc:	450d                	li	a0,3
    87ce:	0141                	addi	sp,sp,16
    87d0:	bf71                	j	876c <mstatus_enable>

000087d2 <rv_recv>:
    87d2:	10070737          	lui	a4,0x10070
    87d6:	435c                	lw	a5,4(a4)
    87d8:	800006b7          	lui	a3,0x80000
    87dc:	02d78563          	beq	a5,a3,8806 <rv_recv+0x34>
    87e0:	00072c23          	sw	zero,24(a4) # 10070018 <_sp+0x1005ed38>
    87e4:	02000693          	li	a3,32
    87e8:	c714                	sw	a3,8(a4)
    87ea:	07c2                	slli	a5,a5,0x10
    87ec:	99018693          	addi	a3,gp,-1648 # 102ac <meta_buffer>
    87f0:	83c1                	srli	a5,a5,0x10
    87f2:	c754                	sw	a3,12(a4)
    87f4:	1781                	addi	a5,a5,-32
    87f6:	c71c                	sw	a5,8(a4)
    87f8:	c748                	sw	a0,12(a4)
    87fa:	100706b7          	lui	a3,0x10070
    87fe:	4e98                	lw	a4,24(a3)
    8800:	df7d                	beqz	a4,87fe <rv_recv+0x2c>
    8802:	853e                	mv	a0,a5
    8804:	8082                	ret
    8806:	4501                	li	a0,0
    8808:	8082                	ret

0000880a <rv_send>:
    880a:	01059713          	slli	a4,a1,0x10
    880e:	100707b7          	lui	a5,0x10070
    8812:	02070713          	addi	a4,a4,32
    8816:	cb98                	sw	a4,16(a5)
    8818:	96818713          	addi	a4,gp,-1688 # 10284 <meta_buffer_send>
    881c:	cbd8                	sw	a4,20(a5)
    881e:	cb8c                	sw	a1,16(a5)
    8820:	cbc8                	sw	a0,20(a5)
    8822:	80000737          	lui	a4,0x80000
    8826:	cbd8                	sw	a4,20(a5)
    8828:	4505                	li	a0,1
    882a:	8082                	ret

0000882c <__no_irq_handler>:
    882c:	00008517          	auipc	a0,0x8
    8830:	8c550513          	addi	a0,a0,-1851 # 100f1 <no_exception_handler_msg>
    8834:	f2dff0ef          	jal	ra,8760 <irq_puts>
    8838:	0cc0006f          	j	8904 <end_handler>

0000883c <sw_irq_handler>:
    883c:	342022f3          	csrr	t0,mcause
    8840:	00129293          	slli	t0,t0,0x1
    8844:	0012d293          	srli	t0,t0,0x1
    8848:	00200313          	li	t1,2
    884c:	08628c63          	beq	t0,t1,88e4 <handle_illegal_insn>
    8850:	00b00313          	li	t1,11
    8854:	06628863          	beq	t0,t1,88c4 <handle_ecall>
    8858:	00300313          	li	t1,3
    885c:	06628c63          	beq	t0,t1,88d4 <handle_ebreak>
    8860:	0940006f          	j	88f4 <handle_unknown>

00008864 <__uart_irq_handler>:
    8864:	fe112e23          	sw	ra,-4(sp)
    8868:	0b0000ef          	jal	ra,8918 <save_current_environment>
    886c:	f8010113          	addi	sp,sp,-128
    8870:	eb7ff0ef          	jal	ra,8726 <uart_irq_handler>
    8874:	08010113          	addi	sp,sp,128
    8878:	11c000ef          	jal	ra,8994 <load_previous_environment>
    887c:	ffc12083          	lw	ra,-4(sp)
    8880:	30200073          	mret

00008884 <__dma_irq_handler>:
    8884:	fe112e23          	sw	ra,-4(sp)
    8888:	090000ef          	jal	ra,8918 <save_current_environment>
    888c:	f8010113          	addi	sp,sp,-128
    8890:	e99ff0ef          	jal	ra,8728 <dma_irq_handler>
    8894:	08010113          	addi	sp,sp,128
    8898:	0fc000ef          	jal	ra,8994 <load_previous_environment>
    889c:	ffc12083          	lw	ra,-4(sp)
    88a0:	30200073          	mret

000088a4 <__time_irq_handler>:
    88a4:	fe112e23          	sw	ra,-4(sp)
    88a8:	070000ef          	jal	ra,8918 <save_current_environment>
    88ac:	f8010113          	addi	sp,sp,-128
    88b0:	e99ff0ef          	jal	ra,8748 <time_irq_handler>
    88b4:	08010113          	addi	sp,sp,128
    88b8:	0dc000ef          	jal	ra,8994 <load_previous_environment>
    88bc:	ffc12083          	lw	ra,-4(sp)
    88c0:	30200073          	mret

000088c4 <handle_ecall>:
    88c4:	00007517          	auipc	a0,0x7
    88c8:	7c750513          	addi	a0,a0,1991 # 1008b <ecall_msg>
    88cc:	e95ff0ef          	jal	ra,8760 <irq_puts>
    88d0:	0340006f          	j	8904 <end_handler>

000088d4 <handle_ebreak>:
    88d4:	00007517          	auipc	a0,0x7
    88d8:	7d850513          	addi	a0,a0,2008 # 100ac <ebreak_msg>
    88dc:	e85ff0ef          	jal	ra,8760 <irq_puts>
    88e0:	0240006f          	j	8904 <end_handler>

000088e4 <handle_illegal_insn>:
    88e4:	00007517          	auipc	a0,0x7
    88e8:	77850513          	addi	a0,a0,1912 # 1005c <illegal_insn_msg>
    88ec:	e75ff0ef          	jal	ra,8760 <irq_puts>
    88f0:	0140006f          	j	8904 <end_handler>

000088f4 <handle_unknown>:
    88f4:	00007517          	auipc	a0,0x7
    88f8:	7da50513          	addi	a0,a0,2010 # 100ce <unknown_msg>
    88fc:	e65ff0ef          	jal	ra,8760 <irq_puts>
    8900:	0040006f          	j	8904 <end_handler>

00008904 <end_handler>:
    8904:	34102573          	csrr	a0,mepc
    8908:	00450513          	addi	a0,a0,4
    890c:	34151073          	csrw	mepc,a0
    8910:	30200073          	mret

00008914 <verification_irq_handler>:
    8914:	30200073          	mret

00008918 <save_current_environment>:
    8918:	fe212c23          	sw	sp,-8(sp)
    891c:	fe312a23          	sw	gp,-12(sp)
    8920:	fe412823          	sw	tp,-16(sp)
    8924:	fe512623          	sw	t0,-20(sp)
    8928:	fe612423          	sw	t1,-24(sp)
    892c:	fe712223          	sw	t2,-28(sp)
    8930:	fe812023          	sw	s0,-32(sp)
    8934:	fc912e23          	sw	s1,-36(sp)
    8938:	fca12c23          	sw	a0,-40(sp)
    893c:	fcb12a23          	sw	a1,-44(sp)
    8940:	fcc12823          	sw	a2,-48(sp)
    8944:	fcd12623          	sw	a3,-52(sp)
    8948:	fce12423          	sw	a4,-56(sp)
    894c:	fcf12223          	sw	a5,-60(sp)
    8950:	fd012023          	sw	a6,-64(sp)
    8954:	fb112e23          	sw	a7,-68(sp)
    8958:	fb212c23          	sw	s2,-72(sp)
    895c:	fb312a23          	sw	s3,-76(sp)
    8960:	fb412823          	sw	s4,-80(sp)
    8964:	fb512623          	sw	s5,-84(sp)
    8968:	fb612423          	sw	s6,-88(sp)
    896c:	fb712223          	sw	s7,-92(sp)
    8970:	fb812023          	sw	s8,-96(sp)
    8974:	f9912e23          	sw	s9,-100(sp)
    8978:	f9a12c23          	sw	s10,-104(sp)
    897c:	f9b12a23          	sw	s11,-108(sp)
    8980:	f9c12823          	sw	t3,-112(sp)
    8984:	f9d12623          	sw	t4,-116(sp)
    8988:	f9e12423          	sw	t5,-120(sp)
    898c:	f9f12223          	sw	t6,-124(sp)
    8990:	00008067          	ret

00008994 <load_previous_environment>:
    8994:	ff412183          	lw	gp,-12(sp)
    8998:	ff012203          	lw	tp,-16(sp)
    899c:	fec12283          	lw	t0,-20(sp)
    89a0:	fe812303          	lw	t1,-24(sp)
    89a4:	fe412383          	lw	t2,-28(sp)
    89a8:	fe012403          	lw	s0,-32(sp)
    89ac:	fdc12483          	lw	s1,-36(sp)
    89b0:	fd812503          	lw	a0,-40(sp)
    89b4:	fd412583          	lw	a1,-44(sp)
    89b8:	fd012603          	lw	a2,-48(sp)
    89bc:	fcc12683          	lw	a3,-52(sp)
    89c0:	fc812703          	lw	a4,-56(sp)
    89c4:	fc412783          	lw	a5,-60(sp)
    89c8:	fc012803          	lw	a6,-64(sp)
    89cc:	fbc12883          	lw	a7,-68(sp)
    89d0:	fb812903          	lw	s2,-72(sp)
    89d4:	fb412983          	lw	s3,-76(sp)
    89d8:	fb012a03          	lw	s4,-80(sp)
    89dc:	fac12a83          	lw	s5,-84(sp)
    89e0:	fa812b03          	lw	s6,-88(sp)
    89e4:	fa412b83          	lw	s7,-92(sp)
    89e8:	fa012c03          	lw	s8,-96(sp)
    89ec:	f9c12c83          	lw	s9,-100(sp)
    89f0:	f9812d03          	lw	s10,-104(sp)
    89f4:	f9412d83          	lw	s11,-108(sp)
    89f8:	f9012e03          	lw	t3,-112(sp)
    89fc:	f8c12e83          	lw	t4,-116(sp)
    8a00:	f8812f03          	lw	t5,-120(sp)
    8a04:	f8412f83          	lw	t6,-124(sp)
    8a08:	00008067          	ret

00008a0c <__test_custom_instr>:
    8a0c:	00a0809b          	0xa0809b
    8a10:	00a0a11b          	0xa0a11b
    8a14:	00b0b19b          	0xb0b19b
    8a18:	00b0c21b          	0xb0c21b
    8a1c:	00b2629b          	0xb2629b
    8a20:	00a2f31b          	0xa2f31b
    8a24:	0080939b          	0x80939b
    8a28:	0040d41b          	0x40d41b
    8a2c:	4010d49b          	0x4010d49b
    8a30:	9f9f 0000 851f      	0x851f00009f9f
    8a36:	0000                	unimp
    8a38:	000105bf 0000065f 	0x65f000105bf
    8a40:	16df 0000 275f      	0x275f000016df
    8a46:	0000                	unimp
    8a48:	47df 0000 585f      	0x585f000047df
    8a4e:	0000                	unimp
    8a50:	00c5806b          	0xc5806b
    8a54:	00d5906b          	0xd5906b
    8a58:	00e5a06b          	0xe5a06b
    8a5c:	875f 0005 96df      	0x96df0005875f
    8a62:	0005                	c.addi	zero,1
    8a64:	a65f 0005 88bb      	0x88bb0005a65f
    8a6a:	093b0013          	addi	zero,s6,147
    8a6e:	4014                	lw	a3,0(s0)
    8a70:	001499bb          	0x1499bb
    8a74:	00102a3b          	0x102a3b
    8a78:	0010babb          	0x10babb
    8a7c:	00114b3b          	0x114b3b
    8a80:	0011dbbb          	0x11dbbb
    8a84:	40125c3b          	0x40125c3b
    8a88:	0012ecbb          	0x12ecbb
    8a8c:	00137d3b          	0x137d3b
    8a90:	8082                	ret

00008a92 <__to_recv_pkt>:
    8a92:	20000f3f 00008013 	0x801320000f3f
    8a9a:	00010013          	mv	zero,sp
    8a9e:	151f 000f 8082      	0x8082000f151f

00008aa4 <__test_proc_pkt>:
    8aa4:	01081a1b          	0x1081a1b
    8aa8:	010a5a1b          	0x10a5a1b
    8aac:	151f 000a 8082      	0x8082000a151f

00008ab2 <__test_replace_mac>:
    8ab2:	01005a1b          	0x1005a1b
    8ab6:	01001a9b          	0x1001a9b
    8aba:	0100db1b          	0x100db1b
    8abe:	01009c1b          	0x1009c1b
    8ac2:	01015c9b          	0x1015c9b
    8ac6:	01011d1b          	0x1011d1b
    8aca:	018c803b          	0x18c803b
    8ace:	014d00bb          	0x14d00bb
    8ad2:	015b013b          	0x15b013b
    8ad6:	01081d9b          	0x1081d9b
    8ada:	010ddd9b          	0x10ddd9b
    8ade:	951f 000d 8082      	0x8082000d951f

00008ae4 <__add_next_512b_first32b_with_1>:
    8ae4:	40000f3f 80000f3f 	0x80000f3f40000f3f
    8aec:	000d1d9b          	0xd1d9b
    8af0:	000d1d9b          	0xd1d9b
    8af4:	000d1d9b          	0xd1d9b
    8af8:	000d1d9b          	0xd1d9b
    8afc:	000d1d9b          	0xd1d9b
    8b00:	000d1d9b          	0xd1d9b
    8b04:	08000f3f 000d1d9b 	0xd1d9b08000f3f
    8b0c:	000d1d9b          	0xd1d9b
    8b10:	0017879b          	0x17879b
    8b14:	8082                	ret

00008b16 <__to_send_pkt>:
    8b16:	0048181b          	0x48181b
    8b1a:	0048581b          	0x48581b
    8b1e:	0d9f 0005 9d9b      	0x9d9b00050d9f
    8b24:	01cd                	addi	gp,gp,19
    8b26:	01b8683b          	0x1b8683b
    8b2a:	10000f3f 181b8082 	0x808210000f3f

00008b30 <__test_send_pkt>:
    8b30:	0048181b          	0x48181b
    8b34:	0048581b          	0x48581b
    8b38:	10000f3f da1b8082 	0x808210000f3f

00008b3e <__read_type>:
    8b3e:	0101da1b          	0x101da1b
    8b42:	151f 000a 8082      	0x8082000a151f

00008b48 <__read_next_512b_first32b>:
    8b48:	80000f3f 000d1d9b 	0xd1d9b80000f3f
    8b50:	000d1d9b          	0xd1d9b
    8b54:	000d1d9b          	0xd1d9b
    8b58:	000d1d9b          	0xd1d9b
    8b5c:	000d1d9b          	0xd1d9b
    8b60:	000d1d9b          	0xd1d9b
    8b64:	08000f3f 000d1d9b 	0xd1d9b08000f3f
    8b6c:	000d1d9b          	0xd1d9b
    8b70:	151f 0000 8082      	0x80820000151f
